
SEP4E-Two-player-pingPong.elf:     file format elf32-avr

Sections:
Idx Name          Size      VMA       LMA       File off  Algn
  0 .data         00000076  00800100  00004fba  0000504e  2**0
                  CONTENTS, ALLOC, LOAD, DATA
  1 .text         00004fba  00000000  00000000  00000094  2**1
                  CONTENTS, ALLOC, LOAD, READONLY, CODE
  2 .bss          000006ad  00800176  00800176  000050c4  2**0
                  ALLOC
  3 .comment      00000030  00000000  00000000  000050c4  2**0
                  CONTENTS, READONLY
  4 .note.gnu.avr.deviceinfo 00000040  00000000  00000000  000050f4  2**2
                  CONTENTS, READONLY
  5 .debug_aranges 00000660  00000000  00000000  00005134  2**0
                  CONTENTS, READONLY, DEBUGGING
  6 .debug_info   00005101  00000000  00000000  00005794  2**0
                  CONTENTS, READONLY, DEBUGGING
  7 .debug_abbrev 00001857  00000000  00000000  0000a895  2**0
                  CONTENTS, READONLY, DEBUGGING
  8 .debug_line   00004784  00000000  00000000  0000c0ec  2**0
                  CONTENTS, READONLY, DEBUGGING
  9 .debug_frame  000017e4  00000000  00000000  00010870  2**2
                  CONTENTS, READONLY, DEBUGGING
 10 .debug_str    00002175  00000000  00000000  00012054  2**0
                  CONTENTS, READONLY, DEBUGGING
 11 .debug_loc    00003261  00000000  00000000  000141c9  2**0
                  CONTENTS, READONLY, DEBUGGING
 12 .debug_ranges 00000580  00000000  00000000  0001742a  2**0
                  CONTENTS, READONLY, DEBUGGING

Disassembly of section .text:

00000000 <__vectors>:
       0:	0c 94 3e 00 	jmp	0x7c	; 0x7c <__ctors_end>
       4:	0c 94 5b 00 	jmp	0xb6	; 0xb6 <__bad_interrupt>
       8:	0c 94 5b 00 	jmp	0xb6	; 0xb6 <__bad_interrupt>
       c:	0c 94 5b 00 	jmp	0xb6	; 0xb6 <__bad_interrupt>
      10:	0c 94 5b 00 	jmp	0xb6	; 0xb6 <__bad_interrupt>
      14:	0c 94 5b 00 	jmp	0xb6	; 0xb6 <__bad_interrupt>
      18:	0c 94 5b 00 	jmp	0xb6	; 0xb6 <__bad_interrupt>
      1c:	0c 94 5b 00 	jmp	0xb6	; 0xb6 <__bad_interrupt>
      20:	0c 94 5b 00 	jmp	0xb6	; 0xb6 <__bad_interrupt>
      24:	0c 94 5b 00 	jmp	0xb6	; 0xb6 <__bad_interrupt>
      28:	0c 94 5b 00 	jmp	0xb6	; 0xb6 <__bad_interrupt>
      2c:	0c 94 5b 00 	jmp	0xb6	; 0xb6 <__bad_interrupt>
      30:	0c 94 5b 00 	jmp	0xb6	; 0xb6 <__bad_interrupt>
      34:	0c 94 70 15 	jmp	0x2ae0	; 0x2ae0 <__vector_13>
      38:	0c 94 5b 00 	jmp	0xb6	; 0xb6 <__bad_interrupt>
      3c:	0c 94 5b 00 	jmp	0xb6	; 0xb6 <__bad_interrupt>
      40:	0c 94 5c 0f 	jmp	0x1eb8	; 0x1eb8 <__vector_16>
      44:	0c 94 5b 00 	jmp	0xb6	; 0xb6 <__bad_interrupt>
      48:	0c 94 5b 00 	jmp	0xb6	; 0xb6 <__bad_interrupt>
      4c:	0c 94 5b 00 	jmp	0xb6	; 0xb6 <__bad_interrupt>
      50:	0c 94 78 16 	jmp	0x2cf0	; 0x2cf0 <__vector_20>
      54:	0c 94 d1 16 	jmp	0x2da2	; 0x2da2 <__vector_21>
      58:	0c 94 5b 00 	jmp	0xb6	; 0xb6 <__bad_interrupt>
      5c:	0c 94 5b 00 	jmp	0xb6	; 0xb6 <__bad_interrupt>
      60:	0c 94 5b 00 	jmp	0xb6	; 0xb6 <__bad_interrupt>
      64:	0c 94 5b 00 	jmp	0xb6	; 0xb6 <__bad_interrupt>
      68:	0c 94 5b 00 	jmp	0xb6	; 0xb6 <__bad_interrupt>
      6c:	0c 94 5b 00 	jmp	0xb6	; 0xb6 <__bad_interrupt>
      70:	0c 94 2c 17 	jmp	0x2e58	; 0x2e58 <__vector_28>
      74:	0c 94 85 17 	jmp	0x2f0a	; 0x2f0a <__vector_29>
      78:	0c 94 5b 00 	jmp	0xb6	; 0xb6 <__bad_interrupt>

0000007c <__ctors_end>:
      7c:	11 24       	eor	r1, r1
      7e:	1f be       	out	0x3f, r1	; 63
      80:	cf ef       	ldi	r28, 0xFF	; 255
      82:	d8 e0       	ldi	r29, 0x08	; 8
      84:	de bf       	out	0x3e, r29	; 62
      86:	cd bf       	out	0x3d, r28	; 61

00000088 <__do_copy_data>:
      88:	11 e0       	ldi	r17, 0x01	; 1
      8a:	a0 e0       	ldi	r26, 0x00	; 0
      8c:	b1 e0       	ldi	r27, 0x01	; 1
      8e:	ea eb       	ldi	r30, 0xBA	; 186
      90:	ff e4       	ldi	r31, 0x4F	; 79
      92:	02 c0       	rjmp	.+4      	; 0x98 <__do_copy_data+0x10>
      94:	05 90       	lpm	r0, Z+
      96:	0d 92       	st	X+, r0
      98:	a6 37       	cpi	r26, 0x76	; 118
      9a:	b1 07       	cpc	r27, r17
      9c:	d9 f7       	brne	.-10     	; 0x94 <__do_copy_data+0xc>

0000009e <__do_clear_bss>:
      9e:	28 e0       	ldi	r18, 0x08	; 8
      a0:	a6 e7       	ldi	r26, 0x76	; 118
      a2:	b1 e0       	ldi	r27, 0x01	; 1
      a4:	01 c0       	rjmp	.+2      	; 0xa8 <.do_clear_bss_start>

000000a6 <.do_clear_bss_loop>:
      a6:	1d 92       	st	X+, r1

000000a8 <.do_clear_bss_start>:
      a8:	a3 32       	cpi	r26, 0x23	; 35
      aa:	b2 07       	cpc	r27, r18
      ac:	e1 f7       	brne	.-8      	; 0xa6 <.do_clear_bss_loop>
      ae:	0e 94 d5 09 	call	0x13aa	; 0x13aa <main>
      b2:	0c 94 db 27 	jmp	0x4fb6	; 0x4fb6 <_exit>

000000b6 <__bad_interrupt>:
      b6:	0c 94 00 00 	jmp	0	; 0x0 <__vectors>

000000ba <byte_stuff>:
      ba:	cf 93       	push	r28
      bc:	df 93       	push	r29
      be:	cd b7       	in	r28, 0x3d	; 61
      c0:	de b7       	in	r29, 0x3e	; 62
      c2:	2c 97       	sbiw	r28, 0x0c	; 12
      c4:	0f b6       	in	r0, 0x3f	; 63
      c6:	f8 94       	cli
      c8:	de bf       	out	0x3e, r29	; 62
      ca:	0f be       	out	0x3f, r0	; 63
      cc:	cd bf       	out	0x3d, r28	; 61
      ce:	98 87       	std	Y+8, r25	; 0x08
      d0:	8f 83       	std	Y+7, r24	; 0x07
      d2:	69 87       	std	Y+9, r22	; 0x09
      d4:	5b 87       	std	Y+11, r21	; 0x0b
      d6:	4a 87       	std	Y+10, r20	; 0x0a
      d8:	2c 87       	std	Y+12, r18	; 0x0c
      da:	8a 85       	ldd	r24, Y+10	; 0x0a
      dc:	9b 85       	ldd	r25, Y+11	; 0x0b
      de:	9a 83       	std	Y+2, r25	; 0x02
      e0:	89 83       	std	Y+1, r24	; 0x01
      e2:	8c 85       	ldd	r24, Y+12	; 0x0c
      e4:	88 2f       	mov	r24, r24
      e6:	90 e0       	ldi	r25, 0x00	; 0
      e8:	2a 85       	ldd	r18, Y+10	; 0x0a
      ea:	3b 85       	ldd	r19, Y+11	; 0x0b
      ec:	82 0f       	add	r24, r18
      ee:	93 1f       	adc	r25, r19
      f0:	9c 83       	std	Y+4, r25	; 0x04
      f2:	8b 83       	std	Y+3, r24	; 0x03
      f4:	89 85       	ldd	r24, Y+9	; 0x09
      f6:	88 2f       	mov	r24, r24
      f8:	90 e0       	ldi	r25, 0x00	; 0
      fa:	2f 81       	ldd	r18, Y+7	; 0x07
      fc:	38 85       	ldd	r19, Y+8	; 0x08
      fe:	82 0f       	add	r24, r18
     100:	93 1f       	adc	r25, r19
     102:	9e 83       	std	Y+6, r25	; 0x06
     104:	8d 83       	std	Y+5, r24	; 0x05
     106:	69 c0       	rjmp	.+210    	; 0x1da <byte_stuff+0x120>
     108:	8f 81       	ldd	r24, Y+7	; 0x07
     10a:	98 85       	ldd	r25, Y+8	; 0x08
     10c:	fc 01       	movw	r30, r24
     10e:	80 81       	ld	r24, Z
     110:	88 2f       	mov	r24, r24
     112:	90 e0       	ldi	r25, 0x00	; 0
     114:	00 97       	sbiw	r24, 0x00	; 0
     116:	21 f0       	breq	.+8      	; 0x120 <byte_stuff+0x66>
     118:	8f 3f       	cpi	r24, 0xFF	; 255
     11a:	91 05       	cpc	r25, r1
     11c:	41 f1       	breq	.+80     	; 0x16e <byte_stuff+0xb4>
     11e:	4a c0       	rjmp	.+148    	; 0x1b4 <byte_stuff+0xfa>
     120:	8b 81       	ldd	r24, Y+3	; 0x03
     122:	9c 81       	ldd	r25, Y+4	; 0x04
     124:	9c 01       	movw	r18, r24
     126:	21 50       	subi	r18, 0x01	; 1
     128:	31 09       	sbc	r19, r1
     12a:	8a 85       	ldd	r24, Y+10	; 0x0a
     12c:	9b 85       	ldd	r25, Y+11	; 0x0b
     12e:	82 17       	cp	r24, r18
     130:	93 07       	cpc	r25, r19
     132:	d8 f4       	brcc	.+54     	; 0x16a <byte_stuff+0xb0>
     134:	8a 85       	ldd	r24, Y+10	; 0x0a
     136:	9b 85       	ldd	r25, Y+11	; 0x0b
     138:	9c 01       	movw	r18, r24
     13a:	2f 5f       	subi	r18, 0xFF	; 255
     13c:	3f 4f       	sbci	r19, 0xFF	; 255
     13e:	3b 87       	std	Y+11, r19	; 0x0b
     140:	2a 87       	std	Y+10, r18	; 0x0a
     142:	2f 81       	ldd	r18, Y+7	; 0x07
     144:	38 85       	ldd	r19, Y+8	; 0x08
     146:	f9 01       	movw	r30, r18
     148:	20 81       	ld	r18, Z
     14a:	fc 01       	movw	r30, r24
     14c:	20 83       	st	Z, r18
     14e:	8a 85       	ldd	r24, Y+10	; 0x0a
     150:	9b 85       	ldd	r25, Y+11	; 0x0b
     152:	9c 01       	movw	r18, r24
     154:	2f 5f       	subi	r18, 0xFF	; 255
     156:	3f 4f       	sbci	r19, 0xFF	; 255
     158:	3b 87       	std	Y+11, r19	; 0x0b
     15a:	2a 87       	std	Y+10, r18	; 0x0a
     15c:	2f 81       	ldd	r18, Y+7	; 0x07
     15e:	38 85       	ldd	r19, Y+8	; 0x08
     160:	f9 01       	movw	r30, r18
     162:	20 81       	ld	r18, Z
     164:	fc 01       	movw	r30, r24
     166:	20 83       	st	Z, r18
     168:	33 c0       	rjmp	.+102    	; 0x1d0 <byte_stuff+0x116>
     16a:	80 e0       	ldi	r24, 0x00	; 0
     16c:	4d c0       	rjmp	.+154    	; 0x208 <byte_stuff+0x14e>
     16e:	8b 81       	ldd	r24, Y+3	; 0x03
     170:	9c 81       	ldd	r25, Y+4	; 0x04
     172:	9c 01       	movw	r18, r24
     174:	21 50       	subi	r18, 0x01	; 1
     176:	31 09       	sbc	r19, r1
     178:	8a 85       	ldd	r24, Y+10	; 0x0a
     17a:	9b 85       	ldd	r25, Y+11	; 0x0b
     17c:	82 17       	cp	r24, r18
     17e:	93 07       	cpc	r25, r19
     180:	b8 f4       	brcc	.+46     	; 0x1b0 <byte_stuff+0xf6>
     182:	8a 85       	ldd	r24, Y+10	; 0x0a
     184:	9b 85       	ldd	r25, Y+11	; 0x0b
     186:	9c 01       	movw	r18, r24
     188:	2f 5f       	subi	r18, 0xFF	; 255
     18a:	3f 4f       	sbci	r19, 0xFF	; 255
     18c:	3b 87       	std	Y+11, r19	; 0x0b
     18e:	2a 87       	std	Y+10, r18	; 0x0a
     190:	fc 01       	movw	r30, r24
     192:	10 82       	st	Z, r1
     194:	8a 85       	ldd	r24, Y+10	; 0x0a
     196:	9b 85       	ldd	r25, Y+11	; 0x0b
     198:	9c 01       	movw	r18, r24
     19a:	2f 5f       	subi	r18, 0xFF	; 255
     19c:	3f 4f       	sbci	r19, 0xFF	; 255
     19e:	3b 87       	std	Y+11, r19	; 0x0b
     1a0:	2a 87       	std	Y+10, r18	; 0x0a
     1a2:	2f 81       	ldd	r18, Y+7	; 0x07
     1a4:	38 85       	ldd	r19, Y+8	; 0x08
     1a6:	f9 01       	movw	r30, r18
     1a8:	20 81       	ld	r18, Z
     1aa:	fc 01       	movw	r30, r24
     1ac:	20 83       	st	Z, r18
     1ae:	10 c0       	rjmp	.+32     	; 0x1d0 <byte_stuff+0x116>
     1b0:	80 e0       	ldi	r24, 0x00	; 0
     1b2:	2a c0       	rjmp	.+84     	; 0x208 <byte_stuff+0x14e>
     1b4:	8a 85       	ldd	r24, Y+10	; 0x0a
     1b6:	9b 85       	ldd	r25, Y+11	; 0x0b
     1b8:	9c 01       	movw	r18, r24
     1ba:	2f 5f       	subi	r18, 0xFF	; 255
     1bc:	3f 4f       	sbci	r19, 0xFF	; 255
     1be:	3b 87       	std	Y+11, r19	; 0x0b
     1c0:	2a 87       	std	Y+10, r18	; 0x0a
     1c2:	2f 81       	ldd	r18, Y+7	; 0x07
     1c4:	38 85       	ldd	r19, Y+8	; 0x08
     1c6:	f9 01       	movw	r30, r18
     1c8:	20 81       	ld	r18, Z
     1ca:	fc 01       	movw	r30, r24
     1cc:	20 83       	st	Z, r18
     1ce:	00 00       	nop
     1d0:	8f 81       	ldd	r24, Y+7	; 0x07
     1d2:	98 85       	ldd	r25, Y+8	; 0x08
     1d4:	01 96       	adiw	r24, 0x01	; 1
     1d6:	98 87       	std	Y+8, r25	; 0x08
     1d8:	8f 83       	std	Y+7, r24	; 0x07
     1da:	2f 81       	ldd	r18, Y+7	; 0x07
     1dc:	38 85       	ldd	r19, Y+8	; 0x08
     1de:	8d 81       	ldd	r24, Y+5	; 0x05
     1e0:	9e 81       	ldd	r25, Y+6	; 0x06
     1e2:	28 17       	cp	r18, r24
     1e4:	39 07       	cpc	r19, r25
     1e6:	40 f4       	brcc	.+16     	; 0x1f8 <byte_stuff+0x13e>
     1e8:	2a 85       	ldd	r18, Y+10	; 0x0a
     1ea:	3b 85       	ldd	r19, Y+11	; 0x0b
     1ec:	8b 81       	ldd	r24, Y+3	; 0x03
     1ee:	9c 81       	ldd	r25, Y+4	; 0x04
     1f0:	28 17       	cp	r18, r24
     1f2:	39 07       	cpc	r19, r25
     1f4:	08 f4       	brcc	.+2      	; 0x1f8 <byte_stuff+0x13e>
     1f6:	88 cf       	rjmp	.-240    	; 0x108 <byte_stuff+0x4e>
     1f8:	2a 85       	ldd	r18, Y+10	; 0x0a
     1fa:	3b 85       	ldd	r19, Y+11	; 0x0b
     1fc:	89 81       	ldd	r24, Y+1	; 0x01
     1fe:	9a 81       	ldd	r25, Y+2	; 0x02
     200:	a9 01       	movw	r20, r18
     202:	48 1b       	sub	r20, r24
     204:	59 0b       	sbc	r21, r25
     206:	ca 01       	movw	r24, r20
     208:	2c 96       	adiw	r28, 0x0c	; 12
     20a:	0f b6       	in	r0, 0x3f	; 63
     20c:	f8 94       	cli
     20e:	de bf       	out	0x3e, r29	; 62
     210:	0f be       	out	0x3f, r0	; 63
     212:	cd bf       	out	0x3d, r28	; 61
     214:	df 91       	pop	r29
     216:	cf 91       	pop	r28
     218:	08 95       	ret

0000021a <byte_unstuff>:
     21a:	cf 93       	push	r28
     21c:	df 93       	push	r29
     21e:	cd b7       	in	r28, 0x3d	; 61
     220:	de b7       	in	r29, 0x3e	; 62
     222:	2c 97       	sbiw	r28, 0x0c	; 12
     224:	0f b6       	in	r0, 0x3f	; 63
     226:	f8 94       	cli
     228:	de bf       	out	0x3e, r29	; 62
     22a:	0f be       	out	0x3f, r0	; 63
     22c:	cd bf       	out	0x3d, r28	; 61
     22e:	98 87       	std	Y+8, r25	; 0x08
     230:	8f 83       	std	Y+7, r24	; 0x07
     232:	69 87       	std	Y+9, r22	; 0x09
     234:	5b 87       	std	Y+11, r21	; 0x0b
     236:	4a 87       	std	Y+10, r20	; 0x0a
     238:	2c 87       	std	Y+12, r18	; 0x0c
     23a:	8f 81       	ldd	r24, Y+7	; 0x07
     23c:	98 85       	ldd	r25, Y+8	; 0x08
     23e:	9a 83       	std	Y+2, r25	; 0x02
     240:	89 83       	std	Y+1, r24	; 0x01
     242:	89 85       	ldd	r24, Y+9	; 0x09
     244:	88 2f       	mov	r24, r24
     246:	90 e0       	ldi	r25, 0x00	; 0
     248:	2f 81       	ldd	r18, Y+7	; 0x07
     24a:	38 85       	ldd	r19, Y+8	; 0x08
     24c:	82 0f       	add	r24, r18
     24e:	93 1f       	adc	r25, r19
     250:	9c 83       	std	Y+4, r25	; 0x04
     252:	8b 83       	std	Y+3, r24	; 0x03
     254:	8c 85       	ldd	r24, Y+12	; 0x0c
     256:	88 2f       	mov	r24, r24
     258:	90 e0       	ldi	r25, 0x00	; 0
     25a:	2a 85       	ldd	r18, Y+10	; 0x0a
     25c:	3b 85       	ldd	r19, Y+11	; 0x0b
     25e:	82 0f       	add	r24, r18
     260:	93 1f       	adc	r25, r19
     262:	9e 83       	std	Y+6, r25	; 0x06
     264:	8d 83       	std	Y+5, r24	; 0x05
     266:	39 c0       	rjmp	.+114    	; 0x2da <byte_unstuff+0xc0>
     268:	8a 85       	ldd	r24, Y+10	; 0x0a
     26a:	9b 85       	ldd	r25, Y+11	; 0x0b
     26c:	fc 01       	movw	r30, r24
     26e:	80 81       	ld	r24, Z
     270:	88 23       	and	r24, r24
     272:	09 f5       	brne	.+66     	; 0x2b6 <byte_unstuff+0x9c>
     274:	8a 85       	ldd	r24, Y+10	; 0x0a
     276:	9b 85       	ldd	r25, Y+11	; 0x0b
     278:	01 96       	adiw	r24, 0x01	; 1
     27a:	9b 87       	std	Y+11, r25	; 0x0b
     27c:	8a 87       	std	Y+10, r24	; 0x0a
     27e:	8a 85       	ldd	r24, Y+10	; 0x0a
     280:	9b 85       	ldd	r25, Y+11	; 0x0b
     282:	fc 01       	movw	r30, r24
     284:	80 81       	ld	r24, Z
     286:	88 23       	and	r24, r24
     288:	31 f0       	breq	.+12     	; 0x296 <byte_unstuff+0x7c>
     28a:	8a 85       	ldd	r24, Y+10	; 0x0a
     28c:	9b 85       	ldd	r25, Y+11	; 0x0b
     28e:	fc 01       	movw	r30, r24
     290:	80 81       	ld	r24, Z
     292:	8f 3f       	cpi	r24, 0xFF	; 255
     294:	71 f4       	brne	.+28     	; 0x2b2 <byte_unstuff+0x98>
     296:	8f 81       	ldd	r24, Y+7	; 0x07
     298:	98 85       	ldd	r25, Y+8	; 0x08
     29a:	9c 01       	movw	r18, r24
     29c:	2f 5f       	subi	r18, 0xFF	; 255
     29e:	3f 4f       	sbci	r19, 0xFF	; 255
     2a0:	38 87       	std	Y+8, r19	; 0x08
     2a2:	2f 83       	std	Y+7, r18	; 0x07
     2a4:	2a 85       	ldd	r18, Y+10	; 0x0a
     2a6:	3b 85       	ldd	r19, Y+11	; 0x0b
     2a8:	f9 01       	movw	r30, r18
     2aa:	20 81       	ld	r18, Z
     2ac:	fc 01       	movw	r30, r24
     2ae:	20 83       	st	Z, r18
     2b0:	0f c0       	rjmp	.+30     	; 0x2d0 <byte_unstuff+0xb6>
     2b2:	80 e0       	ldi	r24, 0x00	; 0
     2b4:	29 c0       	rjmp	.+82     	; 0x308 <byte_unstuff+0xee>
     2b6:	8f 81       	ldd	r24, Y+7	; 0x07
     2b8:	98 85       	ldd	r25, Y+8	; 0x08
     2ba:	9c 01       	movw	r18, r24
     2bc:	2f 5f       	subi	r18, 0xFF	; 255
     2be:	3f 4f       	sbci	r19, 0xFF	; 255
     2c0:	38 87       	std	Y+8, r19	; 0x08
     2c2:	2f 83       	std	Y+7, r18	; 0x07
     2c4:	2a 85       	ldd	r18, Y+10	; 0x0a
     2c6:	3b 85       	ldd	r19, Y+11	; 0x0b
     2c8:	f9 01       	movw	r30, r18
     2ca:	20 81       	ld	r18, Z
     2cc:	fc 01       	movw	r30, r24
     2ce:	20 83       	st	Z, r18
     2d0:	8a 85       	ldd	r24, Y+10	; 0x0a
     2d2:	9b 85       	ldd	r25, Y+11	; 0x0b
     2d4:	01 96       	adiw	r24, 0x01	; 1
     2d6:	9b 87       	std	Y+11, r25	; 0x0b
     2d8:	8a 87       	std	Y+10, r24	; 0x0a
     2da:	2f 81       	ldd	r18, Y+7	; 0x07
     2dc:	38 85       	ldd	r19, Y+8	; 0x08
     2de:	8b 81       	ldd	r24, Y+3	; 0x03
     2e0:	9c 81       	ldd	r25, Y+4	; 0x04
     2e2:	28 17       	cp	r18, r24
     2e4:	39 07       	cpc	r19, r25
     2e6:	40 f4       	brcc	.+16     	; 0x2f8 <byte_unstuff+0xde>
     2e8:	2a 85       	ldd	r18, Y+10	; 0x0a
     2ea:	3b 85       	ldd	r19, Y+11	; 0x0b
     2ec:	8d 81       	ldd	r24, Y+5	; 0x05
     2ee:	9e 81       	ldd	r25, Y+6	; 0x06
     2f0:	28 17       	cp	r18, r24
     2f2:	39 07       	cpc	r19, r25
     2f4:	08 f4       	brcc	.+2      	; 0x2f8 <byte_unstuff+0xde>
     2f6:	b8 cf       	rjmp	.-144    	; 0x268 <byte_unstuff+0x4e>
     2f8:	2f 81       	ldd	r18, Y+7	; 0x07
     2fa:	38 85       	ldd	r19, Y+8	; 0x08
     2fc:	89 81       	ldd	r24, Y+1	; 0x01
     2fe:	9a 81       	ldd	r25, Y+2	; 0x02
     300:	a9 01       	movw	r20, r18
     302:	48 1b       	sub	r20, r24
     304:	59 0b       	sbc	r21, r25
     306:	ca 01       	movw	r24, r20
     308:	2c 96       	adiw	r28, 0x0c	; 12
     30a:	0f b6       	in	r0, 0x3f	; 63
     30c:	f8 94       	cli
     30e:	de bf       	out	0x3e, r29	; 62
     310:	0f be       	out	0x3f, r0	; 63
     312:	cd bf       	out	0x3d, r28	; 61
     314:	df 91       	pop	r29
     316:	cf 91       	pop	r28
     318:	08 95       	ret

0000031a <bat_move>:
bool score=false;
int* bata[3];
int* batb[3];

void bat_move(Player_t player, Direction_t direction)
{
     31a:	cf 93       	push	r28
     31c:	df 93       	push	r29
     31e:	00 d0       	rcall	.+0      	; 0x320 <bat_move+0x6>
     320:	cd b7       	in	r28, 0x3d	; 61
     322:	de b7       	in	r29, 0x3e	; 62
     324:	89 83       	std	Y+1, r24	; 0x01
     326:	6a 83       	std	Y+2, r22	; 0x02
	
	switch(direction)
     328:	8a 81       	ldd	r24, Y+2	; 0x02
     32a:	88 2f       	mov	r24, r24
     32c:	90 e0       	ldi	r25, 0x00	; 0
     32e:	81 30       	cpi	r24, 0x01	; 1
     330:	91 05       	cpc	r25, r1
     332:	09 f4       	brne	.+2      	; 0x336 <bat_move+0x1c>
     334:	73 c0       	rjmp	.+230    	; 0x41c <__LOCK_REGION_LENGTH__+0x1c>
     336:	02 97       	sbiw	r24, 0x02	; 2
     338:	09 f0       	breq	.+2      	; 0x33c <bat_move+0x22>
		bats[player]->pixels[1] -=14;
		bats[player]->pixels[2] -=14;}
		break;
	}

}
     33a:	e3 c0       	rjmp	.+454    	; 0x502 <__LOCK_REGION_LENGTH__+0x102>
{
	
	switch(direction)
	{ //interrupt messing the exec time. no mutex
		case D_UP:
		if( (player==PL_ONE&& bats[player]->pixels[0]<127 )|| (player==PL_TWO && bats[player]->pixels[0]<138)){
     33c:	89 81       	ldd	r24, Y+1	; 0x01
     33e:	88 23       	and	r24, r24
     340:	71 f4       	brne	.+28     	; 0x35e <bat_move+0x44>
     342:	89 81       	ldd	r24, Y+1	; 0x01
     344:	88 2f       	mov	r24, r24
     346:	90 e0       	ldi	r25, 0x00	; 0
     348:	88 0f       	add	r24, r24
     34a:	99 1f       	adc	r25, r25
     34c:	8a 58       	subi	r24, 0x8A	; 138
     34e:	9e 4f       	sbci	r25, 0xFE	; 254
     350:	fc 01       	movw	r30, r24
     352:	80 81       	ld	r24, Z
     354:	91 81       	ldd	r25, Z+1	; 0x01
     356:	fc 01       	movw	r30, r24
     358:	81 81       	ldd	r24, Z+1	; 0x01
     35a:	8f 37       	cpi	r24, 0x7F	; 127
     35c:	98 f0       	brcs	.+38     	; 0x384 <bat_move+0x6a>
     35e:	89 81       	ldd	r24, Y+1	; 0x01
     360:	81 30       	cpi	r24, 0x01	; 1
     362:	09 f0       	breq	.+2      	; 0x366 <bat_move+0x4c>
     364:	cb c0       	rjmp	.+406    	; 0x4fc <__LOCK_REGION_LENGTH__+0xfc>
     366:	89 81       	ldd	r24, Y+1	; 0x01
     368:	88 2f       	mov	r24, r24
     36a:	90 e0       	ldi	r25, 0x00	; 0
     36c:	88 0f       	add	r24, r24
     36e:	99 1f       	adc	r25, r25
     370:	8a 58       	subi	r24, 0x8A	; 138
     372:	9e 4f       	sbci	r25, 0xFE	; 254
     374:	fc 01       	movw	r30, r24
     376:	80 81       	ld	r24, Z
     378:	91 81       	ldd	r25, Z+1	; 0x01
     37a:	fc 01       	movw	r30, r24
     37c:	81 81       	ldd	r24, Z+1	; 0x01
     37e:	8a 38       	cpi	r24, 0x8A	; 138
     380:	08 f0       	brcs	.+2      	; 0x384 <bat_move+0x6a>
     382:	bc c0       	rjmp	.+376    	; 0x4fc <__LOCK_REGION_LENGTH__+0xfc>
		bats[player]->pixels[0] += 14;
     384:	89 81       	ldd	r24, Y+1	; 0x01
     386:	88 2f       	mov	r24, r24
     388:	90 e0       	ldi	r25, 0x00	; 0
     38a:	88 0f       	add	r24, r24
     38c:	99 1f       	adc	r25, r25
     38e:	8a 58       	subi	r24, 0x8A	; 138
     390:	9e 4f       	sbci	r25, 0xFE	; 254
     392:	fc 01       	movw	r30, r24
     394:	80 81       	ld	r24, Z
     396:	91 81       	ldd	r25, Z+1	; 0x01
     398:	29 81       	ldd	r18, Y+1	; 0x01
     39a:	22 2f       	mov	r18, r18
     39c:	30 e0       	ldi	r19, 0x00	; 0
     39e:	22 0f       	add	r18, r18
     3a0:	33 1f       	adc	r19, r19
     3a2:	2a 58       	subi	r18, 0x8A	; 138
     3a4:	3e 4f       	sbci	r19, 0xFE	; 254
     3a6:	f9 01       	movw	r30, r18
     3a8:	20 81       	ld	r18, Z
     3aa:	31 81       	ldd	r19, Z+1	; 0x01
     3ac:	f9 01       	movw	r30, r18
     3ae:	21 81       	ldd	r18, Z+1	; 0x01
     3b0:	22 5f       	subi	r18, 0xF2	; 242
     3b2:	fc 01       	movw	r30, r24
     3b4:	21 83       	std	Z+1, r18	; 0x01
		bats[player]->pixels[1] +=14;
     3b6:	89 81       	ldd	r24, Y+1	; 0x01
     3b8:	88 2f       	mov	r24, r24
     3ba:	90 e0       	ldi	r25, 0x00	; 0
     3bc:	88 0f       	add	r24, r24
     3be:	99 1f       	adc	r25, r25
     3c0:	8a 58       	subi	r24, 0x8A	; 138
     3c2:	9e 4f       	sbci	r25, 0xFE	; 254
     3c4:	fc 01       	movw	r30, r24
     3c6:	80 81       	ld	r24, Z
     3c8:	91 81       	ldd	r25, Z+1	; 0x01
     3ca:	29 81       	ldd	r18, Y+1	; 0x01
     3cc:	22 2f       	mov	r18, r18
     3ce:	30 e0       	ldi	r19, 0x00	; 0
     3d0:	22 0f       	add	r18, r18
     3d2:	33 1f       	adc	r19, r19
     3d4:	2a 58       	subi	r18, 0x8A	; 138
     3d6:	3e 4f       	sbci	r19, 0xFE	; 254
     3d8:	f9 01       	movw	r30, r18
     3da:	20 81       	ld	r18, Z
     3dc:	31 81       	ldd	r19, Z+1	; 0x01
     3de:	f9 01       	movw	r30, r18
     3e0:	22 81       	ldd	r18, Z+2	; 0x02
     3e2:	22 5f       	subi	r18, 0xF2	; 242
     3e4:	fc 01       	movw	r30, r24
     3e6:	22 83       	std	Z+2, r18	; 0x02
		bats[player]->pixels[2] +=14;
     3e8:	89 81       	ldd	r24, Y+1	; 0x01
     3ea:	88 2f       	mov	r24, r24
     3ec:	90 e0       	ldi	r25, 0x00	; 0
     3ee:	88 0f       	add	r24, r24
     3f0:	99 1f       	adc	r25, r25
     3f2:	8a 58       	subi	r24, 0x8A	; 138
     3f4:	9e 4f       	sbci	r25, 0xFE	; 254
     3f6:	fc 01       	movw	r30, r24
     3f8:	80 81       	ld	r24, Z
     3fa:	91 81       	ldd	r25, Z+1	; 0x01
     3fc:	29 81       	ldd	r18, Y+1	; 0x01
     3fe:	22 2f       	mov	r18, r18
     400:	30 e0       	ldi	r19, 0x00	; 0
     402:	22 0f       	add	r18, r18
     404:	33 1f       	adc	r19, r19
     406:	2a 58       	subi	r18, 0x8A	; 138
     408:	3e 4f       	sbci	r19, 0xFE	; 254
     40a:	f9 01       	movw	r30, r18
     40c:	20 81       	ld	r18, Z
     40e:	31 81       	ldd	r19, Z+1	; 0x01
     410:	f9 01       	movw	r30, r18
     412:	23 81       	ldd	r18, Z+3	; 0x03
     414:	22 5f       	subi	r18, 0xF2	; 242
     416:	fc 01       	movw	r30, r24
     418:	23 83       	std	Z+3, r18	; 0x03
		}
		
		break;
     41a:	70 c0       	rjmp	.+224    	; 0x4fc <__LOCK_REGION_LENGTH__+0xfc>
		case D_DOWN:
		if((player==PL_ONE&& bats[player]->pixels[2]>1)||(player==PL_TWO&& bats[player]->pixels[2]>12)){
     41c:	89 81       	ldd	r24, Y+1	; 0x01
     41e:	88 23       	and	r24, r24
     420:	71 f4       	brne	.+28     	; 0x43e <__LOCK_REGION_LENGTH__+0x3e>
     422:	89 81       	ldd	r24, Y+1	; 0x01
     424:	88 2f       	mov	r24, r24
     426:	90 e0       	ldi	r25, 0x00	; 0
     428:	88 0f       	add	r24, r24
     42a:	99 1f       	adc	r25, r25
     42c:	8a 58       	subi	r24, 0x8A	; 138
     42e:	9e 4f       	sbci	r25, 0xFE	; 254
     430:	fc 01       	movw	r30, r24
     432:	80 81       	ld	r24, Z
     434:	91 81       	ldd	r25, Z+1	; 0x01
     436:	fc 01       	movw	r30, r24
     438:	83 81       	ldd	r24, Z+3	; 0x03
     43a:	82 30       	cpi	r24, 0x02	; 2
     43c:	98 f4       	brcc	.+38     	; 0x464 <__LOCK_REGION_LENGTH__+0x64>
     43e:	89 81       	ldd	r24, Y+1	; 0x01
     440:	81 30       	cpi	r24, 0x01	; 1
     442:	09 f0       	breq	.+2      	; 0x446 <__LOCK_REGION_LENGTH__+0x46>
     444:	5d c0       	rjmp	.+186    	; 0x500 <__LOCK_REGION_LENGTH__+0x100>
     446:	89 81       	ldd	r24, Y+1	; 0x01
     448:	88 2f       	mov	r24, r24
     44a:	90 e0       	ldi	r25, 0x00	; 0
     44c:	88 0f       	add	r24, r24
     44e:	99 1f       	adc	r25, r25
     450:	8a 58       	subi	r24, 0x8A	; 138
     452:	9e 4f       	sbci	r25, 0xFE	; 254
     454:	fc 01       	movw	r30, r24
     456:	80 81       	ld	r24, Z
     458:	91 81       	ldd	r25, Z+1	; 0x01
     45a:	fc 01       	movw	r30, r24
     45c:	83 81       	ldd	r24, Z+3	; 0x03
     45e:	8d 30       	cpi	r24, 0x0D	; 13
     460:	08 f4       	brcc	.+2      	; 0x464 <__LOCK_REGION_LENGTH__+0x64>
     462:	4e c0       	rjmp	.+156    	; 0x500 <__LOCK_REGION_LENGTH__+0x100>
		bats[player]->pixels[0] -= 14;
     464:	89 81       	ldd	r24, Y+1	; 0x01
     466:	88 2f       	mov	r24, r24
     468:	90 e0       	ldi	r25, 0x00	; 0
     46a:	88 0f       	add	r24, r24
     46c:	99 1f       	adc	r25, r25
     46e:	8a 58       	subi	r24, 0x8A	; 138
     470:	9e 4f       	sbci	r25, 0xFE	; 254
     472:	fc 01       	movw	r30, r24
     474:	80 81       	ld	r24, Z
     476:	91 81       	ldd	r25, Z+1	; 0x01
     478:	29 81       	ldd	r18, Y+1	; 0x01
     47a:	22 2f       	mov	r18, r18
     47c:	30 e0       	ldi	r19, 0x00	; 0
     47e:	22 0f       	add	r18, r18
     480:	33 1f       	adc	r19, r19
     482:	2a 58       	subi	r18, 0x8A	; 138
     484:	3e 4f       	sbci	r19, 0xFE	; 254
     486:	f9 01       	movw	r30, r18
     488:	20 81       	ld	r18, Z
     48a:	31 81       	ldd	r19, Z+1	; 0x01
     48c:	f9 01       	movw	r30, r18
     48e:	21 81       	ldd	r18, Z+1	; 0x01
     490:	2e 50       	subi	r18, 0x0E	; 14
     492:	fc 01       	movw	r30, r24
     494:	21 83       	std	Z+1, r18	; 0x01
		bats[player]->pixels[1] -=14;
     496:	89 81       	ldd	r24, Y+1	; 0x01
     498:	88 2f       	mov	r24, r24
     49a:	90 e0       	ldi	r25, 0x00	; 0
     49c:	88 0f       	add	r24, r24
     49e:	99 1f       	adc	r25, r25
     4a0:	8a 58       	subi	r24, 0x8A	; 138
     4a2:	9e 4f       	sbci	r25, 0xFE	; 254
     4a4:	fc 01       	movw	r30, r24
     4a6:	80 81       	ld	r24, Z
     4a8:	91 81       	ldd	r25, Z+1	; 0x01
     4aa:	29 81       	ldd	r18, Y+1	; 0x01
     4ac:	22 2f       	mov	r18, r18
     4ae:	30 e0       	ldi	r19, 0x00	; 0
     4b0:	22 0f       	add	r18, r18
     4b2:	33 1f       	adc	r19, r19
     4b4:	2a 58       	subi	r18, 0x8A	; 138
     4b6:	3e 4f       	sbci	r19, 0xFE	; 254
     4b8:	f9 01       	movw	r30, r18
     4ba:	20 81       	ld	r18, Z
     4bc:	31 81       	ldd	r19, Z+1	; 0x01
     4be:	f9 01       	movw	r30, r18
     4c0:	22 81       	ldd	r18, Z+2	; 0x02
     4c2:	2e 50       	subi	r18, 0x0E	; 14
     4c4:	fc 01       	movw	r30, r24
     4c6:	22 83       	std	Z+2, r18	; 0x02
		bats[player]->pixels[2] -=14;}
     4c8:	89 81       	ldd	r24, Y+1	; 0x01
     4ca:	88 2f       	mov	r24, r24
     4cc:	90 e0       	ldi	r25, 0x00	; 0
     4ce:	88 0f       	add	r24, r24
     4d0:	99 1f       	adc	r25, r25
     4d2:	8a 58       	subi	r24, 0x8A	; 138
     4d4:	9e 4f       	sbci	r25, 0xFE	; 254
     4d6:	fc 01       	movw	r30, r24
     4d8:	80 81       	ld	r24, Z
     4da:	91 81       	ldd	r25, Z+1	; 0x01
     4dc:	29 81       	ldd	r18, Y+1	; 0x01
     4de:	22 2f       	mov	r18, r18
     4e0:	30 e0       	ldi	r19, 0x00	; 0
     4e2:	22 0f       	add	r18, r18
     4e4:	33 1f       	adc	r19, r19
     4e6:	2a 58       	subi	r18, 0x8A	; 138
     4e8:	3e 4f       	sbci	r19, 0xFE	; 254
     4ea:	f9 01       	movw	r30, r18
     4ec:	20 81       	ld	r18, Z
     4ee:	31 81       	ldd	r19, Z+1	; 0x01
     4f0:	f9 01       	movw	r30, r18
     4f2:	23 81       	ldd	r18, Z+3	; 0x03
     4f4:	2e 50       	subi	r18, 0x0E	; 14
     4f6:	fc 01       	movw	r30, r24
     4f8:	23 83       	std	Z+3, r18	; 0x03
		break;
     4fa:	02 c0       	rjmp	.+4      	; 0x500 <__LOCK_REGION_LENGTH__+0x100>
		bats[player]->pixels[0] += 14;
		bats[player]->pixels[1] +=14;
		bats[player]->pixels[2] +=14;
		}
		
		break;
     4fc:	00 00       	nop
     4fe:	01 c0       	rjmp	.+2      	; 0x502 <__LOCK_REGION_LENGTH__+0x102>
		case D_DOWN:
		if((player==PL_ONE&& bats[player]->pixels[2]>1)||(player==PL_TWO&& bats[player]->pixels[2]>12)){
		bats[player]->pixels[0] -= 14;
		bats[player]->pixels[1] -=14;
		bats[player]->pixels[2] -=14;}
		break;
     500:	00 00       	nop
	}

}
     502:	00 00       	nop
     504:	0f 90       	pop	r0
     506:	0f 90       	pop	r0
     508:	df 91       	pop	r29
     50a:	cf 91       	pop	r28
     50c:	08 95       	ret

0000050e <restart_game>:

void restart_game()
{
     50e:	cf 93       	push	r28
     510:	df 93       	push	r29
     512:	cd b7       	in	r28, 0x3d	; 61
     514:	de b7       	in	r29, 0x3e	; 62
	if(!run_game)
     516:	90 91 7a 01 	lds	r25, 0x017A	; 0x80017a <run_game>
     51a:	81 e0       	ldi	r24, 0x01	; 1
     51c:	89 27       	eor	r24, r25
     51e:	88 23       	and	r24, r24
     520:	a9 f0       	breq	.+42     	; 0x54c <restart_game+0x3e>
	{	score=false;
     522:	10 92 85 01 	sts	0x0185, r1	; 0x800185 <score>
		scoreone = 0;
     526:	10 92 7c 01 	sts	0x017C, r1	; 0x80017c <scoreone+0x1>
     52a:	10 92 7b 01 	sts	0x017B, r1	; 0x80017b <scoreone>
		scoretwo=0;
     52e:	10 92 7e 01 	sts	0x017E, r1	; 0x80017e <scoretwo+0x1>
     532:	10 92 7d 01 	sts	0x017D, r1	; 0x80017d <scoretwo>
		run_game = true;
     536:	81 e0       	ldi	r24, 0x01	; 1
     538:	80 93 7a 01 	sts	0x017A, r24	; 0x80017a <run_game>
		com_send_string("Game is restarted!");
     53c:	86 e2       	ldi	r24, 0x26	; 38
     53e:	91 e0       	ldi	r25, 0x01	; 1
     540:	0e 94 c9 02 	call	0x592	; 0x592 <com_send_string>
		init_game(bats);
     544:	86 e7       	ldi	r24, 0x76	; 118
     546:	91 e0       	ldi	r25, 0x01	; 1
     548:	0e 94 a7 05 	call	0xb4e	; 0xb4e <init_game>
	    
	}
}
     54c:	00 00       	nop
     54e:	df 91       	pop	r29
     550:	cf 91       	pop	r28
     552:	08 95       	ret

00000554 <end_game>:
void end_game()
{
     554:	cf 93       	push	r28
     556:	df 93       	push	r29
     558:	cd b7       	in	r28, 0x3d	; 61
     55a:	de b7       	in	r29, 0x3e	; 62
	run_game = false;
     55c:	10 92 7a 01 	sts	0x017A, r1	; 0x80017a <run_game>
}
     560:	00 00       	nop
     562:	df 91       	pop	r29
     564:	cf 91       	pop	r28
     566:	08 95       	ret

00000568 <xy_to_pixel_id>:

uint8_t xy_to_pixel_id(uint8_t x, uint8_t y)
{
     568:	cf 93       	push	r28
     56a:	df 93       	push	r29
     56c:	00 d0       	rcall	.+0      	; 0x56e <xy_to_pixel_id+0x6>
     56e:	cd b7       	in	r28, 0x3d	; 61
     570:	de b7       	in	r29, 0x3e	; 62
     572:	89 83       	std	Y+1, r24	; 0x01
     574:	6a 83       	std	Y+2, r22	; 0x02
	return x + y * SCREEN_DIMENSION_X;
     576:	8a 81       	ldd	r24, Y+2	; 0x02
     578:	88 0f       	add	r24, r24
     57a:	98 2f       	mov	r25, r24
     57c:	99 0f       	add	r25, r25
     57e:	99 0f       	add	r25, r25
     580:	99 0f       	add	r25, r25
     582:	98 1b       	sub	r25, r24
     584:	89 81       	ldd	r24, Y+1	; 0x01
     586:	89 0f       	add	r24, r25
}
     588:	0f 90       	pop	r0
     58a:	0f 90       	pop	r0
     58c:	df 91       	pop	r29
     58e:	cf 91       	pop	r28
     590:	08 95       	ret

00000592 <com_send_string>:

void com_send_string(char *str)
{
     592:	cf 93       	push	r28
     594:	df 93       	push	r29
     596:	00 d0       	rcall	.+0      	; 0x598 <com_send_string+0x6>
     598:	cd b7       	in	r28, 0x3d	; 61
     59a:	de b7       	in	r29, 0x3e	; 62
     59c:	9a 83       	std	Y+2, r25	; 0x02
     59e:	89 83       	std	Y+1, r24	; 0x01
	send_bytes(str, strlen(str)+1);
     5a0:	89 81       	ldd	r24, Y+1	; 0x01
     5a2:	9a 81       	ldd	r25, Y+2	; 0x02
     5a4:	0e 94 d2 27 	call	0x4fa4	; 0x4fa4 <strlen>
     5a8:	21 e0       	ldi	r18, 0x01	; 1
     5aa:	28 0f       	add	r18, r24
     5ac:	89 81       	ldd	r24, Y+1	; 0x01
     5ae:	9a 81       	ldd	r25, Y+2	; 0x02
     5b0:	62 2f       	mov	r22, r18
     5b2:	0e 94 3d 0e 	call	0x1c7a	; 0x1c7a <send_bytes>
}
     5b6:	00 00       	nop
     5b8:	0f 90       	pop	r0
     5ba:	0f 90       	pop	r0
     5bc:	df 91       	pop	r29
     5be:	cf 91       	pop	r28
     5c0:	08 95       	ret

000005c2 <game_renderer_task>:


void game_renderer_task(void *pvParameters)
{
     5c2:	0f 93       	push	r16
     5c4:	1f 93       	push	r17
     5c6:	cf 93       	push	r28
     5c8:	df 93       	push	r29
     5ca:	cd b7       	in	r28, 0x3d	; 61
     5cc:	de b7       	in	r29, 0x3e	; 62
     5ce:	2a 97       	sbiw	r28, 0x0a	; 10
     5d0:	0f b6       	in	r0, 0x3f	; 63
     5d2:	f8 94       	cli
     5d4:	de bf       	out	0x3e, r29	; 62
     5d6:	0f be       	out	0x3f, r0	; 63
     5d8:	cd bf       	out	0x3d, r28	; 61
     5da:	9a 87       	std	Y+10, r25	; 0x0a
     5dc:	89 87       	std	Y+9, r24	; 0x09
	#if (configUSE_APPLICATION_TASK_TAG == 1)
	// Set task no to be used for tracing with R2R-Network
	//vTaskSetApplicationTaskTag( NULL, ( void * ) 3 );
	#endif

	uint16_t* frame_buf = pvParameters;
     5de:	89 85       	ldd	r24, Y+9	; 0x09
     5e0:	9a 85       	ldd	r25, Y+10	; 0x0a
     5e2:	9d 83       	std	Y+5, r25	; 0x05
     5e4:	8c 83       	std	Y+4, r24	; 0x04

	for(uint8_t i = 0; i < 2; i++)
     5e6:	19 82       	std	Y+1, r1	; 0x01
     5e8:	11 c0       	rjmp	.+34     	; 0x60c <game_renderer_task+0x4a>
	{
		bats[i] = bat_new_instance();
     5ea:	89 81       	ldd	r24, Y+1	; 0x01
     5ec:	08 2f       	mov	r16, r24
     5ee:	10 e0       	ldi	r17, 0x00	; 0
     5f0:	0e 94 8a 05 	call	0xb14	; 0xb14 <bat_new_instance>
     5f4:	9c 01       	movw	r18, r24
     5f6:	c8 01       	movw	r24, r16
     5f8:	88 0f       	add	r24, r24
     5fa:	99 1f       	adc	r25, r25
     5fc:	8a 58       	subi	r24, 0x8A	; 138
     5fe:	9e 4f       	sbci	r25, 0xFE	; 254
     600:	fc 01       	movw	r30, r24
     602:	31 83       	std	Z+1, r19	; 0x01
     604:	20 83       	st	Z, r18
	//vTaskSetApplicationTaskTag( NULL, ( void * ) 3 );
	#endif

	uint16_t* frame_buf = pvParameters;

	for(uint8_t i = 0; i < 2; i++)
     606:	89 81       	ldd	r24, Y+1	; 0x01
     608:	8f 5f       	subi	r24, 0xFF	; 255
     60a:	89 83       	std	Y+1, r24	; 0x01
     60c:	89 81       	ldd	r24, Y+1	; 0x01
     60e:	82 30       	cpi	r24, 0x02	; 2
     610:	60 f3       	brcs	.-40     	; 0x5ea <game_renderer_task+0x28>
	{
		bats[i] = bat_new_instance();
	}

	TickType_t game_renderer_task_lastwake = xTaskGetTickCount();
     612:	0e 94 e3 21 	call	0x43c6	; 0x43c6 <xTaskGetTickCount>
     616:	98 87       	std	Y+8, r25	; 0x08
     618:	8f 83       	std	Y+7, r24	; 0x07
	

	clear_screen(frame_buf);			//clearing from the screen from bootup display.
     61a:	8c 81       	ldd	r24, Y+4	; 0x04
     61c:	9d 81       	ldd	r25, Y+5	; 0x05
     61e:	0e 94 0e 06 	call	0xc1c	; 0xc1c <clear_screen>
	init_game(bats);
     622:	86 e7       	ldi	r24, 0x76	; 118
     624:	91 e0       	ldi	r25, 0x01	; 1
     626:	0e 94 a7 05 	call	0xb4e	; 0xb4e <init_game>
	
	draw_game(frame_buf, bats, ball_location);
     62a:	20 91 00 01 	lds	r18, 0x0100	; 0x800100 <__data_start>
     62e:	8c 81       	ldd	r24, Y+4	; 0x04
     630:	9d 81       	ldd	r25, Y+5	; 0x05
     632:	42 2f       	mov	r20, r18
     634:	66 e7       	ldi	r22, 0x76	; 118
     636:	71 e0       	ldi	r23, 0x01	; 1
     638:	0e 94 63 06 	call	0xcc6	; 0xcc6 <draw_game>
	
	while(1)
	{
		UBaseType_t stackUsage = uxTaskGetStackHighWaterMark(NULL);
     63c:	80 e0       	ldi	r24, 0x00	; 0
     63e:	90 e0       	ldi	r25, 0x00	; 0
     640:	0e 94 6b 25 	call	0x4ad6	; 0x4ad6 <uxTaskGetStackHighWaterMark>
     644:	8e 83       	std	Y+6, r24	; 0x06
		//Set task period
		vTaskDelayUntil(&game_renderer_task_lastwake, GAME_RENDERER_TASK_PERIOD);
     646:	ce 01       	movw	r24, r28
     648:	07 96       	adiw	r24, 0x07	; 7
     64a:	69 e1       	ldi	r22, 0x19	; 25
     64c:	70 e0       	ldi	r23, 0x00	; 0
     64e:	0e 94 6d 20 	call	0x40da	; 0x40da <vTaskDelayUntil>
		//Action5
		
		if(score==true){timer++;}
     652:	80 91 85 01 	lds	r24, 0x0185	; 0x800185 <score>
     656:	88 23       	and	r24, r24
     658:	49 f0       	breq	.+18     	; 0x66c <game_renderer_task+0xaa>
     65a:	80 91 83 01 	lds	r24, 0x0183	; 0x800183 <timer>
     65e:	90 91 84 01 	lds	r25, 0x0184	; 0x800184 <timer+0x1>
     662:	01 96       	adiw	r24, 0x01	; 1
     664:	90 93 84 01 	sts	0x0184, r25	; 0x800184 <timer+0x1>
     668:	80 93 83 01 	sts	0x0183, r24	; 0x800183 <timer>
		if(timer%123==0&&run_game==false&&score==true){run_game=true; score=false;}
     66c:	80 91 83 01 	lds	r24, 0x0183	; 0x800183 <timer>
     670:	90 91 84 01 	lds	r25, 0x0184	; 0x800184 <timer+0x1>
     674:	2b e7       	ldi	r18, 0x7B	; 123
     676:	30 e0       	ldi	r19, 0x00	; 0
     678:	b9 01       	movw	r22, r18
     67a:	0e 94 78 27 	call	0x4ef0	; 0x4ef0 <__divmodhi4>
     67e:	89 2b       	or	r24, r25
     680:	79 f4       	brne	.+30     	; 0x6a0 <game_renderer_task+0xde>
     682:	90 91 7a 01 	lds	r25, 0x017A	; 0x80017a <run_game>
     686:	81 e0       	ldi	r24, 0x01	; 1
     688:	89 27       	eor	r24, r25
     68a:	88 23       	and	r24, r24
     68c:	49 f0       	breq	.+18     	; 0x6a0 <game_renderer_task+0xde>
     68e:	80 91 85 01 	lds	r24, 0x0185	; 0x800185 <score>
     692:	88 23       	and	r24, r24
     694:	29 f0       	breq	.+10     	; 0x6a0 <game_renderer_task+0xde>
     696:	81 e0       	ldi	r24, 0x01	; 1
     698:	80 93 7a 01 	sts	0x017A, r24	; 0x80017a <run_game>
     69c:	10 92 85 01 	sts	0x0185, r1	; 0x800185 <score>
		if(timer==356){timer=0;}
     6a0:	80 91 83 01 	lds	r24, 0x0183	; 0x800183 <timer>
     6a4:	90 91 84 01 	lds	r25, 0x0184	; 0x800184 <timer+0x1>
     6a8:	84 36       	cpi	r24, 0x64	; 100
     6aa:	91 40       	sbci	r25, 0x01	; 1
     6ac:	21 f4       	brne	.+8      	; 0x6b6 <game_renderer_task+0xf4>
     6ae:	10 92 84 01 	sts	0x0184, r1	; 0x800184 <timer+0x1>
     6b2:	10 92 83 01 	sts	0x0183, r1	; 0x800183 <timer>
			
		if(run_game)
     6b6:	80 91 7a 01 	lds	r24, 0x017A	; 0x80017a <run_game>
     6ba:	88 23       	and	r24, r24
     6bc:	09 f4       	brne	.+2      	; 0x6c0 <game_renderer_task+0xfe>
     6be:	be cf       	rjmp	.-132    	; 0x63c <game_renderer_task+0x7a>
		{
			clear_screen(frame_buf);
     6c0:	8c 81       	ldd	r24, Y+4	; 0x04
     6c2:	9d 81       	ldd	r25, Y+5	; 0x05
     6c4:	0e 94 0e 06 	call	0xc1c	; 0xc1c <clear_screen>
			//remove this for
			for(int i = 0; i < 2; i++)
     6c8:	1b 82       	std	Y+3, r1	; 0x03
     6ca:	1a 82       	std	Y+2, r1	; 0x02
     6cc:	9c c1       	rjmp	.+824    	; 0xa06 <__stack+0x107>
			{
				
			if(ball_location%13==ball_location/13-1)			//first player scores 
     6ce:	90 91 00 01 	lds	r25, 0x0100	; 0x800100 <__data_start>
     6d2:	8f e4       	ldi	r24, 0x4F	; 79
     6d4:	98 9f       	mul	r25, r24
     6d6:	81 2d       	mov	r24, r1
     6d8:	11 24       	eor	r1, r1
     6da:	86 95       	lsr	r24
     6dc:	86 95       	lsr	r24
     6de:	2d e0       	ldi	r18, 0x0D	; 13
     6e0:	82 9f       	mul	r24, r18
     6e2:	80 2d       	mov	r24, r0
     6e4:	11 24       	eor	r1, r1
     6e6:	29 2f       	mov	r18, r25
     6e8:	28 1b       	sub	r18, r24
     6ea:	82 2f       	mov	r24, r18
     6ec:	28 2f       	mov	r18, r24
     6ee:	30 e0       	ldi	r19, 0x00	; 0
     6f0:	90 91 00 01 	lds	r25, 0x0100	; 0x800100 <__data_start>
     6f4:	8f e4       	ldi	r24, 0x4F	; 79
     6f6:	98 9f       	mul	r25, r24
     6f8:	81 2d       	mov	r24, r1
     6fa:	11 24       	eor	r1, r1
     6fc:	86 95       	lsr	r24
     6fe:	86 95       	lsr	r24
     700:	88 2f       	mov	r24, r24
     702:	90 e0       	ldi	r25, 0x00	; 0
     704:	01 97       	sbiw	r24, 0x01	; 1
     706:	28 17       	cp	r18, r24
     708:	39 07       	cpc	r19, r25
     70a:	29 f5       	brne	.+74     	; 0x756 <game_renderer_task+0x194>
			{
				scoreone++;
     70c:	80 91 7b 01 	lds	r24, 0x017B	; 0x80017b <scoreone>
     710:	90 91 7c 01 	lds	r25, 0x017C	; 0x80017c <scoreone+0x1>
     714:	01 96       	adiw	r24, 0x01	; 1
     716:	90 93 7c 01 	sts	0x017C, r25	; 0x80017c <scoreone+0x1>
     71a:	80 93 7b 01 	sts	0x017B, r24	; 0x80017b <scoreone>
				ball_location=21;
     71e:	85 e1       	ldi	r24, 0x15	; 21
     720:	80 93 00 01 	sts	0x0100, r24	; 0x800100 <__data_start>
				dir=2;
     724:	82 e0       	ldi	r24, 0x02	; 2
     726:	90 e0       	ldi	r25, 0x00	; 0
     728:	90 93 02 01 	sts	0x0102, r25	; 0x800102 <dir+0x1>
     72c:	80 93 01 01 	sts	0x0101, r24	; 0x800101 <dir>
				//hide_game(frame_buf, bats);
				draw_scores(frame_buf, scoreone, scoretwo);
     730:	40 91 7d 01 	lds	r20, 0x017D	; 0x80017d <scoretwo>
     734:	50 91 7e 01 	lds	r21, 0x017E	; 0x80017e <scoretwo+0x1>
     738:	20 91 7b 01 	lds	r18, 0x017B	; 0x80017b <scoreone>
     73c:	30 91 7c 01 	lds	r19, 0x017C	; 0x80017c <scoreone+0x1>
     740:	8c 81       	ldd	r24, Y+4	; 0x04
     742:	9d 81       	ldd	r25, Y+5	; 0x05
     744:	b9 01       	movw	r22, r18
     746:	0e 94 22 07 	call	0xe44	; 0xe44 <draw_scores>
				run_game=false;
     74a:	10 92 7a 01 	sts	0x017A, r1	; 0x80017a <run_game>
				score=true;
     74e:	81 e0       	ldi	r24, 0x01	; 1
     750:	80 93 85 01 	sts	0x0185, r24	; 0x800185 <score>
     754:	66 c0       	rjmp	.+204    	; 0x822 <game_renderer_task+0x260>
				
					} //score
				
				else if
				((ball_location-12)%14==0 && ball_location==bats[PL_TWO]->pixels[0]	)
     756:	80 91 00 01 	lds	r24, 0x0100	; 0x800100 <__data_start>
     75a:	88 2f       	mov	r24, r24
     75c:	90 e0       	ldi	r25, 0x00	; 0
     75e:	0c 97       	sbiw	r24, 0x0c	; 12
     760:	2e e0       	ldi	r18, 0x0E	; 14
     762:	30 e0       	ldi	r19, 0x00	; 0
     764:	b9 01       	movw	r22, r18
     766:	0e 94 78 27 	call	0x4ef0	; 0x4ef0 <__divmodhi4>
     76a:	89 2b       	or	r24, r25
     76c:	b9 f4       	brne	.+46     	; 0x79c <game_renderer_task+0x1da>
     76e:	80 91 78 01 	lds	r24, 0x0178	; 0x800178 <__data_end+0x2>
     772:	90 91 79 01 	lds	r25, 0x0179	; 0x800179 <__data_end+0x3>
     776:	fc 01       	movw	r30, r24
     778:	91 81       	ldd	r25, Z+1	; 0x01
     77a:	80 91 00 01 	lds	r24, 0x0100	; 0x800100 <__data_start>
     77e:	98 17       	cp	r25, r24
     780:	69 f4       	brne	.+26     	; 0x79c <game_renderer_task+0x1da>
				{
					dir=2;
     782:	82 e0       	ldi	r24, 0x02	; 2
     784:	90 e0       	ldi	r25, 0x00	; 0
     786:	90 93 02 01 	sts	0x0102, r25	; 0x800102 <dir+0x1>
     78a:	80 93 01 01 	sts	0x0101, r24	; 0x800101 <dir>
					up=1;
     78e:	81 e0       	ldi	r24, 0x01	; 1
     790:	90 e0       	ldi	r25, 0x00	; 0
     792:	90 93 82 01 	sts	0x0182, r25	; 0x800182 <up+0x1>
     796:	80 93 81 01 	sts	0x0181, r24	; 0x800181 <up>
     79a:	43 c0       	rjmp	.+134    	; 0x822 <game_renderer_task+0x260>
				}
					else if
					((ball_location-12)%14==0 && ball_location==bats[PL_TWO]->pixels[1]	)
     79c:	80 91 00 01 	lds	r24, 0x0100	; 0x800100 <__data_start>
     7a0:	88 2f       	mov	r24, r24
     7a2:	90 e0       	ldi	r25, 0x00	; 0
     7a4:	0c 97       	sbiw	r24, 0x0c	; 12
     7a6:	2e e0       	ldi	r18, 0x0E	; 14
     7a8:	30 e0       	ldi	r19, 0x00	; 0
     7aa:	b9 01       	movw	r22, r18
     7ac:	0e 94 78 27 	call	0x4ef0	; 0x4ef0 <__divmodhi4>
     7b0:	89 2b       	or	r24, r25
     7b2:	b9 f4       	brne	.+46     	; 0x7e2 <game_renderer_task+0x220>
     7b4:	80 91 78 01 	lds	r24, 0x0178	; 0x800178 <__data_end+0x2>
     7b8:	90 91 79 01 	lds	r25, 0x0179	; 0x800179 <__data_end+0x3>
     7bc:	fc 01       	movw	r30, r24
     7be:	92 81       	ldd	r25, Z+2	; 0x02
     7c0:	80 91 00 01 	lds	r24, 0x0100	; 0x800100 <__data_start>
     7c4:	98 17       	cp	r25, r24
     7c6:	69 f4       	brne	.+26     	; 0x7e2 <game_renderer_task+0x220>
					{
						dir=2;
     7c8:	82 e0       	ldi	r24, 0x02	; 2
     7ca:	90 e0       	ldi	r25, 0x00	; 0
     7cc:	90 93 02 01 	sts	0x0102, r25	; 0x800102 <dir+0x1>
     7d0:	80 93 01 01 	sts	0x0101, r24	; 0x800101 <dir>
						up=2;
     7d4:	82 e0       	ldi	r24, 0x02	; 2
     7d6:	90 e0       	ldi	r25, 0x00	; 0
     7d8:	90 93 82 01 	sts	0x0182, r25	; 0x800182 <up+0x1>
     7dc:	80 93 81 01 	sts	0x0181, r24	; 0x800181 <up>
     7e0:	20 c0       	rjmp	.+64     	; 0x822 <game_renderer_task+0x260>
					}
					//
					else if
					((ball_location-12)%14==0 && ball_location==bats[PL_TWO]->pixels[2]	)
     7e2:	80 91 00 01 	lds	r24, 0x0100	; 0x800100 <__data_start>
     7e6:	88 2f       	mov	r24, r24
     7e8:	90 e0       	ldi	r25, 0x00	; 0
     7ea:	0c 97       	sbiw	r24, 0x0c	; 12
     7ec:	2e e0       	ldi	r18, 0x0E	; 14
     7ee:	30 e0       	ldi	r19, 0x00	; 0
     7f0:	b9 01       	movw	r22, r18
     7f2:	0e 94 78 27 	call	0x4ef0	; 0x4ef0 <__divmodhi4>
     7f6:	89 2b       	or	r24, r25
     7f8:	a1 f4       	brne	.+40     	; 0x822 <game_renderer_task+0x260>
     7fa:	80 91 78 01 	lds	r24, 0x0178	; 0x800178 <__data_end+0x2>
     7fe:	90 91 79 01 	lds	r25, 0x0179	; 0x800179 <__data_end+0x3>
     802:	fc 01       	movw	r30, r24
     804:	93 81       	ldd	r25, Z+3	; 0x03
     806:	80 91 00 01 	lds	r24, 0x0100	; 0x800100 <__data_start>
     80a:	98 17       	cp	r25, r24
     80c:	51 f4       	brne	.+20     	; 0x822 <game_renderer_task+0x260>
					{
						dir=2;
     80e:	82 e0       	ldi	r24, 0x02	; 2
     810:	90 e0       	ldi	r25, 0x00	; 0
     812:	90 93 02 01 	sts	0x0102, r25	; 0x800102 <dir+0x1>
     816:	80 93 01 01 	sts	0x0101, r24	; 0x800101 <dir>
						up=0;
     81a:	10 92 82 01 	sts	0x0182, r1	; 0x800182 <up+0x1>
     81e:	10 92 81 01 	sts	0x0181, r1	; 0x800181 <up>
					}
					
				if(ball_location%14==0)							//second player scores.
     822:	20 91 00 01 	lds	r18, 0x0100	; 0x800100 <__data_start>
     826:	92 2f       	mov	r25, r18
     828:	96 95       	lsr	r25
     82a:	83 e9       	ldi	r24, 0x93	; 147
     82c:	98 9f       	mul	r25, r24
     82e:	81 2d       	mov	r24, r1
     830:	11 24       	eor	r1, r1
     832:	86 95       	lsr	r24
     834:	86 95       	lsr	r24
     836:	98 2f       	mov	r25, r24
     838:	89 2f       	mov	r24, r25
     83a:	88 0f       	add	r24, r24
     83c:	98 2f       	mov	r25, r24
     83e:	89 2f       	mov	r24, r25
     840:	88 0f       	add	r24, r24
     842:	88 0f       	add	r24, r24
     844:	88 0f       	add	r24, r24
     846:	89 1b       	sub	r24, r25
     848:	f2 2f       	mov	r31, r18
     84a:	f8 1b       	sub	r31, r24
     84c:	8f 2f       	mov	r24, r31
     84e:	88 23       	and	r24, r24
     850:	29 f5       	brne	.+74     	; 0x89c <game_renderer_task+0x2da>
					{
				scoretwo++;
     852:	80 91 7d 01 	lds	r24, 0x017D	; 0x80017d <scoretwo>
     856:	90 91 7e 01 	lds	r25, 0x017E	; 0x80017e <scoretwo+0x1>
     85a:	01 96       	adiw	r24, 0x01	; 1
     85c:	90 93 7e 01 	sts	0x017E, r25	; 0x80017e <scoretwo+0x1>
     860:	80 93 7d 01 	sts	0x017D, r24	; 0x80017d <scoretwo>
				dir=1;	
     864:	81 e0       	ldi	r24, 0x01	; 1
     866:	90 e0       	ldi	r25, 0x00	; 0
     868:	90 93 02 01 	sts	0x0102, r25	; 0x800102 <dir+0x1>
     86c:	80 93 01 01 	sts	0x0101, r24	; 0x800101 <dir>
				ball_location = 21;
     870:	85 e1       	ldi	r24, 0x15	; 21
     872:	80 93 00 01 	sts	0x0100, r24	; 0x800100 <__data_start>
				//hide_game(frame_buf, bats);
				draw_scores(frame_buf, scoreone, scoretwo);
     876:	40 91 7d 01 	lds	r20, 0x017D	; 0x80017d <scoretwo>
     87a:	50 91 7e 01 	lds	r21, 0x017E	; 0x80017e <scoretwo+0x1>
     87e:	20 91 7b 01 	lds	r18, 0x017B	; 0x80017b <scoreone>
     882:	30 91 7c 01 	lds	r19, 0x017C	; 0x80017c <scoreone+0x1>
     886:	8c 81       	ldd	r24, Y+4	; 0x04
     888:	9d 81       	ldd	r25, Y+5	; 0x05
     88a:	b9 01       	movw	r22, r18
     88c:	0e 94 22 07 	call	0xe44	; 0xe44 <draw_scores>
				run_game=false;
     890:	10 92 7a 01 	sts	0x017A, r1	; 0x80017a <run_game>
				score=true;
     894:	81 e0       	ldi	r24, 0x01	; 1
     896:	80 93 85 01 	sts	0x0185, r24	; 0x800185 <score>
     89a:	66 c0       	rjmp	.+204    	; 0x968 <__stack+0x69>
				
					} //SCORE
				else if((ball_location-1)%14==0 && ball_location==bats[PL_ONE]->pixels[0])
     89c:	80 91 00 01 	lds	r24, 0x0100	; 0x800100 <__data_start>
     8a0:	88 2f       	mov	r24, r24
     8a2:	90 e0       	ldi	r25, 0x00	; 0
     8a4:	01 97       	sbiw	r24, 0x01	; 1
     8a6:	2e e0       	ldi	r18, 0x0E	; 14
     8a8:	30 e0       	ldi	r19, 0x00	; 0
     8aa:	b9 01       	movw	r22, r18
     8ac:	0e 94 78 27 	call	0x4ef0	; 0x4ef0 <__divmodhi4>
     8b0:	89 2b       	or	r24, r25
     8b2:	b9 f4       	brne	.+46     	; 0x8e2 <game_renderer_task+0x320>
     8b4:	80 91 76 01 	lds	r24, 0x0176	; 0x800176 <__data_end>
     8b8:	90 91 77 01 	lds	r25, 0x0177	; 0x800177 <__data_end+0x1>
     8bc:	fc 01       	movw	r30, r24
     8be:	91 81       	ldd	r25, Z+1	; 0x01
     8c0:	80 91 00 01 	lds	r24, 0x0100	; 0x800100 <__data_start>
     8c4:	98 17       	cp	r25, r24
     8c6:	69 f4       	brne	.+26     	; 0x8e2 <game_renderer_task+0x320>
				{
				
					dir=1;
     8c8:	81 e0       	ldi	r24, 0x01	; 1
     8ca:	90 e0       	ldi	r25, 0x00	; 0
     8cc:	90 93 02 01 	sts	0x0102, r25	; 0x800102 <dir+0x1>
     8d0:	80 93 01 01 	sts	0x0101, r24	; 0x800101 <dir>
					up=1;
     8d4:	81 e0       	ldi	r24, 0x01	; 1
     8d6:	90 e0       	ldi	r25, 0x00	; 0
     8d8:	90 93 82 01 	sts	0x0182, r25	; 0x800182 <up+0x1>
     8dc:	80 93 81 01 	sts	0x0181, r24	; 0x800181 <up>
     8e0:	43 c0       	rjmp	.+134    	; 0x968 <__stack+0x69>
				}
			
				//
				else if((ball_location-1)%14==0 && ball_location==bats[PL_ONE]->pixels[1])
     8e2:	80 91 00 01 	lds	r24, 0x0100	; 0x800100 <__data_start>
     8e6:	88 2f       	mov	r24, r24
     8e8:	90 e0       	ldi	r25, 0x00	; 0
     8ea:	01 97       	sbiw	r24, 0x01	; 1
     8ec:	2e e0       	ldi	r18, 0x0E	; 14
     8ee:	30 e0       	ldi	r19, 0x00	; 0
     8f0:	b9 01       	movw	r22, r18
     8f2:	0e 94 78 27 	call	0x4ef0	; 0x4ef0 <__divmodhi4>
     8f6:	89 2b       	or	r24, r25
     8f8:	b9 f4       	brne	.+46     	; 0x928 <__stack+0x29>
     8fa:	80 91 76 01 	lds	r24, 0x0176	; 0x800176 <__data_end>
     8fe:	90 91 77 01 	lds	r25, 0x0177	; 0x800177 <__data_end+0x1>
     902:	fc 01       	movw	r30, r24
     904:	92 81       	ldd	r25, Z+2	; 0x02
     906:	80 91 00 01 	lds	r24, 0x0100	; 0x800100 <__data_start>
     90a:	98 17       	cp	r25, r24
     90c:	69 f4       	brne	.+26     	; 0x928 <__stack+0x29>
						{	
							dir=1;
     90e:	81 e0       	ldi	r24, 0x01	; 1
     910:	90 e0       	ldi	r25, 0x00	; 0
     912:	90 93 02 01 	sts	0x0102, r25	; 0x800102 <dir+0x1>
     916:	80 93 01 01 	sts	0x0101, r24	; 0x800101 <dir>
							up=2;	
     91a:	82 e0       	ldi	r24, 0x02	; 2
     91c:	90 e0       	ldi	r25, 0x00	; 0
     91e:	90 93 82 01 	sts	0x0182, r25	; 0x800182 <up+0x1>
     922:	80 93 81 01 	sts	0x0181, r24	; 0x800181 <up>
     926:	20 c0       	rjmp	.+64     	; 0x968 <__stack+0x69>
						}
			
				//
					else if((ball_location-1)%14==0 && ball_location==bats[PL_ONE]->pixels[2])
     928:	80 91 00 01 	lds	r24, 0x0100	; 0x800100 <__data_start>
     92c:	88 2f       	mov	r24, r24
     92e:	90 e0       	ldi	r25, 0x00	; 0
     930:	01 97       	sbiw	r24, 0x01	; 1
     932:	2e e0       	ldi	r18, 0x0E	; 14
     934:	30 e0       	ldi	r19, 0x00	; 0
     936:	b9 01       	movw	r22, r18
     938:	0e 94 78 27 	call	0x4ef0	; 0x4ef0 <__divmodhi4>
     93c:	89 2b       	or	r24, r25
     93e:	a1 f4       	brne	.+40     	; 0x968 <__stack+0x69>
     940:	80 91 76 01 	lds	r24, 0x0176	; 0x800176 <__data_end>
     944:	90 91 77 01 	lds	r25, 0x0177	; 0x800177 <__data_end+0x1>
     948:	fc 01       	movw	r30, r24
     94a:	93 81       	ldd	r25, Z+3	; 0x03
     94c:	80 91 00 01 	lds	r24, 0x0100	; 0x800100 <__data_start>
     950:	98 17       	cp	r25, r24
     952:	51 f4       	brne	.+20     	; 0x968 <__stack+0x69>
					{
						dir=1;
     954:	81 e0       	ldi	r24, 0x01	; 1
     956:	90 e0       	ldi	r25, 0x00	; 0
     958:	90 93 02 01 	sts	0x0102, r25	; 0x800102 <dir+0x1>
     95c:	80 93 01 01 	sts	0x0101, r24	; 0x800101 <dir>
						up=0;
     960:	10 92 82 01 	sts	0x0182, r1	; 0x800182 <up+0x1>
     964:	10 92 81 01 	sts	0x0181, r1	; 0x800181 <up>
					}
				
				if(z%27==0)				//z is the ball period.
     968:	80 91 7f 01 	lds	r24, 0x017F	; 0x80017f <z>
     96c:	90 91 80 01 	lds	r25, 0x0180	; 0x800180 <z+0x1>
     970:	2b e1       	ldi	r18, 0x1B	; 27
     972:	30 e0       	ldi	r19, 0x00	; 0
     974:	b9 01       	movw	r22, r18
     976:	0e 94 78 27 	call	0x4ef0	; 0x4ef0 <__divmodhi4>
     97a:	89 2b       	or	r24, r25
     97c:	49 f4       	brne	.+18     	; 0x990 <__stack+0x91>
					{
					move_ball(&ball_location,dir);
     97e:	80 91 01 01 	lds	r24, 0x0101	; 0x800101 <dir>
     982:	90 91 02 01 	lds	r25, 0x0102	; 0x800102 <dir+0x1>
     986:	bc 01       	movw	r22, r24
     988:	80 e0       	ldi	r24, 0x00	; 0
     98a:	91 e0       	ldi	r25, 0x01	; 1
     98c:	0e 94 12 05 	call	0xa24	; 0xa24 <move_ball>
					}
				z++;
     990:	80 91 7f 01 	lds	r24, 0x017F	; 0x80017f <z>
     994:	90 91 80 01 	lds	r25, 0x0180	; 0x800180 <z+0x1>
     998:	01 96       	adiw	r24, 0x01	; 1
     99a:	90 93 80 01 	sts	0x0180, r25	; 0x800180 <z+0x1>
     99e:	80 93 7f 01 	sts	0x017F, r24	; 0x80017f <z>
				if(z==270)
     9a2:	80 91 7f 01 	lds	r24, 0x017F	; 0x80017f <z>
     9a6:	90 91 80 01 	lds	r25, 0x0180	; 0x800180 <z+0x1>
     9aa:	8e 30       	cpi	r24, 0x0E	; 14
     9ac:	91 40       	sbci	r25, 0x01	; 1
     9ae:	21 f4       	brne	.+8      	; 0x9b8 <__stack+0xb9>
				z=0;
     9b0:	10 92 80 01 	sts	0x0180, r1	; 0x800180 <z+0x1>
     9b4:	10 92 7f 01 	sts	0x017F, r1	; 0x80017f <z>
				
				if(scoreone>=2||scoretwo>=2)
     9b8:	80 91 7b 01 	lds	r24, 0x017B	; 0x80017b <scoreone>
     9bc:	90 91 7c 01 	lds	r25, 0x017C	; 0x80017c <scoreone+0x1>
     9c0:	02 97       	sbiw	r24, 0x02	; 2
     9c2:	30 f4       	brcc	.+12     	; 0x9d0 <__stack+0xd1>
     9c4:	80 91 7d 01 	lds	r24, 0x017D	; 0x80017d <scoretwo>
     9c8:	90 91 7e 01 	lds	r25, 0x017E	; 0x80017e <scoretwo+0x1>
     9cc:	02 97       	sbiw	r24, 0x02	; 2
     9ce:	b0 f0       	brcs	.+44     	; 0x9fc <__stack+0xfd>
					{
						if(scoreone>=2)
     9d0:	80 91 7b 01 	lds	r24, 0x017B	; 0x80017b <scoreone>
     9d4:	90 91 7c 01 	lds	r25, 0x017C	; 0x80017c <scoreone+0x1>
     9d8:	02 97       	sbiw	r24, 0x02	; 2
     9da:	20 f0       	brcs	.+8      	; 0x9e4 <__stack+0xe5>
						com_send_string("player 1 won");
     9dc:	89 e3       	ldi	r24, 0x39	; 57
     9de:	91 e0       	ldi	r25, 0x01	; 1
     9e0:	0e 94 c9 02 	call	0x592	; 0x592 <com_send_string>
						if(scoretwo>=2)
     9e4:	80 91 7d 01 	lds	r24, 0x017D	; 0x80017d <scoretwo>
     9e8:	90 91 7e 01 	lds	r25, 0x017E	; 0x80017e <scoretwo+0x1>
     9ec:	02 97       	sbiw	r24, 0x02	; 2
     9ee:	20 f0       	brcs	.+8      	; 0x9f8 <__stack+0xf9>
						com_send_string("player 2 won");
     9f0:	86 e4       	ldi	r24, 0x46	; 70
     9f2:	91 e0       	ldi	r25, 0x01	; 1
     9f4:	0e 94 c9 02 	call	0x592	; 0x592 <com_send_string>
						 end_game();
     9f8:	0e 94 aa 02 	call	0x554	; 0x554 <end_game>
			
		if(run_game)
		{
			clear_screen(frame_buf);
			//remove this for
			for(int i = 0; i < 2; i++)
     9fc:	8a 81       	ldd	r24, Y+2	; 0x02
     9fe:	9b 81       	ldd	r25, Y+3	; 0x03
     a00:	01 96       	adiw	r24, 0x01	; 1
     a02:	9b 83       	std	Y+3, r25	; 0x03
     a04:	8a 83       	std	Y+2, r24	; 0x02
     a06:	8a 81       	ldd	r24, Y+2	; 0x02
     a08:	9b 81       	ldd	r25, Y+3	; 0x03
     a0a:	02 97       	sbiw	r24, 0x02	; 2
     a0c:	0c f4       	brge	.+2      	; 0xa10 <__stack+0x111>
     a0e:	5f ce       	rjmp	.-834    	; 0x6ce <game_renderer_task+0x10c>
						 end_game();
					}
				
			}
			
			draw_game(frame_buf, bats, ball_location);
     a10:	20 91 00 01 	lds	r18, 0x0100	; 0x800100 <__data_start>
     a14:	8c 81       	ldd	r24, Y+4	; 0x04
     a16:	9d 81       	ldd	r25, Y+5	; 0x05
     a18:	42 2f       	mov	r20, r18
     a1a:	66 e7       	ldi	r22, 0x76	; 118
     a1c:	71 e0       	ldi	r23, 0x01	; 1
     a1e:	0e 94 63 06 	call	0xcc6	; 0xcc6 <draw_game>
		}
	}
     a22:	0c ce       	rjmp	.-1000   	; 0x63c <game_renderer_task+0x7a>

00000a24 <move_ball>:
}

void move_ball(uint8_t *location, uint8_t* dir)
{
     a24:	cf 93       	push	r28
     a26:	df 93       	push	r29
     a28:	00 d0       	rcall	.+0      	; 0xa2a <move_ball+0x6>
     a2a:	00 d0       	rcall	.+0      	; 0xa2c <move_ball+0x8>
     a2c:	1f 92       	push	r1
     a2e:	cd b7       	in	r28, 0x3d	; 61
     a30:	de b7       	in	r29, 0x3e	; 62
     a32:	9b 83       	std	Y+3, r25	; 0x03
     a34:	8a 83       	std	Y+2, r24	; 0x02
     a36:	7d 83       	std	Y+5, r23	; 0x05
     a38:	6c 83       	std	Y+4, r22	; 0x04
	uint8_t x = *location;
     a3a:	8a 81       	ldd	r24, Y+2	; 0x02
     a3c:	9b 81       	ldd	r25, Y+3	; 0x03
     a3e:	fc 01       	movw	r30, r24
     a40:	80 81       	ld	r24, Z
     a42:	89 83       	std	Y+1, r24	; 0x01
	
	//boolean up 
	if(x>125) up = 0; //bouncing of the ball from the wall
     a44:	89 81       	ldd	r24, Y+1	; 0x01
     a46:	8e 37       	cpi	r24, 0x7E	; 126
     a48:	20 f0       	brcs	.+8      	; 0xa52 <move_ball+0x2e>
     a4a:	10 92 82 01 	sts	0x0182, r1	; 0x800182 <up+0x1>
     a4e:	10 92 81 01 	sts	0x0181, r1	; 0x800181 <up>
	if(x<13) up = 1;  //bouncing of the ball from the wall
     a52:	89 81       	ldd	r24, Y+1	; 0x01
     a54:	8d 30       	cpi	r24, 0x0D	; 13
     a56:	30 f4       	brcc	.+12     	; 0xa64 <move_ball+0x40>
     a58:	81 e0       	ldi	r24, 0x01	; 1
     a5a:	90 e0       	ldi	r25, 0x00	; 0
     a5c:	90 93 82 01 	sts	0x0182, r25	; 0x800182 <up+0x1>
     a60:	80 93 81 01 	sts	0x0181, r24	; 0x800181 <up>
	
	if(dir==1)
     a64:	8c 81       	ldd	r24, Y+4	; 0x04
     a66:	9d 81       	ldd	r25, Y+5	; 0x05
     a68:	01 97       	sbiw	r24, 0x01	; 1
     a6a:	f1 f4       	brne	.+60     	; 0xaa8 <move_ball+0x84>
	{
		if(up==1) x=x+15;
     a6c:	80 91 81 01 	lds	r24, 0x0181	; 0x800181 <up>
     a70:	90 91 82 01 	lds	r25, 0x0182	; 0x800182 <up+0x1>
     a74:	01 97       	sbiw	r24, 0x01	; 1
     a76:	21 f4       	brne	.+8      	; 0xa80 <move_ball+0x5c>
     a78:	89 81       	ldd	r24, Y+1	; 0x01
     a7a:	81 5f       	subi	r24, 0xF1	; 241
     a7c:	89 83       	std	Y+1, r24	; 0x01
     a7e:	31 c0       	rjmp	.+98     	; 0xae2 <move_ball+0xbe>
		else if(up==0) x=x-13; //move down; keep the direction 
     a80:	80 91 81 01 	lds	r24, 0x0181	; 0x800181 <up>
     a84:	90 91 82 01 	lds	r25, 0x0182	; 0x800182 <up+0x1>
     a88:	89 2b       	or	r24, r25
     a8a:	21 f4       	brne	.+8      	; 0xa94 <move_ball+0x70>
     a8c:	89 81       	ldd	r24, Y+1	; 0x01
     a8e:	8d 50       	subi	r24, 0x0D	; 13
     a90:	89 83       	std	Y+1, r24	; 0x01
     a92:	27 c0       	rjmp	.+78     	; 0xae2 <move_ball+0xbe>
		else if(up==2) x=x+1;	//when up=2 move straight
     a94:	80 91 81 01 	lds	r24, 0x0181	; 0x800181 <up>
     a98:	90 91 82 01 	lds	r25, 0x0182	; 0x800182 <up+0x1>
     a9c:	02 97       	sbiw	r24, 0x02	; 2
     a9e:	09 f5       	brne	.+66     	; 0xae2 <move_ball+0xbe>
     aa0:	89 81       	ldd	r24, Y+1	; 0x01
     aa2:	8f 5f       	subi	r24, 0xFF	; 255
     aa4:	89 83       	std	Y+1, r24	; 0x01
     aa6:	1d c0       	rjmp	.+58     	; 0xae2 <move_ball+0xbe>
	}
	else  
	{
		if(up==1) x=x+13;
     aa8:	80 91 81 01 	lds	r24, 0x0181	; 0x800181 <up>
     aac:	90 91 82 01 	lds	r25, 0x0182	; 0x800182 <up+0x1>
     ab0:	01 97       	sbiw	r24, 0x01	; 1
     ab2:	21 f4       	brne	.+8      	; 0xabc <move_ball+0x98>
     ab4:	89 81       	ldd	r24, Y+1	; 0x01
     ab6:	83 5f       	subi	r24, 0xF3	; 243
     ab8:	89 83       	std	Y+1, r24	; 0x01
     aba:	13 c0       	rjmp	.+38     	; 0xae2 <move_ball+0xbe>
		else if(up==0) x=x-15; //do the maths ;
     abc:	80 91 81 01 	lds	r24, 0x0181	; 0x800181 <up>
     ac0:	90 91 82 01 	lds	r25, 0x0182	; 0x800182 <up+0x1>
     ac4:	89 2b       	or	r24, r25
     ac6:	21 f4       	brne	.+8      	; 0xad0 <move_ball+0xac>
     ac8:	89 81       	ldd	r24, Y+1	; 0x01
     aca:	8f 50       	subi	r24, 0x0F	; 15
     acc:	89 83       	std	Y+1, r24	; 0x01
     ace:	09 c0       	rjmp	.+18     	; 0xae2 <move_ball+0xbe>
		else if (up==2) x=x-1;
     ad0:	80 91 81 01 	lds	r24, 0x0181	; 0x800181 <up>
     ad4:	90 91 82 01 	lds	r25, 0x0182	; 0x800182 <up+0x1>
     ad8:	02 97       	sbiw	r24, 0x02	; 2
     ada:	19 f4       	brne	.+6      	; 0xae2 <move_ball+0xbe>
     adc:	89 81       	ldd	r24, Y+1	; 0x01
     ade:	81 50       	subi	r24, 0x01	; 1
     ae0:	89 83       	std	Y+1, r24	; 0x01
	}
	x %= SCREEN_DIMENSION_X * SCREEN_DIMENSION_Y;		//makes sure the ball doesn't go out of the screen.
     ae2:	89 81       	ldd	r24, Y+1	; 0x01
     ae4:	91 e0       	ldi	r25, 0x01	; 1
     ae6:	8c 38       	cpi	r24, 0x8C	; 140
     ae8:	08 f4       	brcc	.+2      	; 0xaec <move_ball+0xc8>
     aea:	90 e0       	ldi	r25, 0x00	; 0
     aec:	2c e8       	ldi	r18, 0x8C	; 140
     aee:	92 9f       	mul	r25, r18
     af0:	90 2d       	mov	r25, r0
     af2:	11 24       	eor	r1, r1
     af4:	89 1b       	sub	r24, r25
     af6:	89 83       	std	Y+1, r24	; 0x01
	*location = x;
     af8:	8a 81       	ldd	r24, Y+2	; 0x02
     afa:	9b 81       	ldd	r25, Y+3	; 0x03
     afc:	29 81       	ldd	r18, Y+1	; 0x01
     afe:	fc 01       	movw	r30, r24
     b00:	20 83       	st	Z, r18
}
     b02:	00 00       	nop
     b04:	0f 90       	pop	r0
     b06:	0f 90       	pop	r0
     b08:	0f 90       	pop	r0
     b0a:	0f 90       	pop	r0
     b0c:	0f 90       	pop	r0
     b0e:	df 91       	pop	r29
     b10:	cf 91       	pop	r28
     b12:	08 95       	ret

00000b14 <bat_new_instance>:

bat_t* bat_new_instance()
{//?
     b14:	cf 93       	push	r28
     b16:	df 93       	push	r29
     b18:	00 d0       	rcall	.+0      	; 0xb1a <bat_new_instance+0x6>
     b1a:	cd b7       	in	r28, 0x3d	; 61
     b1c:	de b7       	in	r29, 0x3e	; 62
	bat_t *ret = pvPortMalloc(sizeof *ret);
     b1e:	84 e0       	ldi	r24, 0x04	; 4
     b20:	90 e0       	ldi	r25, 0x00	; 0
     b22:	0e 94 e0 17 	call	0x2fc0	; 0x2fc0 <pvPortMalloc>
     b26:	9a 83       	std	Y+2, r25	; 0x02
     b28:	89 83       	std	Y+1, r24	; 0x01
	if(ret == NULL)
     b2a:	89 81       	ldd	r24, Y+1	; 0x01
     b2c:	9a 81       	ldd	r25, Y+2	; 0x02
     b2e:	89 2b       	or	r24, r25
     b30:	19 f4       	brne	.+6      	; 0xb38 <bat_new_instance+0x24>
		return ret;
     b32:	89 81       	ldd	r24, Y+1	; 0x01
     b34:	9a 81       	ldd	r25, Y+2	; 0x02
     b36:	06 c0       	rjmp	.+12     	; 0xb44 <bat_new_instance+0x30>

	ret->length = 0;
     b38:	89 81       	ldd	r24, Y+1	; 0x01
     b3a:	9a 81       	ldd	r25, Y+2	; 0x02
     b3c:	fc 01       	movw	r30, r24
     b3e:	10 82       	st	Z, r1

	return ret;
     b40:	89 81       	ldd	r24, Y+1	; 0x01
     b42:	9a 81       	ldd	r25, Y+2	; 0x02
}
     b44:	0f 90       	pop	r0
     b46:	0f 90       	pop	r0
     b48:	df 91       	pop	r29
     b4a:	cf 91       	pop	r28
     b4c:	08 95       	ret

00000b4e <init_game>:
void init_game(bat_t **bats)
{
     b4e:	0f 93       	push	r16
     b50:	1f 93       	push	r17
     b52:	cf 93       	push	r28
     b54:	df 93       	push	r29
     b56:	00 d0       	rcall	.+0      	; 0xb58 <init_game+0xa>
     b58:	cd b7       	in	r28, 0x3d	; 61
     b5a:	de b7       	in	r29, 0x3e	; 62
     b5c:	9a 83       	std	Y+2, r25	; 0x02
     b5e:	89 83       	std	Y+1, r24	; 0x01
	
	bats[PL_ONE]->length = 3;//
     b60:	89 81       	ldd	r24, Y+1	; 0x01
     b62:	9a 81       	ldd	r25, Y+2	; 0x02
     b64:	fc 01       	movw	r30, r24
     b66:	80 81       	ld	r24, Z
     b68:	91 81       	ldd	r25, Z+1	; 0x01
     b6a:	23 e0       	ldi	r18, 0x03	; 3
     b6c:	fc 01       	movw	r30, r24
     b6e:	20 83       	st	Z, r18
	bats[PL_ONE]->pixels[0] = xy_to_pixel_id(1,2);
     b70:	89 81       	ldd	r24, Y+1	; 0x01
     b72:	9a 81       	ldd	r25, Y+2	; 0x02
     b74:	fc 01       	movw	r30, r24
     b76:	00 81       	ld	r16, Z
     b78:	11 81       	ldd	r17, Z+1	; 0x01
     b7a:	62 e0       	ldi	r22, 0x02	; 2
     b7c:	81 e0       	ldi	r24, 0x01	; 1
     b7e:	0e 94 b4 02 	call	0x568	; 0x568 <xy_to_pixel_id>
     b82:	f8 01       	movw	r30, r16
     b84:	81 83       	std	Z+1, r24	; 0x01
	bats[PL_ONE]->pixels[1] = xy_to_pixel_id(1,1);
     b86:	89 81       	ldd	r24, Y+1	; 0x01
     b88:	9a 81       	ldd	r25, Y+2	; 0x02
     b8a:	fc 01       	movw	r30, r24
     b8c:	00 81       	ld	r16, Z
     b8e:	11 81       	ldd	r17, Z+1	; 0x01
     b90:	61 e0       	ldi	r22, 0x01	; 1
     b92:	81 e0       	ldi	r24, 0x01	; 1
     b94:	0e 94 b4 02 	call	0x568	; 0x568 <xy_to_pixel_id>
     b98:	f8 01       	movw	r30, r16
     b9a:	82 83       	std	Z+2, r24	; 0x02
	bats[PL_ONE]->pixels[2] = xy_to_pixel_id(1, 0);
     b9c:	89 81       	ldd	r24, Y+1	; 0x01
     b9e:	9a 81       	ldd	r25, Y+2	; 0x02
     ba0:	fc 01       	movw	r30, r24
     ba2:	00 81       	ld	r16, Z
     ba4:	11 81       	ldd	r17, Z+1	; 0x01
     ba6:	60 e0       	ldi	r22, 0x00	; 0
     ba8:	81 e0       	ldi	r24, 0x01	; 1
     baa:	0e 94 b4 02 	call	0x568	; 0x568 <xy_to_pixel_id>
     bae:	f8 01       	movw	r30, r16
     bb0:	83 83       	std	Z+3, r24	; 0x03


	bats[PL_TWO]->length = 3;//
     bb2:	89 81       	ldd	r24, Y+1	; 0x01
     bb4:	9a 81       	ldd	r25, Y+2	; 0x02
     bb6:	02 96       	adiw	r24, 0x02	; 2
     bb8:	fc 01       	movw	r30, r24
     bba:	80 81       	ld	r24, Z
     bbc:	91 81       	ldd	r25, Z+1	; 0x01
     bbe:	23 e0       	ldi	r18, 0x03	; 3
     bc0:	fc 01       	movw	r30, r24
     bc2:	20 83       	st	Z, r18
	bats[PL_TWO]->pixels[0] = xy_to_pixel_id(12, 9);
     bc4:	89 81       	ldd	r24, Y+1	; 0x01
     bc6:	9a 81       	ldd	r25, Y+2	; 0x02
     bc8:	02 96       	adiw	r24, 0x02	; 2
     bca:	fc 01       	movw	r30, r24
     bcc:	00 81       	ld	r16, Z
     bce:	11 81       	ldd	r17, Z+1	; 0x01
     bd0:	69 e0       	ldi	r22, 0x09	; 9
     bd2:	8c e0       	ldi	r24, 0x0C	; 12
     bd4:	0e 94 b4 02 	call	0x568	; 0x568 <xy_to_pixel_id>
     bd8:	f8 01       	movw	r30, r16
     bda:	81 83       	std	Z+1, r24	; 0x01
	bats[PL_TWO]->pixels[1] = xy_to_pixel_id(12, 8);
     bdc:	89 81       	ldd	r24, Y+1	; 0x01
     bde:	9a 81       	ldd	r25, Y+2	; 0x02
     be0:	02 96       	adiw	r24, 0x02	; 2
     be2:	fc 01       	movw	r30, r24
     be4:	00 81       	ld	r16, Z
     be6:	11 81       	ldd	r17, Z+1	; 0x01
     be8:	68 e0       	ldi	r22, 0x08	; 8
     bea:	8c e0       	ldi	r24, 0x0C	; 12
     bec:	0e 94 b4 02 	call	0x568	; 0x568 <xy_to_pixel_id>
     bf0:	f8 01       	movw	r30, r16
     bf2:	82 83       	std	Z+2, r24	; 0x02
	bats[PL_TWO]->pixels[2] = xy_to_pixel_id(12, 7);
     bf4:	89 81       	ldd	r24, Y+1	; 0x01
     bf6:	9a 81       	ldd	r25, Y+2	; 0x02
     bf8:	02 96       	adiw	r24, 0x02	; 2
     bfa:	fc 01       	movw	r30, r24
     bfc:	00 81       	ld	r16, Z
     bfe:	11 81       	ldd	r17, Z+1	; 0x01
     c00:	67 e0       	ldi	r22, 0x07	; 7
     c02:	8c e0       	ldi	r24, 0x0C	; 12
     c04:	0e 94 b4 02 	call	0x568	; 0x568 <xy_to_pixel_id>
     c08:	f8 01       	movw	r30, r16
     c0a:	83 83       	std	Z+3, r24	; 0x03
}
     c0c:	00 00       	nop
     c0e:	0f 90       	pop	r0
     c10:	0f 90       	pop	r0
     c12:	df 91       	pop	r29
     c14:	cf 91       	pop	r28
     c16:	1f 91       	pop	r17
     c18:	0f 91       	pop	r16
     c1a:	08 95       	ret

00000c1c <clear_screen>:

void clear_screen(uint16_t* framebuffer)
{
     c1c:	cf 93       	push	r28
     c1e:	df 93       	push	r29
     c20:	00 d0       	rcall	.+0      	; 0xc22 <clear_screen+0x6>
     c22:	1f 92       	push	r1
     c24:	cd b7       	in	r28, 0x3d	; 61
     c26:	de b7       	in	r29, 0x3e	; 62
     c28:	9b 83       	std	Y+3, r25	; 0x03
     c2a:	8a 83       	std	Y+2, r24	; 0x02
	for(uint8_t x = 0; x < SCREEN_DIMENSION_X; x++)
     c2c:	19 82       	std	Y+1, r1	; 0x01
     c2e:	0f c0       	rjmp	.+30     	; 0xc4e <clear_screen+0x32>
		framebuffer[x] = 0;
     c30:	89 81       	ldd	r24, Y+1	; 0x01
     c32:	88 2f       	mov	r24, r24
     c34:	90 e0       	ldi	r25, 0x00	; 0
     c36:	88 0f       	add	r24, r24
     c38:	99 1f       	adc	r25, r25
     c3a:	2a 81       	ldd	r18, Y+2	; 0x02
     c3c:	3b 81       	ldd	r19, Y+3	; 0x03
     c3e:	82 0f       	add	r24, r18
     c40:	93 1f       	adc	r25, r19
     c42:	fc 01       	movw	r30, r24
     c44:	11 82       	std	Z+1, r1	; 0x01
     c46:	10 82       	st	Z, r1
	bats[PL_TWO]->pixels[2] = xy_to_pixel_id(12, 7);
}

void clear_screen(uint16_t* framebuffer)
{
	for(uint8_t x = 0; x < SCREEN_DIMENSION_X; x++)
     c48:	89 81       	ldd	r24, Y+1	; 0x01
     c4a:	8f 5f       	subi	r24, 0xFF	; 255
     c4c:	89 83       	std	Y+1, r24	; 0x01
     c4e:	89 81       	ldd	r24, Y+1	; 0x01
     c50:	8e 30       	cpi	r24, 0x0E	; 14
     c52:	70 f3       	brcs	.-36     	; 0xc30 <clear_screen+0x14>
		framebuffer[x] = 0;
}
     c54:	00 00       	nop
     c56:	0f 90       	pop	r0
     c58:	0f 90       	pop	r0
     c5a:	0f 90       	pop	r0
     c5c:	df 91       	pop	r29
     c5e:	cf 91       	pop	r28
     c60:	08 95       	ret

00000c62 <y_offset>:

uint8_t y_offset(uint8_t pixel_id)
{
     c62:	cf 93       	push	r28
     c64:	df 93       	push	r29
     c66:	1f 92       	push	r1
     c68:	cd b7       	in	r28, 0x3d	; 61
     c6a:	de b7       	in	r29, 0x3e	; 62
     c6c:	89 83       	std	Y+1, r24	; 0x01
	return pixel_id / SCREEN_DIMENSION_X;
     c6e:	89 81       	ldd	r24, Y+1	; 0x01
     c70:	98 2f       	mov	r25, r24
     c72:	96 95       	lsr	r25
     c74:	83 e9       	ldi	r24, 0x93	; 147
     c76:	98 9f       	mul	r25, r24
     c78:	81 2d       	mov	r24, r1
     c7a:	11 24       	eor	r1, r1
     c7c:	86 95       	lsr	r24
     c7e:	86 95       	lsr	r24
}
     c80:	0f 90       	pop	r0
     c82:	df 91       	pop	r29
     c84:	cf 91       	pop	r28
     c86:	08 95       	ret

00000c88 <x_offset>:
uint8_t x_offset(uint8_t pixel_id)
{
     c88:	cf 93       	push	r28
     c8a:	df 93       	push	r29
     c8c:	1f 92       	push	r1
     c8e:	cd b7       	in	r28, 0x3d	; 61
     c90:	de b7       	in	r29, 0x3e	; 62
     c92:	89 83       	std	Y+1, r24	; 0x01
	return pixel_id % SCREEN_DIMENSION_X;
     c94:	29 81       	ldd	r18, Y+1	; 0x01
     c96:	92 2f       	mov	r25, r18
     c98:	96 95       	lsr	r25
     c9a:	83 e9       	ldi	r24, 0x93	; 147
     c9c:	98 9f       	mul	r25, r24
     c9e:	81 2d       	mov	r24, r1
     ca0:	11 24       	eor	r1, r1
     ca2:	86 95       	lsr	r24
     ca4:	86 95       	lsr	r24
     ca6:	98 2f       	mov	r25, r24
     ca8:	89 2f       	mov	r24, r25
     caa:	88 0f       	add	r24, r24
     cac:	98 2f       	mov	r25, r24
     cae:	89 2f       	mov	r24, r25
     cb0:	88 0f       	add	r24, r24
     cb2:	88 0f       	add	r24, r24
     cb4:	88 0f       	add	r24, r24
     cb6:	89 1b       	sub	r24, r25
     cb8:	92 2f       	mov	r25, r18
     cba:	98 1b       	sub	r25, r24
     cbc:	89 2f       	mov	r24, r25
}
     cbe:	0f 90       	pop	r0
     cc0:	df 91       	pop	r29
     cc2:	cf 91       	pop	r28
     cc4:	08 95       	ret

00000cc6 <draw_game>:

void draw_game(uint16_t* framebuffer, bat_t **bats, uint8_t ball_location)
{
     cc6:	0f 93       	push	r16
     cc8:	1f 93       	push	r17
     cca:	cf 93       	push	r28
     ccc:	df 93       	push	r29
     cce:	cd b7       	in	r28, 0x3d	; 61
     cd0:	de b7       	in	r29, 0x3e	; 62
     cd2:	27 97       	sbiw	r28, 0x07	; 7
     cd4:	0f b6       	in	r0, 0x3f	; 63
     cd6:	f8 94       	cli
     cd8:	de bf       	out	0x3e, r29	; 62
     cda:	0f be       	out	0x3f, r0	; 63
     cdc:	cd bf       	out	0x3d, r28	; 61
     cde:	9c 83       	std	Y+4, r25	; 0x04
     ce0:	8b 83       	std	Y+3, r24	; 0x03
     ce2:	7e 83       	std	Y+6, r23	; 0x06
     ce4:	6d 83       	std	Y+5, r22	; 0x05
     ce6:	4f 83       	std	Y+7, r20	; 0x07
	framebuffer[x_offset(ball_location)] |=  _BV((SCREEN_DIMENSION_Y - (y_offset(ball_location)+1)));
     ce8:	8f 81       	ldd	r24, Y+7	; 0x07
     cea:	0e 94 31 06 	call	0xc62	; 0xc62 <y_offset>
     cee:	88 2f       	mov	r24, r24
     cf0:	90 e0       	ldi	r25, 0x00	; 0
     cf2:	29 e0       	ldi	r18, 0x09	; 9
     cf4:	30 e0       	ldi	r19, 0x00	; 0
     cf6:	28 1b       	sub	r18, r24
     cf8:	39 0b       	sbc	r19, r25
     cfa:	81 e0       	ldi	r24, 0x01	; 1
     cfc:	90 e0       	ldi	r25, 0x00	; 0
     cfe:	8c 01       	movw	r16, r24
     d00:	02 c0       	rjmp	.+4      	; 0xd06 <draw_game+0x40>
     d02:	00 0f       	add	r16, r16
     d04:	11 1f       	adc	r17, r17
     d06:	2a 95       	dec	r18
     d08:	e2 f7       	brpl	.-8      	; 0xd02 <draw_game+0x3c>
     d0a:	8f 81       	ldd	r24, Y+7	; 0x07
     d0c:	0e 94 44 06 	call	0xc88	; 0xc88 <x_offset>
     d10:	48 2f       	mov	r20, r24
     d12:	84 2f       	mov	r24, r20
     d14:	90 e0       	ldi	r25, 0x00	; 0
     d16:	88 0f       	add	r24, r24
     d18:	99 1f       	adc	r25, r25
     d1a:	2b 81       	ldd	r18, Y+3	; 0x03
     d1c:	3c 81       	ldd	r19, Y+4	; 0x04
     d1e:	82 0f       	add	r24, r18
     d20:	93 1f       	adc	r25, r19
     d22:	24 2f       	mov	r18, r20
     d24:	30 e0       	ldi	r19, 0x00	; 0
     d26:	22 0f       	add	r18, r18
     d28:	33 1f       	adc	r19, r19
     d2a:	4b 81       	ldd	r20, Y+3	; 0x03
     d2c:	5c 81       	ldd	r21, Y+4	; 0x04
     d2e:	24 0f       	add	r18, r20
     d30:	35 1f       	adc	r19, r21
     d32:	f9 01       	movw	r30, r18
     d34:	20 81       	ld	r18, Z
     d36:	31 81       	ldd	r19, Z+1	; 0x01
     d38:	a8 01       	movw	r20, r16
     d3a:	24 2b       	or	r18, r20
     d3c:	35 2b       	or	r19, r21
     d3e:	fc 01       	movw	r30, r24
     d40:	31 83       	std	Z+1, r19	; 0x01
     d42:	20 83       	st	Z, r18
	for(Player_t player = 0; player < 2; player++)
     d44:	19 82       	std	Y+1, r1	; 0x01
     d46:	6e c0       	rjmp	.+220    	; 0xe24 <draw_game+0x15e>
	{
		for(uint8_t i = 0; i < bats[player]->length; i++)
     d48:	1a 82       	std	Y+2, r1	; 0x02
     d4a:	57 c0       	rjmp	.+174    	; 0xdfa <draw_game+0x134>
		{
			framebuffer[x_offset(bats[player]->pixels[i])] |= _BV((SCREEN_DIMENSION_Y - (y_offset(bats[player]->pixels[i])+1)));
     d4c:	89 81       	ldd	r24, Y+1	; 0x01
     d4e:	88 2f       	mov	r24, r24
     d50:	90 e0       	ldi	r25, 0x00	; 0
     d52:	88 0f       	add	r24, r24
     d54:	99 1f       	adc	r25, r25
     d56:	2d 81       	ldd	r18, Y+5	; 0x05
     d58:	3e 81       	ldd	r19, Y+6	; 0x06
     d5a:	82 0f       	add	r24, r18
     d5c:	93 1f       	adc	r25, r19
     d5e:	fc 01       	movw	r30, r24
     d60:	20 81       	ld	r18, Z
     d62:	31 81       	ldd	r19, Z+1	; 0x01
     d64:	8a 81       	ldd	r24, Y+2	; 0x02
     d66:	88 2f       	mov	r24, r24
     d68:	90 e0       	ldi	r25, 0x00	; 0
     d6a:	82 0f       	add	r24, r18
     d6c:	93 1f       	adc	r25, r19
     d6e:	01 96       	adiw	r24, 0x01	; 1
     d70:	fc 01       	movw	r30, r24
     d72:	80 81       	ld	r24, Z
     d74:	0e 94 31 06 	call	0xc62	; 0xc62 <y_offset>
     d78:	88 2f       	mov	r24, r24
     d7a:	90 e0       	ldi	r25, 0x00	; 0
     d7c:	29 e0       	ldi	r18, 0x09	; 9
     d7e:	30 e0       	ldi	r19, 0x00	; 0
     d80:	28 1b       	sub	r18, r24
     d82:	39 0b       	sbc	r19, r25
     d84:	81 e0       	ldi	r24, 0x01	; 1
     d86:	90 e0       	ldi	r25, 0x00	; 0
     d88:	8c 01       	movw	r16, r24
     d8a:	02 c0       	rjmp	.+4      	; 0xd90 <draw_game+0xca>
     d8c:	00 0f       	add	r16, r16
     d8e:	11 1f       	adc	r17, r17
     d90:	2a 95       	dec	r18
     d92:	e2 f7       	brpl	.-8      	; 0xd8c <draw_game+0xc6>
     d94:	89 81       	ldd	r24, Y+1	; 0x01
     d96:	88 2f       	mov	r24, r24
     d98:	90 e0       	ldi	r25, 0x00	; 0
     d9a:	88 0f       	add	r24, r24
     d9c:	99 1f       	adc	r25, r25
     d9e:	2d 81       	ldd	r18, Y+5	; 0x05
     da0:	3e 81       	ldd	r19, Y+6	; 0x06
     da2:	82 0f       	add	r24, r18
     da4:	93 1f       	adc	r25, r19
     da6:	fc 01       	movw	r30, r24
     da8:	20 81       	ld	r18, Z
     daa:	31 81       	ldd	r19, Z+1	; 0x01
     dac:	8a 81       	ldd	r24, Y+2	; 0x02
     dae:	88 2f       	mov	r24, r24
     db0:	90 e0       	ldi	r25, 0x00	; 0
     db2:	82 0f       	add	r24, r18
     db4:	93 1f       	adc	r25, r19
     db6:	01 96       	adiw	r24, 0x01	; 1
     db8:	fc 01       	movw	r30, r24
     dba:	80 81       	ld	r24, Z
     dbc:	0e 94 44 06 	call	0xc88	; 0xc88 <x_offset>
     dc0:	48 2f       	mov	r20, r24
     dc2:	84 2f       	mov	r24, r20
     dc4:	90 e0       	ldi	r25, 0x00	; 0
     dc6:	88 0f       	add	r24, r24
     dc8:	99 1f       	adc	r25, r25
     dca:	2b 81       	ldd	r18, Y+3	; 0x03
     dcc:	3c 81       	ldd	r19, Y+4	; 0x04
     dce:	82 0f       	add	r24, r18
     dd0:	93 1f       	adc	r25, r19
     dd2:	24 2f       	mov	r18, r20
     dd4:	30 e0       	ldi	r19, 0x00	; 0
     dd6:	22 0f       	add	r18, r18
     dd8:	33 1f       	adc	r19, r19
     dda:	4b 81       	ldd	r20, Y+3	; 0x03
     ddc:	5c 81       	ldd	r21, Y+4	; 0x04
     dde:	24 0f       	add	r18, r20
     de0:	35 1f       	adc	r19, r21
     de2:	f9 01       	movw	r30, r18
     de4:	20 81       	ld	r18, Z
     de6:	31 81       	ldd	r19, Z+1	; 0x01
     de8:	a8 01       	movw	r20, r16
     dea:	24 2b       	or	r18, r20
     dec:	35 2b       	or	r19, r21
     dee:	fc 01       	movw	r30, r24
     df0:	31 83       	std	Z+1, r19	; 0x01
     df2:	20 83       	st	Z, r18
void draw_game(uint16_t* framebuffer, bat_t **bats, uint8_t ball_location)
{
	framebuffer[x_offset(ball_location)] |=  _BV((SCREEN_DIMENSION_Y - (y_offset(ball_location)+1)));
	for(Player_t player = 0; player < 2; player++)
	{
		for(uint8_t i = 0; i < bats[player]->length; i++)
     df4:	8a 81       	ldd	r24, Y+2	; 0x02
     df6:	8f 5f       	subi	r24, 0xFF	; 255
     df8:	8a 83       	std	Y+2, r24	; 0x02
     dfa:	89 81       	ldd	r24, Y+1	; 0x01
     dfc:	88 2f       	mov	r24, r24
     dfe:	90 e0       	ldi	r25, 0x00	; 0
     e00:	88 0f       	add	r24, r24
     e02:	99 1f       	adc	r25, r25
     e04:	2d 81       	ldd	r18, Y+5	; 0x05
     e06:	3e 81       	ldd	r19, Y+6	; 0x06
     e08:	82 0f       	add	r24, r18
     e0a:	93 1f       	adc	r25, r19
     e0c:	fc 01       	movw	r30, r24
     e0e:	80 81       	ld	r24, Z
     e10:	91 81       	ldd	r25, Z+1	; 0x01
     e12:	fc 01       	movw	r30, r24
     e14:	90 81       	ld	r25, Z
     e16:	8a 81       	ldd	r24, Y+2	; 0x02
     e18:	89 17       	cp	r24, r25
     e1a:	08 f4       	brcc	.+2      	; 0xe1e <draw_game+0x158>
     e1c:	97 cf       	rjmp	.-210    	; 0xd4c <draw_game+0x86>
}

void draw_game(uint16_t* framebuffer, bat_t **bats, uint8_t ball_location)
{
	framebuffer[x_offset(ball_location)] |=  _BV((SCREEN_DIMENSION_Y - (y_offset(ball_location)+1)));
	for(Player_t player = 0; player < 2; player++)
     e1e:	89 81       	ldd	r24, Y+1	; 0x01
     e20:	8f 5f       	subi	r24, 0xFF	; 255
     e22:	89 83       	std	Y+1, r24	; 0x01
     e24:	89 81       	ldd	r24, Y+1	; 0x01
     e26:	82 30       	cpi	r24, 0x02	; 2
     e28:	08 f4       	brcc	.+2      	; 0xe2c <draw_game+0x166>
     e2a:	8e cf       	rjmp	.-228    	; 0xd48 <draw_game+0x82>
		for(uint8_t i = 0; i < bats[player]->length; i++)
		{
			framebuffer[x_offset(bats[player]->pixels[i])] |= _BV((SCREEN_DIMENSION_Y - (y_offset(bats[player]->pixels[i])+1)));
		}
	}
}
     e2c:	00 00       	nop
     e2e:	27 96       	adiw	r28, 0x07	; 7
     e30:	0f b6       	in	r0, 0x3f	; 63
     e32:	f8 94       	cli
     e34:	de bf       	out	0x3e, r29	; 62
     e36:	0f be       	out	0x3f, r0	; 63
     e38:	cd bf       	out	0x3d, r28	; 61
     e3a:	df 91       	pop	r29
     e3c:	cf 91       	pop	r28
     e3e:	1f 91       	pop	r17
     e40:	0f 91       	pop	r16
     e42:	08 95       	ret

00000e44 <draw_scores>:

void draw_scores(uint16_t* framebuffer, uint8_t score_right, uint8_t score_left)
{			
     e44:	0f 93       	push	r16
     e46:	1f 93       	push	r17
     e48:	cf 93       	push	r28
     e4a:	df 93       	push	r29
     e4c:	cd b7       	in	r28, 0x3d	; 61
     e4e:	de b7       	in	r29, 0x3e	; 62
     e50:	28 97       	sbiw	r28, 0x08	; 8
     e52:	0f b6       	in	r0, 0x3f	; 63
     e54:	f8 94       	cli
     e56:	de bf       	out	0x3e, r29	; 62
     e58:	0f be       	out	0x3f, r0	; 63
     e5a:	cd bf       	out	0x3d, r28	; 61
     e5c:	9e 83       	std	Y+6, r25	; 0x06
     e5e:	8d 83       	std	Y+5, r24	; 0x05
     e60:	6f 83       	std	Y+7, r22	; 0x07
     e62:	48 87       	std	Y+8, r20	; 0x08
	if(score_right==1)
     e64:	8f 81       	ldd	r24, Y+7	; 0x07
     e66:	81 30       	cpi	r24, 0x01	; 1
     e68:	09 f0       	breq	.+2      	; 0xe6c <draw_scores+0x28>
     e6a:	43 c0       	rjmp	.+134    	; 0xef2 <draw_scores+0xae>
	{
		for(uint8_t i = 31; i <=101; i++)
     e6c:	8f e1       	ldi	r24, 0x1F	; 31
     e6e:	89 83       	std	Y+1, r24	; 0x01
     e70:	3c c0       	rjmp	.+120    	; 0xeea <draw_scores+0xa6>
		{
			if((i-3)%14==0)
     e72:	89 81       	ldd	r24, Y+1	; 0x01
     e74:	88 2f       	mov	r24, r24
     e76:	90 e0       	ldi	r25, 0x00	; 0
     e78:	03 97       	sbiw	r24, 0x03	; 3
     e7a:	2e e0       	ldi	r18, 0x0E	; 14
     e7c:	30 e0       	ldi	r19, 0x00	; 0
     e7e:	b9 01       	movw	r22, r18
     e80:	0e 94 78 27 	call	0x4ef0	; 0x4ef0 <__divmodhi4>
     e84:	89 2b       	or	r24, r25
     e86:	71 f5       	brne	.+92     	; 0xee4 <draw_scores+0xa0>
			framebuffer[x_offset(i)] |= _BV((SCREEN_DIMENSION_Y - (y_offset(i)+1)));
     e88:	89 81       	ldd	r24, Y+1	; 0x01
     e8a:	0e 94 31 06 	call	0xc62	; 0xc62 <y_offset>
     e8e:	88 2f       	mov	r24, r24
     e90:	90 e0       	ldi	r25, 0x00	; 0
     e92:	29 e0       	ldi	r18, 0x09	; 9
     e94:	30 e0       	ldi	r19, 0x00	; 0
     e96:	28 1b       	sub	r18, r24
     e98:	39 0b       	sbc	r19, r25
     e9a:	81 e0       	ldi	r24, 0x01	; 1
     e9c:	90 e0       	ldi	r25, 0x00	; 0
     e9e:	8c 01       	movw	r16, r24
     ea0:	02 c0       	rjmp	.+4      	; 0xea6 <draw_scores+0x62>
     ea2:	00 0f       	add	r16, r16
     ea4:	11 1f       	adc	r17, r17
     ea6:	2a 95       	dec	r18
     ea8:	e2 f7       	brpl	.-8      	; 0xea2 <draw_scores+0x5e>
     eaa:	89 81       	ldd	r24, Y+1	; 0x01
     eac:	0e 94 44 06 	call	0xc88	; 0xc88 <x_offset>
     eb0:	48 2f       	mov	r20, r24
     eb2:	84 2f       	mov	r24, r20
     eb4:	90 e0       	ldi	r25, 0x00	; 0
     eb6:	88 0f       	add	r24, r24
     eb8:	99 1f       	adc	r25, r25
     eba:	2d 81       	ldd	r18, Y+5	; 0x05
     ebc:	3e 81       	ldd	r19, Y+6	; 0x06
     ebe:	82 0f       	add	r24, r18
     ec0:	93 1f       	adc	r25, r19
     ec2:	24 2f       	mov	r18, r20
     ec4:	30 e0       	ldi	r19, 0x00	; 0
     ec6:	22 0f       	add	r18, r18
     ec8:	33 1f       	adc	r19, r19
     eca:	4d 81       	ldd	r20, Y+5	; 0x05
     ecc:	5e 81       	ldd	r21, Y+6	; 0x06
     ece:	24 0f       	add	r18, r20
     ed0:	35 1f       	adc	r19, r21
     ed2:	f9 01       	movw	r30, r18
     ed4:	20 81       	ld	r18, Z
     ed6:	31 81       	ldd	r19, Z+1	; 0x01
     ed8:	a8 01       	movw	r20, r16
     eda:	24 2b       	or	r18, r20
     edc:	35 2b       	or	r19, r21
     ede:	fc 01       	movw	r30, r24
     ee0:	31 83       	std	Z+1, r19	; 0x01
     ee2:	20 83       	st	Z, r18

void draw_scores(uint16_t* framebuffer, uint8_t score_right, uint8_t score_left)
{			
	if(score_right==1)
	{
		for(uint8_t i = 31; i <=101; i++)
     ee4:	89 81       	ldd	r24, Y+1	; 0x01
     ee6:	8f 5f       	subi	r24, 0xFF	; 255
     ee8:	89 83       	std	Y+1, r24	; 0x01
     eea:	89 81       	ldd	r24, Y+1	; 0x01
     eec:	86 36       	cpi	r24, 0x66	; 102
     eee:	08 f2       	brcs	.-126    	; 0xe72 <draw_scores+0x2e>
     ef0:	80 c0       	rjmp	.+256    	; 0xff2 <draw_scores+0x1ae>
		{
			if((i-3)%14==0)
			framebuffer[x_offset(i)] |= _BV((SCREEN_DIMENSION_Y - (y_offset(i)+1)));
		}
	}
	else if(score_right==2)
     ef2:	8f 81       	ldd	r24, Y+7	; 0x07
     ef4:	82 30       	cpi	r24, 0x02	; 2
     ef6:	09 f0       	breq	.+2      	; 0xefa <draw_scores+0xb6>
     ef8:	7c c0       	rjmp	.+248    	; 0xff2 <draw_scores+0x1ae>
		{
			for(uint8_t i = 31; i <=103; i++)
     efa:	8f e1       	ldi	r24, 0x1F	; 31
     efc:	8a 83       	std	Y+2, r24	; 0x02
     efe:	75 c0       	rjmp	.+234    	; 0xfea <draw_scores+0x1a6>
			{
				if((i-3)%14==0)
     f00:	8a 81       	ldd	r24, Y+2	; 0x02
     f02:	88 2f       	mov	r24, r24
     f04:	90 e0       	ldi	r25, 0x00	; 0
     f06:	03 97       	sbiw	r24, 0x03	; 3
     f08:	2e e0       	ldi	r18, 0x0E	; 14
     f0a:	30 e0       	ldi	r19, 0x00	; 0
     f0c:	b9 01       	movw	r22, r18
     f0e:	0e 94 78 27 	call	0x4ef0	; 0x4ef0 <__divmodhi4>
     f12:	89 2b       	or	r24, r25
     f14:	71 f5       	brne	.+92     	; 0xf72 <draw_scores+0x12e>
				framebuffer[x_offset(i)] |= _BV((SCREEN_DIMENSION_Y - (y_offset(i)+1)));
     f16:	8a 81       	ldd	r24, Y+2	; 0x02
     f18:	0e 94 31 06 	call	0xc62	; 0xc62 <y_offset>
     f1c:	88 2f       	mov	r24, r24
     f1e:	90 e0       	ldi	r25, 0x00	; 0
     f20:	29 e0       	ldi	r18, 0x09	; 9
     f22:	30 e0       	ldi	r19, 0x00	; 0
     f24:	28 1b       	sub	r18, r24
     f26:	39 0b       	sbc	r19, r25
     f28:	81 e0       	ldi	r24, 0x01	; 1
     f2a:	90 e0       	ldi	r25, 0x00	; 0
     f2c:	8c 01       	movw	r16, r24
     f2e:	02 c0       	rjmp	.+4      	; 0xf34 <draw_scores+0xf0>
     f30:	00 0f       	add	r16, r16
     f32:	11 1f       	adc	r17, r17
     f34:	2a 95       	dec	r18
     f36:	e2 f7       	brpl	.-8      	; 0xf30 <draw_scores+0xec>
     f38:	8a 81       	ldd	r24, Y+2	; 0x02
     f3a:	0e 94 44 06 	call	0xc88	; 0xc88 <x_offset>
     f3e:	48 2f       	mov	r20, r24
     f40:	84 2f       	mov	r24, r20
     f42:	90 e0       	ldi	r25, 0x00	; 0
     f44:	88 0f       	add	r24, r24
     f46:	99 1f       	adc	r25, r25
     f48:	2d 81       	ldd	r18, Y+5	; 0x05
     f4a:	3e 81       	ldd	r19, Y+6	; 0x06
     f4c:	82 0f       	add	r24, r18
     f4e:	93 1f       	adc	r25, r19
     f50:	24 2f       	mov	r18, r20
     f52:	30 e0       	ldi	r19, 0x00	; 0
     f54:	22 0f       	add	r18, r18
     f56:	33 1f       	adc	r19, r19
     f58:	4d 81       	ldd	r20, Y+5	; 0x05
     f5a:	5e 81       	ldd	r21, Y+6	; 0x06
     f5c:	24 0f       	add	r18, r20
     f5e:	35 1f       	adc	r19, r21
     f60:	f9 01       	movw	r30, r18
     f62:	20 81       	ld	r18, Z
     f64:	31 81       	ldd	r19, Z+1	; 0x01
     f66:	a8 01       	movw	r20, r16
     f68:	24 2b       	or	r18, r20
     f6a:	35 2b       	or	r19, r21
     f6c:	fc 01       	movw	r30, r24
     f6e:	31 83       	std	Z+1, r19	; 0x01
     f70:	20 83       	st	Z, r18
			
				if((i-5)%14==0)
     f72:	8a 81       	ldd	r24, Y+2	; 0x02
     f74:	88 2f       	mov	r24, r24
     f76:	90 e0       	ldi	r25, 0x00	; 0
     f78:	05 97       	sbiw	r24, 0x05	; 5
     f7a:	2e e0       	ldi	r18, 0x0E	; 14
     f7c:	30 e0       	ldi	r19, 0x00	; 0
     f7e:	b9 01       	movw	r22, r18
     f80:	0e 94 78 27 	call	0x4ef0	; 0x4ef0 <__divmodhi4>
     f84:	89 2b       	or	r24, r25
     f86:	71 f5       	brne	.+92     	; 0xfe4 <draw_scores+0x1a0>
				framebuffer[x_offset(i)] |= _BV((SCREEN_DIMENSION_Y - (y_offset(i)+1)));
     f88:	8a 81       	ldd	r24, Y+2	; 0x02
     f8a:	0e 94 31 06 	call	0xc62	; 0xc62 <y_offset>
     f8e:	88 2f       	mov	r24, r24
     f90:	90 e0       	ldi	r25, 0x00	; 0
     f92:	29 e0       	ldi	r18, 0x09	; 9
     f94:	30 e0       	ldi	r19, 0x00	; 0
     f96:	28 1b       	sub	r18, r24
     f98:	39 0b       	sbc	r19, r25
     f9a:	81 e0       	ldi	r24, 0x01	; 1
     f9c:	90 e0       	ldi	r25, 0x00	; 0
     f9e:	8c 01       	movw	r16, r24
     fa0:	02 c0       	rjmp	.+4      	; 0xfa6 <draw_scores+0x162>
     fa2:	00 0f       	add	r16, r16
     fa4:	11 1f       	adc	r17, r17
     fa6:	2a 95       	dec	r18
     fa8:	e2 f7       	brpl	.-8      	; 0xfa2 <draw_scores+0x15e>
     faa:	8a 81       	ldd	r24, Y+2	; 0x02
     fac:	0e 94 44 06 	call	0xc88	; 0xc88 <x_offset>
     fb0:	48 2f       	mov	r20, r24
     fb2:	84 2f       	mov	r24, r20
     fb4:	90 e0       	ldi	r25, 0x00	; 0
     fb6:	88 0f       	add	r24, r24
     fb8:	99 1f       	adc	r25, r25
     fba:	2d 81       	ldd	r18, Y+5	; 0x05
     fbc:	3e 81       	ldd	r19, Y+6	; 0x06
     fbe:	82 0f       	add	r24, r18
     fc0:	93 1f       	adc	r25, r19
     fc2:	24 2f       	mov	r18, r20
     fc4:	30 e0       	ldi	r19, 0x00	; 0
     fc6:	22 0f       	add	r18, r18
     fc8:	33 1f       	adc	r19, r19
     fca:	4d 81       	ldd	r20, Y+5	; 0x05
     fcc:	5e 81       	ldd	r21, Y+6	; 0x06
     fce:	24 0f       	add	r18, r20
     fd0:	35 1f       	adc	r19, r21
     fd2:	f9 01       	movw	r30, r18
     fd4:	20 81       	ld	r18, Z
     fd6:	31 81       	ldd	r19, Z+1	; 0x01
     fd8:	a8 01       	movw	r20, r16
     fda:	24 2b       	or	r18, r20
     fdc:	35 2b       	or	r19, r21
     fde:	fc 01       	movw	r30, r24
     fe0:	31 83       	std	Z+1, r19	; 0x01
     fe2:	20 83       	st	Z, r18
			framebuffer[x_offset(i)] |= _BV((SCREEN_DIMENSION_Y - (y_offset(i)+1)));
		}
	}
	else if(score_right==2)
		{
			for(uint8_t i = 31; i <=103; i++)
     fe4:	8a 81       	ldd	r24, Y+2	; 0x02
     fe6:	8f 5f       	subi	r24, 0xFF	; 255
     fe8:	8a 83       	std	Y+2, r24	; 0x02
     fea:	8a 81       	ldd	r24, Y+2	; 0x02
     fec:	88 36       	cpi	r24, 0x68	; 104
     fee:	08 f4       	brcc	.+2      	; 0xff2 <draw_scores+0x1ae>
     ff0:	87 cf       	rjmp	.-242    	; 0xf00 <draw_scores+0xbc>
			}
		}
		
	
	
		if(score_left==1)
     ff2:	88 85       	ldd	r24, Y+8	; 0x08
     ff4:	81 30       	cpi	r24, 0x01	; 1
     ff6:	09 f0       	breq	.+2      	; 0xffa <draw_scores+0x1b6>
     ff8:	43 c0       	rjmp	.+134    	; 0x1080 <draw_scores+0x23c>
		{
			for(uint8_t i = 37; i <=107; i++)
     ffa:	85 e2       	ldi	r24, 0x25	; 37
     ffc:	8b 83       	std	Y+3, r24	; 0x03
     ffe:	3c c0       	rjmp	.+120    	; 0x1078 <draw_scores+0x234>
			{
				if((i-9)%14==0)
    1000:	8b 81       	ldd	r24, Y+3	; 0x03
    1002:	88 2f       	mov	r24, r24
    1004:	90 e0       	ldi	r25, 0x00	; 0
    1006:	09 97       	sbiw	r24, 0x09	; 9
    1008:	2e e0       	ldi	r18, 0x0E	; 14
    100a:	30 e0       	ldi	r19, 0x00	; 0
    100c:	b9 01       	movw	r22, r18
    100e:	0e 94 78 27 	call	0x4ef0	; 0x4ef0 <__divmodhi4>
    1012:	89 2b       	or	r24, r25
    1014:	71 f5       	brne	.+92     	; 0x1072 <draw_scores+0x22e>
				framebuffer[x_offset(i)] |= _BV((SCREEN_DIMENSION_Y - (y_offset(i)+1)));
    1016:	8b 81       	ldd	r24, Y+3	; 0x03
    1018:	0e 94 31 06 	call	0xc62	; 0xc62 <y_offset>
    101c:	88 2f       	mov	r24, r24
    101e:	90 e0       	ldi	r25, 0x00	; 0
    1020:	29 e0       	ldi	r18, 0x09	; 9
    1022:	30 e0       	ldi	r19, 0x00	; 0
    1024:	28 1b       	sub	r18, r24
    1026:	39 0b       	sbc	r19, r25
    1028:	81 e0       	ldi	r24, 0x01	; 1
    102a:	90 e0       	ldi	r25, 0x00	; 0
    102c:	8c 01       	movw	r16, r24
    102e:	02 c0       	rjmp	.+4      	; 0x1034 <draw_scores+0x1f0>
    1030:	00 0f       	add	r16, r16
    1032:	11 1f       	adc	r17, r17
    1034:	2a 95       	dec	r18
    1036:	e2 f7       	brpl	.-8      	; 0x1030 <draw_scores+0x1ec>
    1038:	8b 81       	ldd	r24, Y+3	; 0x03
    103a:	0e 94 44 06 	call	0xc88	; 0xc88 <x_offset>
    103e:	48 2f       	mov	r20, r24
    1040:	84 2f       	mov	r24, r20
    1042:	90 e0       	ldi	r25, 0x00	; 0
    1044:	88 0f       	add	r24, r24
    1046:	99 1f       	adc	r25, r25
    1048:	2d 81       	ldd	r18, Y+5	; 0x05
    104a:	3e 81       	ldd	r19, Y+6	; 0x06
    104c:	82 0f       	add	r24, r18
    104e:	93 1f       	adc	r25, r19
    1050:	24 2f       	mov	r18, r20
    1052:	30 e0       	ldi	r19, 0x00	; 0
    1054:	22 0f       	add	r18, r18
    1056:	33 1f       	adc	r19, r19
    1058:	4d 81       	ldd	r20, Y+5	; 0x05
    105a:	5e 81       	ldd	r21, Y+6	; 0x06
    105c:	24 0f       	add	r18, r20
    105e:	35 1f       	adc	r19, r21
    1060:	f9 01       	movw	r30, r18
    1062:	20 81       	ld	r18, Z
    1064:	31 81       	ldd	r19, Z+1	; 0x01
    1066:	a8 01       	movw	r20, r16
    1068:	24 2b       	or	r18, r20
    106a:	35 2b       	or	r19, r21
    106c:	fc 01       	movw	r30, r24
    106e:	31 83       	std	Z+1, r19	; 0x01
    1070:	20 83       	st	Z, r18
		
	
	
		if(score_left==1)
		{
			for(uint8_t i = 37; i <=107; i++)
    1072:	8b 81       	ldd	r24, Y+3	; 0x03
    1074:	8f 5f       	subi	r24, 0xFF	; 255
    1076:	8b 83       	std	Y+3, r24	; 0x03
    1078:	8b 81       	ldd	r24, Y+3	; 0x03
    107a:	8c 36       	cpi	r24, 0x6C	; 108
    107c:	08 f2       	brcs	.-126    	; 0x1000 <draw_scores+0x1bc>
		}
		
		
		
	
}
    107e:	80 c0       	rjmp	.+256    	; 0x1180 <draw_scores+0x33c>
			{
				if((i-9)%14==0)
				framebuffer[x_offset(i)] |= _BV((SCREEN_DIMENSION_Y - (y_offset(i)+1)));
			}
		}
		else if(score_left==2)
    1080:	88 85       	ldd	r24, Y+8	; 0x08
    1082:	82 30       	cpi	r24, 0x02	; 2
    1084:	09 f0       	breq	.+2      	; 0x1088 <draw_scores+0x244>
    1086:	7c c0       	rjmp	.+248    	; 0x1180 <draw_scores+0x33c>
		{
			for(uint8_t i = 37; i <=109; i++)
    1088:	85 e2       	ldi	r24, 0x25	; 37
    108a:	8c 83       	std	Y+4, r24	; 0x04
    108c:	75 c0       	rjmp	.+234    	; 0x1178 <draw_scores+0x334>
			{
				if((i-9)%14==0)
    108e:	8c 81       	ldd	r24, Y+4	; 0x04
    1090:	88 2f       	mov	r24, r24
    1092:	90 e0       	ldi	r25, 0x00	; 0
    1094:	09 97       	sbiw	r24, 0x09	; 9
    1096:	2e e0       	ldi	r18, 0x0E	; 14
    1098:	30 e0       	ldi	r19, 0x00	; 0
    109a:	b9 01       	movw	r22, r18
    109c:	0e 94 78 27 	call	0x4ef0	; 0x4ef0 <__divmodhi4>
    10a0:	89 2b       	or	r24, r25
    10a2:	71 f5       	brne	.+92     	; 0x1100 <draw_scores+0x2bc>
				framebuffer[x_offset(i)] |= _BV((SCREEN_DIMENSION_Y - (y_offset(i)+1)));
    10a4:	8c 81       	ldd	r24, Y+4	; 0x04
    10a6:	0e 94 31 06 	call	0xc62	; 0xc62 <y_offset>
    10aa:	88 2f       	mov	r24, r24
    10ac:	90 e0       	ldi	r25, 0x00	; 0
    10ae:	29 e0       	ldi	r18, 0x09	; 9
    10b0:	30 e0       	ldi	r19, 0x00	; 0
    10b2:	28 1b       	sub	r18, r24
    10b4:	39 0b       	sbc	r19, r25
    10b6:	81 e0       	ldi	r24, 0x01	; 1
    10b8:	90 e0       	ldi	r25, 0x00	; 0
    10ba:	8c 01       	movw	r16, r24
    10bc:	02 c0       	rjmp	.+4      	; 0x10c2 <draw_scores+0x27e>
    10be:	00 0f       	add	r16, r16
    10c0:	11 1f       	adc	r17, r17
    10c2:	2a 95       	dec	r18
    10c4:	e2 f7       	brpl	.-8      	; 0x10be <draw_scores+0x27a>
    10c6:	8c 81       	ldd	r24, Y+4	; 0x04
    10c8:	0e 94 44 06 	call	0xc88	; 0xc88 <x_offset>
    10cc:	48 2f       	mov	r20, r24
    10ce:	84 2f       	mov	r24, r20
    10d0:	90 e0       	ldi	r25, 0x00	; 0
    10d2:	88 0f       	add	r24, r24
    10d4:	99 1f       	adc	r25, r25
    10d6:	2d 81       	ldd	r18, Y+5	; 0x05
    10d8:	3e 81       	ldd	r19, Y+6	; 0x06
    10da:	82 0f       	add	r24, r18
    10dc:	93 1f       	adc	r25, r19
    10de:	24 2f       	mov	r18, r20
    10e0:	30 e0       	ldi	r19, 0x00	; 0
    10e2:	22 0f       	add	r18, r18
    10e4:	33 1f       	adc	r19, r19
    10e6:	4d 81       	ldd	r20, Y+5	; 0x05
    10e8:	5e 81       	ldd	r21, Y+6	; 0x06
    10ea:	24 0f       	add	r18, r20
    10ec:	35 1f       	adc	r19, r21
    10ee:	f9 01       	movw	r30, r18
    10f0:	20 81       	ld	r18, Z
    10f2:	31 81       	ldd	r19, Z+1	; 0x01
    10f4:	a8 01       	movw	r20, r16
    10f6:	24 2b       	or	r18, r20
    10f8:	35 2b       	or	r19, r21
    10fa:	fc 01       	movw	r30, r24
    10fc:	31 83       	std	Z+1, r19	; 0x01
    10fe:	20 83       	st	Z, r18
				if((i-11)%14==0)
    1100:	8c 81       	ldd	r24, Y+4	; 0x04
    1102:	88 2f       	mov	r24, r24
    1104:	90 e0       	ldi	r25, 0x00	; 0
    1106:	0b 97       	sbiw	r24, 0x0b	; 11
    1108:	2e e0       	ldi	r18, 0x0E	; 14
    110a:	30 e0       	ldi	r19, 0x00	; 0
    110c:	b9 01       	movw	r22, r18
    110e:	0e 94 78 27 	call	0x4ef0	; 0x4ef0 <__divmodhi4>
    1112:	89 2b       	or	r24, r25
    1114:	71 f5       	brne	.+92     	; 0x1172 <draw_scores+0x32e>
				framebuffer[x_offset(i)] |= _BV((SCREEN_DIMENSION_Y - (y_offset(i)+1)));
    1116:	8c 81       	ldd	r24, Y+4	; 0x04
    1118:	0e 94 31 06 	call	0xc62	; 0xc62 <y_offset>
    111c:	88 2f       	mov	r24, r24
    111e:	90 e0       	ldi	r25, 0x00	; 0
    1120:	29 e0       	ldi	r18, 0x09	; 9
    1122:	30 e0       	ldi	r19, 0x00	; 0
    1124:	28 1b       	sub	r18, r24
    1126:	39 0b       	sbc	r19, r25
    1128:	81 e0       	ldi	r24, 0x01	; 1
    112a:	90 e0       	ldi	r25, 0x00	; 0
    112c:	8c 01       	movw	r16, r24
    112e:	02 c0       	rjmp	.+4      	; 0x1134 <draw_scores+0x2f0>
    1130:	00 0f       	add	r16, r16
    1132:	11 1f       	adc	r17, r17
    1134:	2a 95       	dec	r18
    1136:	e2 f7       	brpl	.-8      	; 0x1130 <draw_scores+0x2ec>
    1138:	8c 81       	ldd	r24, Y+4	; 0x04
    113a:	0e 94 44 06 	call	0xc88	; 0xc88 <x_offset>
    113e:	48 2f       	mov	r20, r24
    1140:	84 2f       	mov	r24, r20
    1142:	90 e0       	ldi	r25, 0x00	; 0
    1144:	88 0f       	add	r24, r24
    1146:	99 1f       	adc	r25, r25
    1148:	2d 81       	ldd	r18, Y+5	; 0x05
    114a:	3e 81       	ldd	r19, Y+6	; 0x06
    114c:	82 0f       	add	r24, r18
    114e:	93 1f       	adc	r25, r19
    1150:	24 2f       	mov	r18, r20
    1152:	30 e0       	ldi	r19, 0x00	; 0
    1154:	22 0f       	add	r18, r18
    1156:	33 1f       	adc	r19, r19
    1158:	4d 81       	ldd	r20, Y+5	; 0x05
    115a:	5e 81       	ldd	r21, Y+6	; 0x06
    115c:	24 0f       	add	r18, r20
    115e:	35 1f       	adc	r19, r21
    1160:	f9 01       	movw	r30, r18
    1162:	20 81       	ld	r18, Z
    1164:	31 81       	ldd	r19, Z+1	; 0x01
    1166:	a8 01       	movw	r20, r16
    1168:	24 2b       	or	r18, r20
    116a:	35 2b       	or	r19, r21
    116c:	fc 01       	movw	r30, r24
    116e:	31 83       	std	Z+1, r19	; 0x01
    1170:	20 83       	st	Z, r18
				framebuffer[x_offset(i)] |= _BV((SCREEN_DIMENSION_Y - (y_offset(i)+1)));
			}
		}
		else if(score_left==2)
		{
			for(uint8_t i = 37; i <=109; i++)
    1172:	8c 81       	ldd	r24, Y+4	; 0x04
    1174:	8f 5f       	subi	r24, 0xFF	; 255
    1176:	8c 83       	std	Y+4, r24	; 0x04
    1178:	8c 81       	ldd	r24, Y+4	; 0x04
    117a:	8e 36       	cpi	r24, 0x6E	; 110
    117c:	08 f4       	brcc	.+2      	; 0x1180 <draw_scores+0x33c>
    117e:	87 cf       	rjmp	.-242    	; 0x108e <draw_scores+0x24a>
		}
		
		
		
	
}
    1180:	00 00       	nop
    1182:	28 96       	adiw	r28, 0x08	; 8
    1184:	0f b6       	in	r0, 0x3f	; 63
    1186:	f8 94       	cli
    1188:	de bf       	out	0x3e, r29	; 62
    118a:	0f be       	out	0x3f, r0	; 63
    118c:	cd bf       	out	0x3d, r28	; 61
    118e:	df 91       	pop	r29
    1190:	cf 91       	pop	r28
    1192:	1f 91       	pop	r17
    1194:	0f 91       	pop	r16
    1196:	08 95       	ret

00001198 <read_joystick>:
#include "joystick.h"

#include <FreeRTOS.h>

uint8_t read_joystick()
{
    1198:	cf 93       	push	r28
    119a:	df 93       	push	r29
    119c:	cd b7       	in	r28, 0x3d	; 61
    119e:	de b7       	in	r29, 0x3e	; 62
	return  (PINC & _BV(PINC6)) | (PINC & _BV(PINC0)) | (PIND & _BV(PIND3));
    11a0:	86 e2       	ldi	r24, 0x26	; 38
    11a2:	90 e0       	ldi	r25, 0x00	; 0
    11a4:	fc 01       	movw	r30, r24
    11a6:	80 81       	ld	r24, Z
    11a8:	28 2f       	mov	r18, r24
    11aa:	20 74       	andi	r18, 0x40	; 64
    11ac:	86 e2       	ldi	r24, 0x26	; 38
    11ae:	90 e0       	ldi	r25, 0x00	; 0
    11b0:	fc 01       	movw	r30, r24
    11b2:	80 81       	ld	r24, Z
    11b4:	81 70       	andi	r24, 0x01	; 1
    11b6:	28 2b       	or	r18, r24
    11b8:	89 e2       	ldi	r24, 0x29	; 41
    11ba:	90 e0       	ldi	r25, 0x00	; 0
    11bc:	fc 01       	movw	r30, r24
    11be:	80 81       	ld	r24, Z
    11c0:	88 70       	andi	r24, 0x08	; 8
    11c2:	82 2b       	or	r24, r18
}
    11c4:	df 91       	pop	r29
    11c6:	cf 91       	pop	r28
    11c8:	08 95       	ret

000011ca <joystick_task>:


void joystick_task(void *pvParameters)
{
    11ca:	cf 93       	push	r28
    11cc:	df 93       	push	r29
    11ce:	00 d0       	rcall	.+0      	; 0x11d0 <joystick_task+0x6>
    11d0:	00 d0       	rcall	.+0      	; 0x11d2 <joystick_task+0x8>
    11d2:	cd b7       	in	r28, 0x3d	; 61
    11d4:	de b7       	in	r29, 0x3e	; 62
    11d6:	9c 83       	std	Y+4, r25	; 0x04
    11d8:	8b 83       	std	Y+3, r24	; 0x03
	#if (configUSE_APPLICATION_TASK_TAG == 1)
	// Set task no to be used for tracing with R2R-Network
    //vTaskSetApplicationTaskTag( NULL, ( void * ) 2 );
	#endif

	TickType_t joystick_task_lastwake = xTaskGetTickCount();
    11da:	0e 94 e3 21 	call	0x43c6	; 0x43c6 <xTaskGetTickCount>
    11de:	9a 83       	std	Y+2, r25	; 0x02
    11e0:	89 83       	std	Y+1, r24	; 0x01
	
	while(1)
	{
		//Set task period
		vTaskDelayUntil(&joystick_task_lastwake, JOYSTICK_TASK_PERIOD);
    11e2:	69 e1       	ldi	r22, 0x19	; 25
    11e4:	70 e0       	ldi	r23, 0x00	; 0
    11e6:	ce 01       	movw	r24, r28
    11e8:	01 96       	adiw	r24, 0x01	; 1
    11ea:	0e 94 6d 20 	call	0x40da	; 0x40da <vTaskDelayUntil>
		
		//Action
		
	
		if((read_joystick() & JOYSTICK_UP) == 0)
    11ee:	0e 94 cc 08 	call	0x1198	; 0x1198 <read_joystick>
    11f2:	88 2f       	mov	r24, r24
    11f4:	90 e0       	ldi	r25, 0x00	; 0
    11f6:	80 74       	andi	r24, 0x40	; 64
    11f8:	99 27       	eor	r25, r25
    11fa:	89 2b       	or	r24, r25
    11fc:	21 f4       	brne	.+8      	; 0x1206 <joystick_task+0x3c>
		{
			bat_move(PL_ONE, D_UP);
    11fe:	62 e0       	ldi	r22, 0x02	; 2
    1200:	80 e0       	ldi	r24, 0x00	; 0
    1202:	0e 94 8d 01 	call	0x31a	; 0x31a <bat_move>
		}
		if((read_joystick() & JOYSTICK_DOWN) == 0)
    1206:	0e 94 cc 08 	call	0x1198	; 0x1198 <read_joystick>
    120a:	88 2f       	mov	r24, r24
    120c:	90 e0       	ldi	r25, 0x00	; 0
    120e:	81 70       	andi	r24, 0x01	; 1
    1210:	99 27       	eor	r25, r25
    1212:	89 2b       	or	r24, r25
    1214:	21 f4       	brne	.+8      	; 0x121e <joystick_task+0x54>
		{
			bat_move(PL_ONE, D_DOWN);
    1216:	61 e0       	ldi	r22, 0x01	; 1
    1218:	80 e0       	ldi	r24, 0x00	; 0
    121a:	0e 94 8d 01 	call	0x31a	; 0x31a <bat_move>
		}
		if((read_joystick() & JOYSTICK_PUSH) == 0)
    121e:	0e 94 cc 08 	call	0x1198	; 0x1198 <read_joystick>
    1222:	88 2f       	mov	r24, r24
    1224:	90 e0       	ldi	r25, 0x00	; 0
    1226:	88 70       	andi	r24, 0x08	; 8
    1228:	99 27       	eor	r25, r25
    122a:	89 2b       	or	r24, r25
    122c:	d1 f6       	brne	.-76     	; 0x11e2 <joystick_task+0x18>
		{
			restart_game();
    122e:	0e 94 87 02 	call	0x50e	; 0x50e <restart_game>
		}
	}
    1232:	d7 cf       	rjmp	.-82     	; 0x11e2 <joystick_task+0x18>

00001234 <vApplicationIdleHook>:
// frame_buf contains a bit pattern for each column in the display
uint16_t frame_buf[14] = {1023, 1+256+512, 28+512, 62, 126, 254, 508, 254, 126, 62, 28 + 512, 1+256+512 , 1023, 0 };

//-----------------------------------------
void vApplicationIdleHook( void )
{
    1234:	cf 93       	push	r28
    1236:	df 93       	push	r29
    1238:	cd b7       	in	r28, 0x3d	; 61
    123a:	de b7       	in	r29, 0x3e	; 62
	//
}
    123c:	00 00       	nop
    123e:	df 91       	pop	r29
    1240:	cf 91       	pop	r28
    1242:	08 95       	ret

00001244 <prepare_shiftregister>:

// Prepare shift register setting SER = 1
void prepare_shiftregister()
{
    1244:	cf 93       	push	r28
    1246:	df 93       	push	r29
    1248:	cd b7       	in	r28, 0x3d	; 61
    124a:	de b7       	in	r29, 0x3e	; 62
	// Set SER to 1
	PORTD |= _BV(PORTD2);
    124c:	8b e2       	ldi	r24, 0x2B	; 43
    124e:	90 e0       	ldi	r25, 0x00	; 0
    1250:	2b e2       	ldi	r18, 0x2B	; 43
    1252:	30 e0       	ldi	r19, 0x00	; 0
    1254:	f9 01       	movw	r30, r18
    1256:	20 81       	ld	r18, Z
    1258:	24 60       	ori	r18, 0x04	; 4
    125a:	fc 01       	movw	r30, r24
    125c:	20 83       	st	Z, r18
}
    125e:	00 00       	nop
    1260:	df 91       	pop	r29
    1262:	cf 91       	pop	r28
    1264:	08 95       	ret

00001266 <clock_shift_register_and_prepare_for_next_col>:

// clock shift-register
void clock_shift_register_and_prepare_for_next_col()
{
    1266:	cf 93       	push	r28
    1268:	df 93       	push	r29
    126a:	cd b7       	in	r28, 0x3d	; 61
    126c:	de b7       	in	r29, 0x3e	; 62
	// one SCK pulse
	PORTD |= _BV(PORTD5);
    126e:	8b e2       	ldi	r24, 0x2B	; 43
    1270:	90 e0       	ldi	r25, 0x00	; 0
    1272:	2b e2       	ldi	r18, 0x2B	; 43
    1274:	30 e0       	ldi	r19, 0x00	; 0
    1276:	f9 01       	movw	r30, r18
    1278:	20 81       	ld	r18, Z
    127a:	20 62       	ori	r18, 0x20	; 32
    127c:	fc 01       	movw	r30, r24
    127e:	20 83       	st	Z, r18
	PORTD &= ~_BV(PORTD5);
    1280:	8b e2       	ldi	r24, 0x2B	; 43
    1282:	90 e0       	ldi	r25, 0x00	; 0
    1284:	2b e2       	ldi	r18, 0x2B	; 43
    1286:	30 e0       	ldi	r19, 0x00	; 0
    1288:	f9 01       	movw	r30, r18
    128a:	20 81       	ld	r18, Z
    128c:	2f 7d       	andi	r18, 0xDF	; 223
    128e:	fc 01       	movw	r30, r24
    1290:	20 83       	st	Z, r18
	
	// one RCK pulse
	PORTD |= _BV(PORTD4);
    1292:	8b e2       	ldi	r24, 0x2B	; 43
    1294:	90 e0       	ldi	r25, 0x00	; 0
    1296:	2b e2       	ldi	r18, 0x2B	; 43
    1298:	30 e0       	ldi	r19, 0x00	; 0
    129a:	f9 01       	movw	r30, r18
    129c:	20 81       	ld	r18, Z
    129e:	20 61       	ori	r18, 0x10	; 16
    12a0:	fc 01       	movw	r30, r24
    12a2:	20 83       	st	Z, r18
	PORTD &= ~_BV(PORTD4);
    12a4:	8b e2       	ldi	r24, 0x2B	; 43
    12a6:	90 e0       	ldi	r25, 0x00	; 0
    12a8:	2b e2       	ldi	r18, 0x2B	; 43
    12aa:	30 e0       	ldi	r19, 0x00	; 0
    12ac:	f9 01       	movw	r30, r18
    12ae:	20 81       	ld	r18, Z
    12b0:	2f 7e       	andi	r18, 0xEF	; 239
    12b2:	fc 01       	movw	r30, r24
    12b4:	20 83       	st	Z, r18
	
	// Set SER to 0 - for next column
	PORTD &= ~_BV(PORTD2);
    12b6:	8b e2       	ldi	r24, 0x2B	; 43
    12b8:	90 e0       	ldi	r25, 0x00	; 0
    12ba:	2b e2       	ldi	r18, 0x2B	; 43
    12bc:	30 e0       	ldi	r19, 0x00	; 0
    12be:	f9 01       	movw	r30, r18
    12c0:	20 81       	ld	r18, Z
    12c2:	2b 7f       	andi	r18, 0xFB	; 251
    12c4:	fc 01       	movw	r30, r24
    12c6:	20 83       	st	Z, r18
}
    12c8:	00 00       	nop
    12ca:	df 91       	pop	r29
    12cc:	cf 91       	pop	r28
    12ce:	08 95       	ret

000012d0 <load_col_value>:

// Load column value for column to show
void load_col_value(uint16_t col_value)
{
    12d0:	cf 93       	push	r28
    12d2:	df 93       	push	r29
    12d4:	00 d0       	rcall	.+0      	; 0x12d6 <load_col_value+0x6>
    12d6:	cd b7       	in	r28, 0x3d	; 61
    12d8:	de b7       	in	r29, 0x3e	; 62
    12da:	9a 83       	std	Y+2, r25	; 0x02
    12dc:	89 83       	std	Y+1, r24	; 0x01
	PORTA = ~(col_value & 0xFF);
    12de:	82 e2       	ldi	r24, 0x22	; 34
    12e0:	90 e0       	ldi	r25, 0x00	; 0
    12e2:	29 81       	ldd	r18, Y+1	; 0x01
    12e4:	20 95       	com	r18
    12e6:	fc 01       	movw	r30, r24
    12e8:	20 83       	st	Z, r18
	
	// Manipulate only with PB0 and PB1
	PORTB |= 0x03;
    12ea:	85 e2       	ldi	r24, 0x25	; 37
    12ec:	90 e0       	ldi	r25, 0x00	; 0
    12ee:	25 e2       	ldi	r18, 0x25	; 37
    12f0:	30 e0       	ldi	r19, 0x00	; 0
    12f2:	f9 01       	movw	r30, r18
    12f4:	20 81       	ld	r18, Z
    12f6:	23 60       	ori	r18, 0x03	; 3
    12f8:	fc 01       	movw	r30, r24
    12fa:	20 83       	st	Z, r18
	PORTB &= ~((col_value >> 8) & 0x03);
    12fc:	85 e2       	ldi	r24, 0x25	; 37
    12fe:	90 e0       	ldi	r25, 0x00	; 0
    1300:	25 e2       	ldi	r18, 0x25	; 37
    1302:	30 e0       	ldi	r19, 0x00	; 0
    1304:	f9 01       	movw	r30, r18
    1306:	40 81       	ld	r20, Z
    1308:	29 81       	ldd	r18, Y+1	; 0x01
    130a:	3a 81       	ldd	r19, Y+2	; 0x02
    130c:	23 2f       	mov	r18, r19
    130e:	33 27       	eor	r19, r19
    1310:	23 70       	andi	r18, 0x03	; 3
    1312:	20 95       	com	r18
    1314:	24 23       	and	r18, r20
    1316:	fc 01       	movw	r30, r24
    1318:	20 83       	st	Z, r18
}
    131a:	00 00       	nop
    131c:	0f 90       	pop	r0
    131e:	0f 90       	pop	r0
    1320:	df 91       	pop	r29
    1322:	cf 91       	pop	r28
    1324:	08 95       	ret

00001326 <handle_display>:

//-----------------------------------------
void handle_display(void)
{
    1326:	cf 93       	push	r28
    1328:	df 93       	push	r29
    132a:	cd b7       	in	r28, 0x3d	; 61
    132c:	de b7       	in	r29, 0x3e	; 62
	static uint8_t col = 0;
	
	if (col == 0)
    132e:	80 91 86 01 	lds	r24, 0x0186	; 0x800186 <col.2142>
    1332:	88 23       	and	r24, r24
    1334:	11 f4       	brne	.+4      	; 0x133a <handle_display+0x14>
	{
		prepare_shiftregister();
    1336:	0e 94 22 09 	call	0x1244	; 0x1244 <prepare_shiftregister>
	}
	
	load_col_value(frame_buf[col]);
    133a:	80 91 86 01 	lds	r24, 0x0186	; 0x800186 <col.2142>
    133e:	88 2f       	mov	r24, r24
    1340:	90 e0       	ldi	r25, 0x00	; 0
    1342:	88 0f       	add	r24, r24
    1344:	99 1f       	adc	r25, r25
    1346:	8d 5f       	subi	r24, 0xFD	; 253
    1348:	9e 4f       	sbci	r25, 0xFE	; 254
    134a:	fc 01       	movw	r30, r24
    134c:	80 81       	ld	r24, Z
    134e:	91 81       	ldd	r25, Z+1	; 0x01
    1350:	0e 94 68 09 	call	0x12d0	; 0x12d0 <load_col_value>
	
	clock_shift_register_and_prepare_for_next_col();
    1354:	0e 94 33 09 	call	0x1266	; 0x1266 <clock_shift_register_and_prepare_for_next_col>
	
	// count column up - prepare for next
	col++;
    1358:	80 91 86 01 	lds	r24, 0x0186	; 0x800186 <col.2142>
    135c:	8f 5f       	subi	r24, 0xFF	; 255
    135e:	80 93 86 01 	sts	0x0186, r24	; 0x800186 <col.2142>
	if (col > 13)
    1362:	80 91 86 01 	lds	r24, 0x0186	; 0x800186 <col.2142>
    1366:	8e 30       	cpi	r24, 0x0E	; 14
    1368:	10 f0       	brcs	.+4      	; 0x136e <handle_display+0x48>
	{
		col = 0;
    136a:	10 92 86 01 	sts	0x0186, r1	; 0x800186 <col.2142>
	}
}
    136e:	00 00       	nop
    1370:	df 91       	pop	r29
    1372:	cf 91       	pop	r28
    1374:	08 95       	ret

00001376 <vApplicationStackOverflowHook>:

void vApplicationStackOverflowHook( TaskHandle_t xTask,signed char *pcTaskName )
{
    1376:	cf 93       	push	r28
    1378:	df 93       	push	r29
    137a:	00 d0       	rcall	.+0      	; 0x137c <vApplicationStackOverflowHook+0x6>
    137c:	00 d0       	rcall	.+0      	; 0x137e <vApplicationStackOverflowHook+0x8>
    137e:	cd b7       	in	r28, 0x3d	; 61
    1380:	de b7       	in	r29, 0x3e	; 62
    1382:	9a 83       	std	Y+2, r25	; 0x02
    1384:	89 83       	std	Y+1, r24	; 0x01
    1386:	7c 83       	std	Y+4, r23	; 0x04
    1388:	6b 83       	std	Y+3, r22	; 0x03
	

}
    138a:	00 00       	nop
    138c:	0f 90       	pop	r0
    138e:	0f 90       	pop	r0
    1390:	0f 90       	pop	r0
    1392:	0f 90       	pop	r0
    1394:	df 91       	pop	r29
    1396:	cf 91       	pop	r28
    1398:	08 95       	ret

0000139a <vApplicationMallocFailedHook>:

void vApplicationMallocFailedHook( void )
{
    139a:	cf 93       	push	r28
    139c:	df 93       	push	r29
    139e:	cd b7       	in	r28, 0x3d	; 61
    13a0:	de b7       	in	r29, 0x3e	; 62

}
    13a2:	00 00       	nop
    13a4:	df 91       	pop	r29
    13a6:	cf 91       	pop	r28
    13a8:	08 95       	ret

000013aa <main>:

//-----------------------------------------
int main(void)
{	
    13aa:	ef 92       	push	r14
    13ac:	ff 92       	push	r15
    13ae:	0f 93       	push	r16
    13b0:	cf 93       	push	r28
    13b2:	df 93       	push	r29
    13b4:	00 d0       	rcall	.+0      	; 0x13b6 <main+0xc>
    13b6:	1f 92       	push	r1
    13b8:	cd b7       	in	r28, 0x3d	; 61
    13ba:	de b7       	in	r29, 0x3e	; 62
	cli();
    13bc:	f8 94       	cli
	//
	init_board();
    13be:	0e 94 a4 0f 	call	0x1f48	; 0x1f48 <init_board>
	
	// Shift register Enable output (G=0)
	PORTD &= ~_BV(PORTD6);
    13c2:	8b e2       	ldi	r24, 0x2B	; 43
    13c4:	90 e0       	ldi	r25, 0x00	; 0
    13c6:	2b e2       	ldi	r18, 0x2B	; 43
    13c8:	30 e0       	ldi	r19, 0x00	; 0
    13ca:	f9 01       	movw	r30, r18
    13cc:	20 81       	ld	r18, Z
    13ce:	2f 7b       	andi	r18, 0xBF	; 191
    13d0:	fc 01       	movw	r30, r24
    13d2:	20 83       	st	Z, r18
	
	//Tasks 
	
	BaseType_t t1 = xTaskCreate(serial_com_task, (const char *)"serial_com", 250, (void *)NULL, tskIDLE_PRIORITY+3, NULL);
    13d4:	e1 2c       	mov	r14, r1
    13d6:	f1 2c       	mov	r15, r1
    13d8:	03 e0       	ldi	r16, 0x03	; 3
    13da:	20 e0       	ldi	r18, 0x00	; 0
    13dc:	30 e0       	ldi	r19, 0x00	; 0
    13de:	4a ef       	ldi	r20, 0xFA	; 250
    13e0:	50 e0       	ldi	r21, 0x00	; 0
    13e2:	63 e5       	ldi	r22, 0x53	; 83
    13e4:	71 e0       	ldi	r23, 0x01	; 1
    13e6:	8e ec       	ldi	r24, 0xCE	; 206
    13e8:	9c e0       	ldi	r25, 0x0C	; 12
    13ea:	0e 94 90 1e 	call	0x3d20	; 0x3d20 <xTaskCreate>
    13ee:	89 83       	std	Y+1, r24	; 0x01
	BaseType_t t2 = xTaskCreate(joystick_task, (const char *)"joystick", configMINIMAL_STACK_SIZE + 50, (void *)NULL, tskIDLE_PRIORITY+2, NULL);
    13f0:	e1 2c       	mov	r14, r1
    13f2:	f1 2c       	mov	r15, r1
    13f4:	02 e0       	ldi	r16, 0x02	; 2
    13f6:	20 e0       	ldi	r18, 0x00	; 0
    13f8:	30 e0       	ldi	r19, 0x00	; 0
    13fa:	47 e8       	ldi	r20, 0x87	; 135
    13fc:	50 e0       	ldi	r21, 0x00	; 0
    13fe:	6e e5       	ldi	r22, 0x5E	; 94
    1400:	71 e0       	ldi	r23, 0x01	; 1
    1402:	85 ee       	ldi	r24, 0xE5	; 229
    1404:	98 e0       	ldi	r25, 0x08	; 8
    1406:	0e 94 90 1e 	call	0x3d20	; 0x3d20 <xTaskCreate>
    140a:	8a 83       	std	Y+2, r24	; 0x02
	BaseType_t t3 = xTaskCreate(game_renderer_task, (const char *)"game_rend", configMINIMAL_STACK_SIZE+50, frame_buf, tskIDLE_PRIORITY+4, NULL);
    140c:	e1 2c       	mov	r14, r1
    140e:	f1 2c       	mov	r15, r1
    1410:	04 e0       	ldi	r16, 0x04	; 4
    1412:	23 e0       	ldi	r18, 0x03	; 3
    1414:	31 e0       	ldi	r19, 0x01	; 1
    1416:	47 e8       	ldi	r20, 0x87	; 135
    1418:	50 e0       	ldi	r21, 0x00	; 0
    141a:	67 e6       	ldi	r22, 0x67	; 103
    141c:	71 e0       	ldi	r23, 0x01	; 1
    141e:	81 ee       	ldi	r24, 0xE1	; 225
    1420:	92 e0       	ldi	r25, 0x02	; 2
    1422:	0e 94 90 1e 	call	0x3d20	; 0x3d20 <xTaskCreate>
    1426:	8b 83       	std	Y+3, r24	; 0x03

	// Start the display handler timer
	init_display_timer(handle_display);
    1428:	83 e9       	ldi	r24, 0x93	; 147
    142a:	99 e0       	ldi	r25, 0x09	; 9
    142c:	0e 94 29 0f 	call	0x1e52	; 0x1e52 <init_display_timer>
	
	sei();
    1430:	78 94       	sei
	
	//Start the scheduler
	vTaskStartScheduler();
    1432:	0e 94 0a 21 	call	0x4214	; 0x4214 <vTaskStartScheduler>
	
	//Should never reach here
	while (1)
	{

	}
    1436:	ff cf       	rjmp	.-2      	; 0x1436 <main+0x8c>

00001438 <compute_crc8>:
    1438:	cf 93       	push	r28
    143a:	df 93       	push	r29
    143c:	cd b7       	in	r28, 0x3d	; 61
    143e:	de b7       	in	r29, 0x3e	; 62
    1440:	27 97       	sbiw	r28, 0x07	; 7
    1442:	0f b6       	in	r0, 0x3f	; 63
    1444:	f8 94       	cli
    1446:	de bf       	out	0x3e, r29	; 62
    1448:	0f be       	out	0x3f, r0	; 63
    144a:	cd bf       	out	0x3d, r28	; 61
    144c:	9e 83       	std	Y+6, r25	; 0x06
    144e:	8d 83       	std	Y+5, r24	; 0x05
    1450:	6f 83       	std	Y+7, r22	; 0x07
    1452:	19 82       	std	Y+1, r1	; 0x01
    1454:	1a 82       	std	Y+2, r1	; 0x02
    1456:	26 c0       	rjmp	.+76     	; 0x14a4 <compute_crc8+0x6c>
    1458:	8a 81       	ldd	r24, Y+2	; 0x02
    145a:	88 2f       	mov	r24, r24
    145c:	90 e0       	ldi	r25, 0x00	; 0
    145e:	2d 81       	ldd	r18, Y+5	; 0x05
    1460:	3e 81       	ldd	r19, Y+6	; 0x06
    1462:	82 0f       	add	r24, r18
    1464:	93 1f       	adc	r25, r19
    1466:	fc 01       	movw	r30, r24
    1468:	80 81       	ld	r24, Z
    146a:	99 81       	ldd	r25, Y+1	; 0x01
    146c:	89 27       	eor	r24, r25
    146e:	89 83       	std	Y+1, r24	; 0x01
    1470:	1b 82       	std	Y+3, r1	; 0x03
    1472:	12 c0       	rjmp	.+36     	; 0x1498 <compute_crc8+0x60>
    1474:	89 81       	ldd	r24, Y+1	; 0x01
    1476:	88 1f       	adc	r24, r24
    1478:	88 27       	eor	r24, r24
    147a:	88 1f       	adc	r24, r24
    147c:	8c 83       	std	Y+4, r24	; 0x04
    147e:	89 81       	ldd	r24, Y+1	; 0x01
    1480:	88 0f       	add	r24, r24
    1482:	89 83       	std	Y+1, r24	; 0x01
    1484:	8c 81       	ldd	r24, Y+4	; 0x04
    1486:	88 23       	and	r24, r24
    1488:	21 f0       	breq	.+8      	; 0x1492 <compute_crc8+0x5a>
    148a:	99 81       	ldd	r25, Y+1	; 0x01
    148c:	87 e0       	ldi	r24, 0x07	; 7
    148e:	89 27       	eor	r24, r25
    1490:	89 83       	std	Y+1, r24	; 0x01
    1492:	8b 81       	ldd	r24, Y+3	; 0x03
    1494:	8f 5f       	subi	r24, 0xFF	; 255
    1496:	8b 83       	std	Y+3, r24	; 0x03
    1498:	8b 81       	ldd	r24, Y+3	; 0x03
    149a:	88 30       	cpi	r24, 0x08	; 8
    149c:	58 f3       	brcs	.-42     	; 0x1474 <compute_crc8+0x3c>
    149e:	8a 81       	ldd	r24, Y+2	; 0x02
    14a0:	8f 5f       	subi	r24, 0xFF	; 255
    14a2:	8a 83       	std	Y+2, r24	; 0x02
    14a4:	9a 81       	ldd	r25, Y+2	; 0x02
    14a6:	8f 81       	ldd	r24, Y+7	; 0x07
    14a8:	98 17       	cp	r25, r24
    14aa:	b0 f2       	brcs	.-84     	; 0x1458 <compute_crc8+0x20>
    14ac:	89 81       	ldd	r24, Y+1	; 0x01
    14ae:	27 96       	adiw	r28, 0x07	; 7
    14b0:	0f b6       	in	r0, 0x3f	; 63
    14b2:	f8 94       	cli
    14b4:	de bf       	out	0x3e, r29	; 62
    14b6:	0f be       	out	0x3f, r0	; 63
    14b8:	cd bf       	out	0x3d, r28	; 61
    14ba:	df 91       	pop	r29
    14bc:	cf 91       	pop	r28
    14be:	08 95       	ret

000014c0 <unpack_data_frame>:
    14c0:	cf 93       	push	r28
    14c2:	df 93       	push	r29
    14c4:	cd b7       	in	r28, 0x3d	; 61
    14c6:	de b7       	in	r29, 0x3e	; 62
    14c8:	28 97       	sbiw	r28, 0x08	; 8
    14ca:	0f b6       	in	r0, 0x3f	; 63
    14cc:	f8 94       	cli
    14ce:	de bf       	out	0x3e, r29	; 62
    14d0:	0f be       	out	0x3f, r0	; 63
    14d2:	cd bf       	out	0x3d, r28	; 61
    14d4:	9d 83       	std	Y+5, r25	; 0x05
    14d6:	8c 83       	std	Y+4, r24	; 0x04
    14d8:	6e 83       	std	Y+6, r22	; 0x06
    14da:	58 87       	std	Y+8, r21	; 0x08
    14dc:	4f 83       	std	Y+7, r20	; 0x07
    14de:	8e 81       	ldd	r24, Y+6	; 0x06
    14e0:	84 30       	cpi	r24, 0x04	; 4
    14e2:	10 f4       	brcc	.+4      	; 0x14e8 <unpack_data_frame+0x28>
    14e4:	80 e0       	ldi	r24, 0x00	; 0
    14e6:	41 c0       	rjmp	.+130    	; 0x156a <unpack_data_frame+0xaa>
    14e8:	8c 81       	ldd	r24, Y+4	; 0x04
    14ea:	9d 81       	ldd	r25, Y+5	; 0x05
    14ec:	fc 01       	movw	r30, r24
    14ee:	80 81       	ld	r24, Z
    14f0:	0e 94 c1 0b 	call	0x1782	; 0x1782 <is_start_of_frame>
    14f4:	98 2f       	mov	r25, r24
    14f6:	81 e0       	ldi	r24, 0x01	; 1
    14f8:	89 27       	eor	r24, r25
    14fa:	88 23       	and	r24, r24
    14fc:	11 f0       	breq	.+4      	; 0x1502 <unpack_data_frame+0x42>
    14fe:	80 e0       	ldi	r24, 0x00	; 0
    1500:	34 c0       	rjmp	.+104    	; 0x156a <unpack_data_frame+0xaa>
    1502:	8c 81       	ldd	r24, Y+4	; 0x04
    1504:	9d 81       	ldd	r25, Y+5	; 0x05
    1506:	6e 81       	ldd	r22, Y+6	; 0x06
    1508:	0e 94 e9 0b 	call	0x17d2	; 0x17d2 <get_frame_size>
    150c:	89 83       	std	Y+1, r24	; 0x01
    150e:	8c 81       	ldd	r24, Y+4	; 0x04
    1510:	9d 81       	ldd	r25, Y+5	; 0x05
    1512:	69 81       	ldd	r22, Y+1	; 0x01
    1514:	0e 94 d0 0b 	call	0x17a0	; 0x17a0 <is_CRC_valid>
    1518:	98 2f       	mov	r25, r24
    151a:	81 e0       	ldi	r24, 0x01	; 1
    151c:	89 27       	eor	r24, r25
    151e:	88 23       	and	r24, r24
    1520:	11 f0       	breq	.+4      	; 0x1526 <unpack_data_frame+0x66>
    1522:	80 e0       	ldi	r24, 0x00	; 0
    1524:	22 c0       	rjmp	.+68     	; 0x156a <unpack_data_frame+0xaa>
    1526:	8c 81       	ldd	r24, Y+4	; 0x04
    1528:	9d 81       	ldd	r25, Y+5	; 0x05
    152a:	fc 01       	movw	r30, r24
    152c:	81 81       	ldd	r24, Z+1	; 0x01
    152e:	8a 83       	std	Y+2, r24	; 0x02
    1530:	83 e0       	ldi	r24, 0x03	; 3
    1532:	8b 83       	std	Y+3, r24	; 0x03
    1534:	99 81       	ldd	r25, Y+1	; 0x01
    1536:	8b 81       	ldd	r24, Y+3	; 0x03
    1538:	f9 2f       	mov	r31, r25
    153a:	f8 1b       	sub	r31, r24
    153c:	8f 2f       	mov	r24, r31
    153e:	6f ef       	ldi	r22, 0xFF	; 255
    1540:	68 0f       	add	r22, r24
    1542:	8b 81       	ldd	r24, Y+3	; 0x03
    1544:	88 2f       	mov	r24, r24
    1546:	90 e0       	ldi	r25, 0x00	; 0
    1548:	2c 81       	ldd	r18, Y+4	; 0x04
    154a:	3d 81       	ldd	r19, Y+5	; 0x05
    154c:	a9 01       	movw	r20, r18
    154e:	48 0f       	add	r20, r24
    1550:	59 1f       	adc	r21, r25
    1552:	8c 81       	ldd	r24, Y+4	; 0x04
    1554:	9d 81       	ldd	r25, Y+5	; 0x05
    1556:	26 2f       	mov	r18, r22
    1558:	6e 81       	ldd	r22, Y+6	; 0x06
    155a:	0e 94 0d 01 	call	0x21a	; 0x21a <byte_unstuff>
    155e:	28 2f       	mov	r18, r24
    1560:	8f 81       	ldd	r24, Y+7	; 0x07
    1562:	98 85       	ldd	r25, Y+8	; 0x08
    1564:	fc 01       	movw	r30, r24
    1566:	20 83       	st	Z, r18
    1568:	8a 81       	ldd	r24, Y+2	; 0x02
    156a:	28 96       	adiw	r28, 0x08	; 8
    156c:	0f b6       	in	r0, 0x3f	; 63
    156e:	f8 94       	cli
    1570:	de bf       	out	0x3e, r29	; 62
    1572:	0f be       	out	0x3f, r0	; 63
    1574:	cd bf       	out	0x3d, r28	; 61
    1576:	df 91       	pop	r29
    1578:	cf 91       	pop	r28
    157a:	08 95       	ret

0000157c <get_data_frame>:
    157c:	cf 93       	push	r28
    157e:	df 93       	push	r29
    1580:	cd b7       	in	r28, 0x3d	; 61
    1582:	de b7       	in	r29, 0x3e	; 62
    1584:	2c 97       	sbiw	r28, 0x0c	; 12
    1586:	0f b6       	in	r0, 0x3f	; 63
    1588:	f8 94       	cli
    158a:	de bf       	out	0x3e, r29	; 62
    158c:	0f be       	out	0x3f, r0	; 63
    158e:	cd bf       	out	0x3d, r28	; 61
    1590:	98 87       	std	Y+8, r25	; 0x08
    1592:	8f 83       	std	Y+7, r24	; 0x07
    1594:	69 87       	std	Y+9, r22	; 0x09
    1596:	5b 87       	std	Y+11, r21	; 0x0b
    1598:	4a 87       	std	Y+10, r20	; 0x0a
    159a:	2c 87       	std	Y+12, r18	; 0x0c
    159c:	8f 81       	ldd	r24, Y+7	; 0x07
    159e:	98 85       	ldd	r25, Y+8	; 0x08
    15a0:	9b 83       	std	Y+3, r25	; 0x03
    15a2:	8a 83       	std	Y+2, r24	; 0x02
    15a4:	89 85       	ldd	r24, Y+9	; 0x09
    15a6:	88 2f       	mov	r24, r24
    15a8:	90 e0       	ldi	r25, 0x00	; 0
    15aa:	0e 94 e0 17 	call	0x2fc0	; 0x2fc0 <pvPortMalloc>
    15ae:	9d 83       	std	Y+5, r25	; 0x05
    15b0:	8c 83       	std	Y+4, r24	; 0x04
    15b2:	8c 81       	ldd	r24, Y+4	; 0x04
    15b4:	9d 81       	ldd	r25, Y+5	; 0x05
    15b6:	89 2b       	or	r24, r25
    15b8:	11 f4       	brne	.+4      	; 0x15be <get_data_frame+0x42>
    15ba:	80 e0       	ldi	r24, 0x00	; 0
    15bc:	7f c0       	rjmp	.+254    	; 0x16bc <get_data_frame+0x140>
    15be:	1e 82       	std	Y+6, r1	; 0x06
    15c0:	8c 85       	ldd	r24, Y+12	; 0x0c
    15c2:	28 2f       	mov	r18, r24
    15c4:	22 0f       	add	r18, r18
    15c6:	4c 81       	ldd	r20, Y+4	; 0x04
    15c8:	5d 81       	ldd	r21, Y+5	; 0x05
    15ca:	8a 85       	ldd	r24, Y+10	; 0x0a
    15cc:	9b 85       	ldd	r25, Y+11	; 0x0b
    15ce:	6c 85       	ldd	r22, Y+12	; 0x0c
    15d0:	0e 94 5d 00 	call	0xba	; 0xba <byte_stuff>
    15d4:	8e 83       	std	Y+6, r24	; 0x06
    15d6:	8e 81       	ldd	r24, Y+6	; 0x06
    15d8:	88 23       	and	r24, r24
    15da:	09 f4       	brne	.+2      	; 0x15de <get_data_frame+0x62>
    15dc:	6a c0       	rjmp	.+212    	; 0x16b2 <get_data_frame+0x136>
    15de:	89 85       	ldd	r24, Y+9	; 0x09
    15e0:	28 2f       	mov	r18, r24
    15e2:	30 e0       	ldi	r19, 0x00	; 0
    15e4:	8e 81       	ldd	r24, Y+6	; 0x06
    15e6:	88 2f       	mov	r24, r24
    15e8:	90 e0       	ldi	r25, 0x00	; 0
    15ea:	04 96       	adiw	r24, 0x04	; 4
    15ec:	28 17       	cp	r18, r24
    15ee:	39 07       	cpc	r19, r25
    15f0:	08 f4       	brcc	.+2      	; 0x15f4 <get_data_frame+0x78>
    15f2:	5f c0       	rjmp	.+190    	; 0x16b2 <get_data_frame+0x136>
    15f4:	8f 81       	ldd	r24, Y+7	; 0x07
    15f6:	98 85       	ldd	r25, Y+8	; 0x08
    15f8:	9c 01       	movw	r18, r24
    15fa:	2f 5f       	subi	r18, 0xFF	; 255
    15fc:	3f 4f       	sbci	r19, 0xFF	; 255
    15fe:	38 87       	std	Y+8, r19	; 0x08
    1600:	2f 83       	std	Y+7, r18	; 0x07
    1602:	2f ef       	ldi	r18, 0xFF	; 255
    1604:	fc 01       	movw	r30, r24
    1606:	20 83       	st	Z, r18
    1608:	8f 81       	ldd	r24, Y+7	; 0x07
    160a:	98 85       	ldd	r25, Y+8	; 0x08
    160c:	9c 01       	movw	r18, r24
    160e:	2f 5f       	subi	r18, 0xFF	; 255
    1610:	3f 4f       	sbci	r19, 0xFF	; 255
    1612:	38 87       	std	Y+8, r19	; 0x08
    1614:	2f 83       	std	Y+7, r18	; 0x07
    1616:	21 e0       	ldi	r18, 0x01	; 1
    1618:	fc 01       	movw	r30, r24
    161a:	20 83       	st	Z, r18
    161c:	8f 81       	ldd	r24, Y+7	; 0x07
    161e:	98 85       	ldd	r25, Y+8	; 0x08
    1620:	9c 01       	movw	r18, r24
    1622:	2f 5f       	subi	r18, 0xFF	; 255
    1624:	3f 4f       	sbci	r19, 0xFF	; 255
    1626:	38 87       	std	Y+8, r19	; 0x08
    1628:	2f 83       	std	Y+7, r18	; 0x07
    162a:	2e 81       	ldd	r18, Y+6	; 0x06
    162c:	2c 5f       	subi	r18, 0xFC	; 252
    162e:	fc 01       	movw	r30, r24
    1630:	20 83       	st	Z, r18
    1632:	19 82       	std	Y+1, r1	; 0x01
    1634:	15 c0       	rjmp	.+42     	; 0x1660 <get_data_frame+0xe4>
    1636:	8f 81       	ldd	r24, Y+7	; 0x07
    1638:	98 85       	ldd	r25, Y+8	; 0x08
    163a:	9c 01       	movw	r18, r24
    163c:	2f 5f       	subi	r18, 0xFF	; 255
    163e:	3f 4f       	sbci	r19, 0xFF	; 255
    1640:	38 87       	std	Y+8, r19	; 0x08
    1642:	2f 83       	std	Y+7, r18	; 0x07
    1644:	29 81       	ldd	r18, Y+1	; 0x01
    1646:	22 2f       	mov	r18, r18
    1648:	30 e0       	ldi	r19, 0x00	; 0
    164a:	4c 81       	ldd	r20, Y+4	; 0x04
    164c:	5d 81       	ldd	r21, Y+5	; 0x05
    164e:	24 0f       	add	r18, r20
    1650:	35 1f       	adc	r19, r21
    1652:	f9 01       	movw	r30, r18
    1654:	20 81       	ld	r18, Z
    1656:	fc 01       	movw	r30, r24
    1658:	20 83       	st	Z, r18
    165a:	89 81       	ldd	r24, Y+1	; 0x01
    165c:	8f 5f       	subi	r24, 0xFF	; 255
    165e:	89 83       	std	Y+1, r24	; 0x01
    1660:	99 81       	ldd	r25, Y+1	; 0x01
    1662:	8e 81       	ldd	r24, Y+6	; 0x06
    1664:	98 17       	cp	r25, r24
    1666:	38 f3       	brcs	.-50     	; 0x1636 <get_data_frame+0xba>
    1668:	8c 81       	ldd	r24, Y+4	; 0x04
    166a:	9d 81       	ldd	r25, Y+5	; 0x05
    166c:	0e 94 d5 18 	call	0x31aa	; 0x31aa <vPortFree>
    1670:	2f 81       	ldd	r18, Y+7	; 0x07
    1672:	38 85       	ldd	r19, Y+8	; 0x08
    1674:	8a 81       	ldd	r24, Y+2	; 0x02
    1676:	9b 81       	ldd	r25, Y+3	; 0x03
    1678:	a9 01       	movw	r20, r18
    167a:	48 1b       	sub	r20, r24
    167c:	59 0b       	sbc	r21, r25
    167e:	ca 01       	movw	r24, r20
    1680:	28 2f       	mov	r18, r24
    1682:	8a 81       	ldd	r24, Y+2	; 0x02
    1684:	9b 81       	ldd	r25, Y+3	; 0x03
    1686:	62 2f       	mov	r22, r18
    1688:	0e 94 1c 0a 	call	0x1438	; 0x1438 <compute_crc8>
    168c:	28 2f       	mov	r18, r24
    168e:	8f 81       	ldd	r24, Y+7	; 0x07
    1690:	98 85       	ldd	r25, Y+8	; 0x08
    1692:	fc 01       	movw	r30, r24
    1694:	20 83       	st	Z, r18
    1696:	8f 81       	ldd	r24, Y+7	; 0x07
    1698:	98 85       	ldd	r25, Y+8	; 0x08
    169a:	01 96       	adiw	r24, 0x01	; 1
    169c:	98 87       	std	Y+8, r25	; 0x08
    169e:	8f 83       	std	Y+7, r24	; 0x07
    16a0:	2f 81       	ldd	r18, Y+7	; 0x07
    16a2:	38 85       	ldd	r19, Y+8	; 0x08
    16a4:	8a 81       	ldd	r24, Y+2	; 0x02
    16a6:	9b 81       	ldd	r25, Y+3	; 0x03
    16a8:	a9 01       	movw	r20, r18
    16aa:	48 1b       	sub	r20, r24
    16ac:	59 0b       	sbc	r21, r25
    16ae:	ca 01       	movw	r24, r20
    16b0:	05 c0       	rjmp	.+10     	; 0x16bc <get_data_frame+0x140>
    16b2:	8c 81       	ldd	r24, Y+4	; 0x04
    16b4:	9d 81       	ldd	r25, Y+5	; 0x05
    16b6:	0e 94 d5 18 	call	0x31aa	; 0x31aa <vPortFree>
    16ba:	80 e0       	ldi	r24, 0x00	; 0
    16bc:	2c 96       	adiw	r28, 0x0c	; 12
    16be:	0f b6       	in	r0, 0x3f	; 63
    16c0:	f8 94       	cli
    16c2:	de bf       	out	0x3e, r29	; 62
    16c4:	0f be       	out	0x3f, r0	; 63
    16c6:	cd bf       	out	0x3d, r28	; 61
    16c8:	df 91       	pop	r29
    16ca:	cf 91       	pop	r28
    16cc:	08 95       	ret

000016ce <get_acknowledge_frame>:
    16ce:	cf 93       	push	r28
    16d0:	df 93       	push	r29
    16d2:	00 d0       	rcall	.+0      	; 0x16d4 <get_acknowledge_frame+0x6>
    16d4:	00 d0       	rcall	.+0      	; 0x16d6 <get_acknowledge_frame+0x8>
    16d6:	1f 92       	push	r1
    16d8:	cd b7       	in	r28, 0x3d	; 61
    16da:	de b7       	in	r29, 0x3e	; 62
    16dc:	9c 83       	std	Y+4, r25	; 0x04
    16de:	8b 83       	std	Y+3, r24	; 0x03
    16e0:	6d 83       	std	Y+5, r22	; 0x05
    16e2:	8b 81       	ldd	r24, Y+3	; 0x03
    16e4:	9c 81       	ldd	r25, Y+4	; 0x04
    16e6:	9a 83       	std	Y+2, r25	; 0x02
    16e8:	89 83       	std	Y+1, r24	; 0x01
    16ea:	8d 81       	ldd	r24, Y+5	; 0x05
    16ec:	84 30       	cpi	r24, 0x04	; 4
    16ee:	08 f4       	brcc	.+2      	; 0x16f2 <get_acknowledge_frame+0x24>
    16f0:	3f c0       	rjmp	.+126    	; 0x1770 <get_acknowledge_frame+0xa2>
    16f2:	8b 81       	ldd	r24, Y+3	; 0x03
    16f4:	9c 81       	ldd	r25, Y+4	; 0x04
    16f6:	9c 01       	movw	r18, r24
    16f8:	2f 5f       	subi	r18, 0xFF	; 255
    16fa:	3f 4f       	sbci	r19, 0xFF	; 255
    16fc:	3c 83       	std	Y+4, r19	; 0x04
    16fe:	2b 83       	std	Y+3, r18	; 0x03
    1700:	2f ef       	ldi	r18, 0xFF	; 255
    1702:	fc 01       	movw	r30, r24
    1704:	20 83       	st	Z, r18
    1706:	8b 81       	ldd	r24, Y+3	; 0x03
    1708:	9c 81       	ldd	r25, Y+4	; 0x04
    170a:	9c 01       	movw	r18, r24
    170c:	2f 5f       	subi	r18, 0xFF	; 255
    170e:	3f 4f       	sbci	r19, 0xFF	; 255
    1710:	3c 83       	std	Y+4, r19	; 0x04
    1712:	2b 83       	std	Y+3, r18	; 0x03
    1714:	22 e0       	ldi	r18, 0x02	; 2
    1716:	fc 01       	movw	r30, r24
    1718:	20 83       	st	Z, r18
    171a:	8b 81       	ldd	r24, Y+3	; 0x03
    171c:	9c 81       	ldd	r25, Y+4	; 0x04
    171e:	9c 01       	movw	r18, r24
    1720:	2f 5f       	subi	r18, 0xFF	; 255
    1722:	3f 4f       	sbci	r19, 0xFF	; 255
    1724:	3c 83       	std	Y+4, r19	; 0x04
    1726:	2b 83       	std	Y+3, r18	; 0x03
    1728:	24 e0       	ldi	r18, 0x04	; 4
    172a:	fc 01       	movw	r30, r24
    172c:	20 83       	st	Z, r18
    172e:	2b 81       	ldd	r18, Y+3	; 0x03
    1730:	3c 81       	ldd	r19, Y+4	; 0x04
    1732:	89 81       	ldd	r24, Y+1	; 0x01
    1734:	9a 81       	ldd	r25, Y+2	; 0x02
    1736:	a9 01       	movw	r20, r18
    1738:	48 1b       	sub	r20, r24
    173a:	59 0b       	sbc	r21, r25
    173c:	ca 01       	movw	r24, r20
    173e:	28 2f       	mov	r18, r24
    1740:	89 81       	ldd	r24, Y+1	; 0x01
    1742:	9a 81       	ldd	r25, Y+2	; 0x02
    1744:	62 2f       	mov	r22, r18
    1746:	0e 94 1c 0a 	call	0x1438	; 0x1438 <compute_crc8>
    174a:	28 2f       	mov	r18, r24
    174c:	8b 81       	ldd	r24, Y+3	; 0x03
    174e:	9c 81       	ldd	r25, Y+4	; 0x04
    1750:	fc 01       	movw	r30, r24
    1752:	20 83       	st	Z, r18
    1754:	8b 81       	ldd	r24, Y+3	; 0x03
    1756:	9c 81       	ldd	r25, Y+4	; 0x04
    1758:	01 96       	adiw	r24, 0x01	; 1
    175a:	9c 83       	std	Y+4, r25	; 0x04
    175c:	8b 83       	std	Y+3, r24	; 0x03
    175e:	2b 81       	ldd	r18, Y+3	; 0x03
    1760:	3c 81       	ldd	r19, Y+4	; 0x04
    1762:	89 81       	ldd	r24, Y+1	; 0x01
    1764:	9a 81       	ldd	r25, Y+2	; 0x02
    1766:	a9 01       	movw	r20, r18
    1768:	48 1b       	sub	r20, r24
    176a:	59 0b       	sbc	r21, r25
    176c:	ca 01       	movw	r24, r20
    176e:	01 c0       	rjmp	.+2      	; 0x1772 <get_acknowledge_frame+0xa4>
    1770:	80 e0       	ldi	r24, 0x00	; 0
    1772:	0f 90       	pop	r0
    1774:	0f 90       	pop	r0
    1776:	0f 90       	pop	r0
    1778:	0f 90       	pop	r0
    177a:	0f 90       	pop	r0
    177c:	df 91       	pop	r29
    177e:	cf 91       	pop	r28
    1780:	08 95       	ret

00001782 <is_start_of_frame>:
    1782:	cf 93       	push	r28
    1784:	df 93       	push	r29
    1786:	1f 92       	push	r1
    1788:	cd b7       	in	r28, 0x3d	; 61
    178a:	de b7       	in	r29, 0x3e	; 62
    178c:	89 83       	std	Y+1, r24	; 0x01
    178e:	81 e0       	ldi	r24, 0x01	; 1
    1790:	99 81       	ldd	r25, Y+1	; 0x01
    1792:	9f 3f       	cpi	r25, 0xFF	; 255
    1794:	09 f0       	breq	.+2      	; 0x1798 <is_start_of_frame+0x16>
    1796:	80 e0       	ldi	r24, 0x00	; 0
    1798:	0f 90       	pop	r0
    179a:	df 91       	pop	r29
    179c:	cf 91       	pop	r28
    179e:	08 95       	ret

000017a0 <is_CRC_valid>:
    17a0:	cf 93       	push	r28
    17a2:	df 93       	push	r29
    17a4:	00 d0       	rcall	.+0      	; 0x17a6 <is_CRC_valid+0x6>
    17a6:	1f 92       	push	r1
    17a8:	cd b7       	in	r28, 0x3d	; 61
    17aa:	de b7       	in	r29, 0x3e	; 62
    17ac:	9a 83       	std	Y+2, r25	; 0x02
    17ae:	89 83       	std	Y+1, r24	; 0x01
    17b0:	6b 83       	std	Y+3, r22	; 0x03
    17b2:	89 81       	ldd	r24, Y+1	; 0x01
    17b4:	9a 81       	ldd	r25, Y+2	; 0x02
    17b6:	6b 81       	ldd	r22, Y+3	; 0x03
    17b8:	0e 94 1c 0a 	call	0x1438	; 0x1438 <compute_crc8>
    17bc:	98 2f       	mov	r25, r24
    17be:	81 e0       	ldi	r24, 0x01	; 1
    17c0:	99 23       	and	r25, r25
    17c2:	09 f0       	breq	.+2      	; 0x17c6 <is_CRC_valid+0x26>
    17c4:	80 e0       	ldi	r24, 0x00	; 0
    17c6:	0f 90       	pop	r0
    17c8:	0f 90       	pop	r0
    17ca:	0f 90       	pop	r0
    17cc:	df 91       	pop	r29
    17ce:	cf 91       	pop	r28
    17d0:	08 95       	ret

000017d2 <get_frame_size>:
    17d2:	cf 93       	push	r28
    17d4:	df 93       	push	r29
    17d6:	00 d0       	rcall	.+0      	; 0x17d8 <get_frame_size+0x6>
    17d8:	1f 92       	push	r1
    17da:	cd b7       	in	r28, 0x3d	; 61
    17dc:	de b7       	in	r29, 0x3e	; 62
    17de:	9a 83       	std	Y+2, r25	; 0x02
    17e0:	89 83       	std	Y+1, r24	; 0x01
    17e2:	6b 83       	std	Y+3, r22	; 0x03
    17e4:	8b 81       	ldd	r24, Y+3	; 0x03
    17e6:	83 30       	cpi	r24, 0x03	; 3
    17e8:	10 f4       	brcc	.+4      	; 0x17ee <get_frame_size+0x1c>
    17ea:	80 e0       	ldi	r24, 0x00	; 0
    17ec:	16 c0       	rjmp	.+44     	; 0x181a <get_frame_size+0x48>
    17ee:	89 81       	ldd	r24, Y+1	; 0x01
    17f0:	9a 81       	ldd	r25, Y+2	; 0x02
    17f2:	fc 01       	movw	r30, r24
    17f4:	80 81       	ld	r24, Z
    17f6:	8f 3f       	cpi	r24, 0xFF	; 255
    17f8:	11 f0       	breq	.+4      	; 0x17fe <get_frame_size+0x2c>
    17fa:	80 e0       	ldi	r24, 0x00	; 0
    17fc:	0e c0       	rjmp	.+28     	; 0x181a <get_frame_size+0x48>
    17fe:	89 81       	ldd	r24, Y+1	; 0x01
    1800:	9a 81       	ldd	r25, Y+2	; 0x02
    1802:	01 96       	adiw	r24, 0x01	; 1
    1804:	9a 83       	std	Y+2, r25	; 0x02
    1806:	89 83       	std	Y+1, r24	; 0x01
    1808:	89 81       	ldd	r24, Y+1	; 0x01
    180a:	9a 81       	ldd	r25, Y+2	; 0x02
    180c:	01 96       	adiw	r24, 0x01	; 1
    180e:	9a 83       	std	Y+2, r25	; 0x02
    1810:	89 83       	std	Y+1, r24	; 0x01
    1812:	89 81       	ldd	r24, Y+1	; 0x01
    1814:	9a 81       	ldd	r25, Y+2	; 0x02
    1816:	fc 01       	movw	r30, r24
    1818:	80 81       	ld	r24, Z
    181a:	0f 90       	pop	r0
    181c:	0f 90       	pop	r0
    181e:	0f 90       	pop	r0
    1820:	df 91       	pop	r29
    1822:	cf 91       	pop	r28
    1824:	08 95       	ret

00001826 <is_ack_frame>:
    1826:	cf 93       	push	r28
    1828:	df 93       	push	r29
    182a:	00 d0       	rcall	.+0      	; 0x182c <is_ack_frame+0x6>
    182c:	1f 92       	push	r1
    182e:	cd b7       	in	r28, 0x3d	; 61
    1830:	de b7       	in	r29, 0x3e	; 62
    1832:	9a 83       	std	Y+2, r25	; 0x02
    1834:	89 83       	std	Y+1, r24	; 0x01
    1836:	6b 83       	std	Y+3, r22	; 0x03
    1838:	8b 81       	ldd	r24, Y+3	; 0x03
    183a:	83 30       	cpi	r24, 0x03	; 3
    183c:	10 f4       	brcc	.+4      	; 0x1842 <is_ack_frame+0x1c>
    183e:	20 e0       	ldi	r18, 0x00	; 0
    1840:	11 c0       	rjmp	.+34     	; 0x1864 <is_ack_frame+0x3e>
    1842:	89 81       	ldd	r24, Y+1	; 0x01
    1844:	9a 81       	ldd	r25, Y+2	; 0x02
    1846:	01 96       	adiw	r24, 0x01	; 1
    1848:	9a 83       	std	Y+2, r25	; 0x02
    184a:	89 83       	std	Y+1, r24	; 0x01
    184c:	89 81       	ldd	r24, Y+1	; 0x01
    184e:	9a 81       	ldd	r25, Y+2	; 0x02
    1850:	fc 01       	movw	r30, r24
    1852:	80 81       	ld	r24, Z
    1854:	88 2f       	mov	r24, r24
    1856:	90 e0       	ldi	r25, 0x00	; 0
    1858:	82 70       	andi	r24, 0x02	; 2
    185a:	99 27       	eor	r25, r25
    185c:	21 e0       	ldi	r18, 0x01	; 1
    185e:	89 2b       	or	r24, r25
    1860:	09 f4       	brne	.+2      	; 0x1864 <is_ack_frame+0x3e>
    1862:	20 e0       	ldi	r18, 0x00	; 0
    1864:	82 2f       	mov	r24, r18
    1866:	0f 90       	pop	r0
    1868:	0f 90       	pop	r0
    186a:	0f 90       	pop	r0
    186c:	df 91       	pop	r29
    186e:	cf 91       	pop	r28
    1870:	08 95       	ret

00001872 <get_frame_from_queue>:
    1872:	cf 93       	push	r28
    1874:	df 93       	push	r29
    1876:	cd b7       	in	r28, 0x3d	; 61
    1878:	de b7       	in	r29, 0x3e	; 62
    187a:	28 97       	sbiw	r28, 0x08	; 8
    187c:	0f b6       	in	r0, 0x3f	; 63
    187e:	f8 94       	cli
    1880:	de bf       	out	0x3e, r29	; 62
    1882:	0f be       	out	0x3f, r0	; 63
    1884:	cd bf       	out	0x3d, r28	; 61
    1886:	9b 83       	std	Y+3, r25	; 0x03
    1888:	8a 83       	std	Y+2, r24	; 0x02
    188a:	7d 83       	std	Y+5, r23	; 0x05
    188c:	6c 83       	std	Y+4, r22	; 0x04
    188e:	4e 83       	std	Y+6, r20	; 0x06
    1890:	38 87       	std	Y+8, r19	; 0x08
    1892:	2f 83       	std	Y+7, r18	; 0x07
    1894:	8e 81       	ldd	r24, Y+6	; 0x06
    1896:	84 30       	cpi	r24, 0x04	; 4
    1898:	08 f0       	brcs	.+2      	; 0x189c <get_frame_from_queue+0x2a>
    189a:	6f c0       	rjmp	.+222    	; 0x197a <get_frame_from_queue+0x108>
    189c:	80 e0       	ldi	r24, 0x00	; 0
    189e:	75 c0       	rjmp	.+234    	; 0x198a <get_frame_from_queue+0x118>
    18a0:	8f 81       	ldd	r24, Y+7	; 0x07
    18a2:	98 85       	ldd	r25, Y+8	; 0x08
    18a4:	fc 01       	movw	r30, r24
    18a6:	80 81       	ld	r24, Z
    18a8:	88 2f       	mov	r24, r24
    18aa:	90 e0       	ldi	r25, 0x00	; 0
    18ac:	2c 81       	ldd	r18, Y+4	; 0x04
    18ae:	3d 81       	ldd	r19, Y+5	; 0x05
    18b0:	b9 01       	movw	r22, r18
    18b2:	68 0f       	add	r22, r24
    18b4:	79 1f       	adc	r23, r25
    18b6:	8a 81       	ldd	r24, Y+2	; 0x02
    18b8:	9b 81       	ldd	r25, Y+3	; 0x03
    18ba:	20 e0       	ldi	r18, 0x00	; 0
    18bc:	40 e0       	ldi	r20, 0x00	; 0
    18be:	50 e0       	ldi	r21, 0x00	; 0
    18c0:	0e 94 b4 1b 	call	0x3768	; 0x3768 <xQueueGenericReceive>
    18c4:	88 23       	and	r24, r24
    18c6:	11 f4       	brne	.+4      	; 0x18cc <get_frame_from_queue+0x5a>
    18c8:	80 e0       	ldi	r24, 0x00	; 0
    18ca:	5f c0       	rjmp	.+190    	; 0x198a <get_frame_from_queue+0x118>
    18cc:	8f 81       	ldd	r24, Y+7	; 0x07
    18ce:	98 85       	ldd	r25, Y+8	; 0x08
    18d0:	fc 01       	movw	r30, r24
    18d2:	80 81       	ld	r24, Z
    18d4:	88 23       	and	r24, r24
    18d6:	61 f4       	brne	.+24     	; 0x18f0 <get_frame_from_queue+0x7e>
    18d8:	8c 81       	ldd	r24, Y+4	; 0x04
    18da:	9d 81       	ldd	r25, Y+5	; 0x05
    18dc:	fc 01       	movw	r30, r24
    18de:	80 81       	ld	r24, Z
    18e0:	0e 94 c1 0b 	call	0x1782	; 0x1782 <is_start_of_frame>
    18e4:	98 2f       	mov	r25, r24
    18e6:	81 e0       	ldi	r24, 0x01	; 1
    18e8:	89 27       	eor	r24, r25
    18ea:	88 23       	and	r24, r24
    18ec:	09 f0       	breq	.+2      	; 0x18f0 <get_frame_from_queue+0x7e>
    18ee:	45 c0       	rjmp	.+138    	; 0x197a <get_frame_from_queue+0x108>
    18f0:	8f 81       	ldd	r24, Y+7	; 0x07
    18f2:	98 85       	ldd	r25, Y+8	; 0x08
    18f4:	fc 01       	movw	r30, r24
    18f6:	80 81       	ld	r24, Z
    18f8:	21 e0       	ldi	r18, 0x01	; 1
    18fa:	28 0f       	add	r18, r24
    18fc:	8f 81       	ldd	r24, Y+7	; 0x07
    18fe:	98 85       	ldd	r25, Y+8	; 0x08
    1900:	fc 01       	movw	r30, r24
    1902:	20 83       	st	Z, r18
    1904:	8f 81       	ldd	r24, Y+7	; 0x07
    1906:	98 85       	ldd	r25, Y+8	; 0x08
    1908:	fc 01       	movw	r30, r24
    190a:	80 81       	ld	r24, Z
    190c:	83 30       	cpi	r24, 0x03	; 3
    190e:	a8 f1       	brcs	.+106    	; 0x197a <get_frame_from_queue+0x108>
    1910:	8c 81       	ldd	r24, Y+4	; 0x04
    1912:	9d 81       	ldd	r25, Y+5	; 0x05
    1914:	63 e0       	ldi	r22, 0x03	; 3
    1916:	0e 94 e9 0b 	call	0x17d2	; 0x17d2 <get_frame_size>
    191a:	89 83       	std	Y+1, r24	; 0x01
    191c:	9e 81       	ldd	r25, Y+6	; 0x06
    191e:	89 81       	ldd	r24, Y+1	; 0x01
    1920:	98 17       	cp	r25, r24
    1922:	10 f5       	brcc	.+68     	; 0x1968 <get_frame_from_queue+0xf6>
    1924:	80 e0       	ldi	r24, 0x00	; 0
    1926:	31 c0       	rjmp	.+98     	; 0x198a <get_frame_from_queue+0x118>
    1928:	8f 81       	ldd	r24, Y+7	; 0x07
    192a:	98 85       	ldd	r25, Y+8	; 0x08
    192c:	fc 01       	movw	r30, r24
    192e:	80 81       	ld	r24, Z
    1930:	88 2f       	mov	r24, r24
    1932:	90 e0       	ldi	r25, 0x00	; 0
    1934:	2c 81       	ldd	r18, Y+4	; 0x04
    1936:	3d 81       	ldd	r19, Y+5	; 0x05
    1938:	b9 01       	movw	r22, r18
    193a:	68 0f       	add	r22, r24
    193c:	79 1f       	adc	r23, r25
    193e:	8a 81       	ldd	r24, Y+2	; 0x02
    1940:	9b 81       	ldd	r25, Y+3	; 0x03
    1942:	20 e0       	ldi	r18, 0x00	; 0
    1944:	40 e0       	ldi	r20, 0x00	; 0
    1946:	50 e0       	ldi	r21, 0x00	; 0
    1948:	0e 94 b4 1b 	call	0x3768	; 0x3768 <xQueueGenericReceive>
    194c:	88 23       	and	r24, r24
    194e:	11 f4       	brne	.+4      	; 0x1954 <get_frame_from_queue+0xe2>
    1950:	80 e0       	ldi	r24, 0x00	; 0
    1952:	1b c0       	rjmp	.+54     	; 0x198a <get_frame_from_queue+0x118>
    1954:	8f 81       	ldd	r24, Y+7	; 0x07
    1956:	98 85       	ldd	r25, Y+8	; 0x08
    1958:	fc 01       	movw	r30, r24
    195a:	80 81       	ld	r24, Z
    195c:	21 e0       	ldi	r18, 0x01	; 1
    195e:	28 0f       	add	r18, r24
    1960:	8f 81       	ldd	r24, Y+7	; 0x07
    1962:	98 85       	ldd	r25, Y+8	; 0x08
    1964:	fc 01       	movw	r30, r24
    1966:	20 83       	st	Z, r18
    1968:	8f 81       	ldd	r24, Y+7	; 0x07
    196a:	98 85       	ldd	r25, Y+8	; 0x08
    196c:	fc 01       	movw	r30, r24
    196e:	90 81       	ld	r25, Z
    1970:	89 81       	ldd	r24, Y+1	; 0x01
    1972:	98 17       	cp	r25, r24
    1974:	c8 f2       	brcs	.-78     	; 0x1928 <get_frame_from_queue+0xb6>
    1976:	81 e0       	ldi	r24, 0x01	; 1
    1978:	08 c0       	rjmp	.+16     	; 0x198a <get_frame_from_queue+0x118>
    197a:	8f 81       	ldd	r24, Y+7	; 0x07
    197c:	98 85       	ldd	r25, Y+8	; 0x08
    197e:	fc 01       	movw	r30, r24
    1980:	90 81       	ld	r25, Z
    1982:	8e 81       	ldd	r24, Y+6	; 0x06
    1984:	89 17       	cp	r24, r25
    1986:	08 f0       	brcs	.+2      	; 0x198a <get_frame_from_queue+0x118>
    1988:	8b cf       	rjmp	.-234    	; 0x18a0 <get_frame_from_queue+0x2e>
    198a:	28 96       	adiw	r28, 0x08	; 8
    198c:	0f b6       	in	r0, 0x3f	; 63
    198e:	f8 94       	cli
    1990:	de bf       	out	0x3e, r29	; 62
    1992:	0f be       	out	0x3f, r0	; 63
    1994:	cd bf       	out	0x3d, r28	; 61
    1996:	df 91       	pop	r29
    1998:	cf 91       	pop	r28
    199a:	08 95       	ret

0000199c <serial_com_task>:
static TickType_t last_frame_time = 0;
static uint8_t ack_timeouts = 0;


void serial_com_task(void *pvParameters)
{
    199c:	cf 93       	push	r28
    199e:	df 93       	push	r29
    19a0:	cd b7       	in	r28, 0x3d	; 61
    19a2:	de b7       	in	r29, 0x3e	; 62
    19a4:	c1 57       	subi	r28, 0x71	; 113
    19a6:	d1 09       	sbc	r29, r1
    19a8:	0f b6       	in	r0, 0x3f	; 63
    19aa:	f8 94       	cli
    19ac:	de bf       	out	0x3e, r29	; 62
    19ae:	0f be       	out	0x3f, r0	; 63
    19b0:	cd bf       	out	0x3d, r28	; 61
    19b2:	9e 01       	movw	r18, r28
    19b4:	20 59       	subi	r18, 0x90	; 144
    19b6:	3f 4f       	sbci	r19, 0xFF	; 255
    19b8:	f9 01       	movw	r30, r18
    19ba:	91 83       	std	Z+1, r25	; 0x01
    19bc:	80 83       	st	Z, r24
	#if (configUSE_APPLICATION_TASK_TAG == 1)
	// Set task no to be used for tracing with R2R-Network
	//vTaskSetApplicationTaskTag( NULL, ( void * ) 3 );
	#endif

	com_send_frame_buffer = xQueueCreate(COM_SEND_QUEUE_SIZE, sizeof(uint8_t));
    19be:	40 e0       	ldi	r20, 0x00	; 0
    19c0:	61 e0       	ldi	r22, 0x01	; 1
    19c2:	84 e6       	ldi	r24, 0x64	; 100
    19c4:	0e 94 13 1a 	call	0x3426	; 0x3426 <xQueueGenericCreate>
    19c8:	90 93 8a 01 	sts	0x018A, r25	; 0x80018a <com_send_frame_buffer+0x1>
    19cc:	80 93 89 01 	sts	0x0189, r24	; 0x800189 <com_send_frame_buffer>
	com_send_queue_add_sem = xSemaphoreCreateBinary(); //xSemaphoreCreateBinary( void );  //		//should be semphores
    19d0:	43 e0       	ldi	r20, 0x03	; 3
    19d2:	60 e0       	ldi	r22, 0x00	; 0
    19d4:	81 e0       	ldi	r24, 0x01	; 1
    19d6:	0e 94 13 1a 	call	0x3426	; 0x3426 <xQueueGenericCreate>
    19da:	90 93 8c 01 	sts	0x018C, r25	; 0x80018c <com_send_queue_add_sem+0x1>
    19de:	80 93 8b 01 	sts	0x018B, r24	; 0x80018b <com_send_queue_add_sem>
	_x_com_received_chars_queue = xQueueCreate( _COM_RX_QUEUE_LENGTH, ( unsigned portBASE_TYPE ) sizeof( uint8_t ) );
    19e2:	8e e1       	ldi	r24, 0x1E	; 30
    19e4:	40 e0       	ldi	r20, 0x00	; 0
    19e6:	61 e0       	ldi	r22, 0x01	; 1
    19e8:	0e 94 13 1a 	call	0x3426	; 0x3426 <xQueueGenericCreate>
    19ec:	90 93 88 01 	sts	0x0188, r25	; 0x800188 <_x_com_received_chars_queue+0x1>
    19f0:	80 93 87 01 	sts	0x0187, r24	; 0x800187 <_x_com_received_chars_queue>
	init_com(_x_com_received_chars_queue);
    19f4:	80 91 87 01 	lds	r24, 0x0187	; 0x800187 <_x_com_received_chars_queue>
    19f8:	90 91 88 01 	lds	r25, 0x0188	; 0x800188 <_x_com_received_chars_queue+0x1>
    19fc:	0e 94 16 0f 	call	0x1e2c	; 0x1e2c <init_com>

	
	uint8_t frame[MAX_FRAME_SIZE];
	uint8_t frame_size = 0;
    1a00:	ce 01       	movw	r24, r28
    1a02:	88 59       	subi	r24, 0x98	; 152
    1a04:	9f 4f       	sbci	r25, 0xFF	; 255
    1a06:	fc 01       	movw	r30, r24
    1a08:	10 82       	st	Z, r1

	TickType_t serial_com_task_lastwake = xTaskGetTickCount();
    1a0a:	0e 94 e3 21 	call	0x43c6	; 0x43c6 <xTaskGetTickCount>
    1a0e:	9c 01       	movw	r18, r24
    1a10:	ce 01       	movw	r24, r28
    1a12:	87 59       	subi	r24, 0x97	; 151
    1a14:	9f 4f       	sbci	r25, 0xFF	; 255
    1a16:	fc 01       	movw	r30, r24
    1a18:	31 83       	std	Z+1, r19	; 0x01
    1a1a:	20 83       	st	Z, r18
	
	while(1)
	{
		//UBaseType_t stackUsage = uxTaskGetStackHighWaterMark(NULL);
		//Set task period
		vTaskDelayUntil(&serial_com_task_lastwake, SERIAL_COM_TASK_PERIOD);
    1a1c:	ce 01       	movw	r24, r28
    1a1e:	87 59       	subi	r24, 0x97	; 151
    1a20:	9f 4f       	sbci	r25, 0xFF	; 255
    1a22:	62 e3       	ldi	r22, 0x32	; 50
    1a24:	70 e0       	ldi	r23, 0x00	; 0
    1a26:	0e 94 6d 20 	call	0x40da	; 0x40da <vTaskDelayUntil>
		
		//Actions:
		//Receive frames
		if(get_frame_from_queue(_x_com_received_chars_queue, frame, MAX_FRAME_SIZE, &frame_size))
    1a2a:	80 91 87 01 	lds	r24, 0x0187	; 0x800187 <_x_com_received_chars_queue>
    1a2e:	90 91 88 01 	lds	r25, 0x0188	; 0x800188 <_x_com_received_chars_queue+0x1>
    1a32:	9e 01       	movw	r18, r28
    1a34:	28 59       	subi	r18, 0x98	; 152
    1a36:	3f 4f       	sbci	r19, 0xFF	; 255
    1a38:	be 01       	movw	r22, r28
    1a3a:	6c 5f       	subi	r22, 0xFC	; 252
    1a3c:	7f 4f       	sbci	r23, 0xFF	; 255
    1a3e:	44 e6       	ldi	r20, 0x64	; 100
    1a40:	0e 94 39 0c 	call	0x1872	; 0x1872 <get_frame_from_queue>
    1a44:	88 23       	and	r24, r24
    1a46:	09 f4       	brne	.+2      	; 0x1a4a <serial_com_task+0xae>
    1a48:	78 c0       	rjmp	.+240    	; 0x1b3a <serial_com_task+0x19e>
		{
			uint8_t data_length = 0;
    1a4a:	ce 01       	movw	r24, r28
    1a4c:	85 59       	subi	r24, 0x95	; 149
    1a4e:	9f 4f       	sbci	r25, 0xFF	; 255
    1a50:	fc 01       	movw	r30, r24
    1a52:	10 82       	st	Z, r1
			Frame_type_t type = unpack_data_frame(frame, MAX_FRAME_SIZE, &data_length);
    1a54:	9e 01       	movw	r18, r28
    1a56:	25 59       	subi	r18, 0x95	; 149
    1a58:	3f 4f       	sbci	r19, 0xFF	; 255
    1a5a:	ce 01       	movw	r24, r28
    1a5c:	04 96       	adiw	r24, 0x04	; 4
    1a5e:	a9 01       	movw	r20, r18
    1a60:	64 e6       	ldi	r22, 0x64	; 100
    1a62:	0e 94 60 0a 	call	0x14c0	; 0x14c0 <unpack_data_frame>
    1a66:	8a 83       	std	Y+2, r24	; 0x02
			if (type == ACK)
    1a68:	8a 81       	ldd	r24, Y+2	; 0x02
    1a6a:	82 30       	cpi	r24, 0x02	; 2
    1a6c:	51 f4       	brne	.+20     	; 0x1a82 <serial_com_task+0xe6>
			{
				//Ready to get the next out-frame from queue
				RTS = true;
    1a6e:	81 e0       	ldi	r24, 0x01	; 1
    1a70:	80 93 1f 01 	sts	0x011F, r24	; 0x80011f <RTS>
				last_sent_frame[0] = 0;
    1a74:	10 92 8d 01 	sts	0x018D, r1	; 0x80018d <last_sent_frame>
				last_sent_frame_size = 0;
    1a78:	10 92 f1 01 	sts	0x01F1, r1	; 0x8001f1 <last_sent_frame_size>
				ack_timeouts = 0;
    1a7c:	10 92 f4 01 	sts	0x01F4, r1	; 0x8001f4 <ack_timeouts>
    1a80:	56 c0       	rjmp	.+172    	; 0x1b2e <serial_com_task+0x192>
			}
			else if(type == DATA)
    1a82:	8a 81       	ldd	r24, Y+2	; 0x02
    1a84:	81 30       	cpi	r24, 0x01	; 1
    1a86:	09 f0       	breq	.+2      	; 0x1a8a <serial_com_task+0xee>
    1a88:	4f c0       	rjmp	.+158    	; 0x1b28 <serial_com_task+0x18c>
			{
				uint8_t ack_frame[LINK_FLAG_SIZE + HEADER_SIZE + CRC_SIZE];
				uint8_t ack_frame_size = 0;
    1a8a:	1b 82       	std	Y+3, r1	; 0x03
				if ((ack_frame_size = get_acknowledge_frame(ack_frame, sizeof(ack_frame))))
    1a8c:	ce 01       	movw	r24, r28
    1a8e:	84 59       	subi	r24, 0x94	; 148
    1a90:	9f 4f       	sbci	r25, 0xFF	; 255
    1a92:	64 e0       	ldi	r22, 0x04	; 4
    1a94:	0e 94 67 0b 	call	0x16ce	; 0x16ce <get_acknowledge_frame>
    1a98:	8b 83       	std	Y+3, r24	; 0x03
    1a9a:	8b 81       	ldd	r24, Y+3	; 0x03
    1a9c:	88 23       	and	r24, r24
    1a9e:	b9 f1       	breq	.+110    	; 0x1b0e <serial_com_task+0x172>
				{
					//25
						if(xSemaphoreTake(com_send_queue_add_sem, 50))
    1aa0:	80 91 8b 01 	lds	r24, 0x018B	; 0x80018b <com_send_queue_add_sem>
    1aa4:	90 91 8c 01 	lds	r25, 0x018C	; 0x80018c <com_send_queue_add_sem+0x1>
    1aa8:	20 e0       	ldi	r18, 0x00	; 0
    1aaa:	42 e3       	ldi	r20, 0x32	; 50
    1aac:	50 e0       	ldi	r21, 0x00	; 0
    1aae:	60 e0       	ldi	r22, 0x00	; 0
    1ab0:	70 e0       	ldi	r23, 0x00	; 0
    1ab2:	0e 94 b4 1b 	call	0x3768	; 0x3768 <xQueueGenericReceive>
    1ab6:	88 23       	and	r24, r24
    1ab8:	f9 f0       	breq	.+62     	; 0x1af8 <serial_com_task+0x15c>
					for (uint8_t i = 0; i < ack_frame_size; i++)
    1aba:	19 82       	std	Y+1, r1	; 0x01
    1abc:	17 c0       	rjmp	.+46     	; 0x1aec <serial_com_task+0x150>
					{
						if (!xQueueSend(com_send_frame_buffer, ack_frame+i, 0))
    1abe:	89 81       	ldd	r24, Y+1	; 0x01
    1ac0:	88 2f       	mov	r24, r24
    1ac2:	90 e0       	ldi	r25, 0x00	; 0
    1ac4:	9e 01       	movw	r18, r28
    1ac6:	24 59       	subi	r18, 0x94	; 148
    1ac8:	3f 4f       	sbci	r19, 0xFF	; 255
    1aca:	b9 01       	movw	r22, r18
    1acc:	68 0f       	add	r22, r24
    1ace:	79 1f       	adc	r23, r25
    1ad0:	80 91 89 01 	lds	r24, 0x0189	; 0x800189 <com_send_frame_buffer>
    1ad4:	90 91 8a 01 	lds	r25, 0x018A	; 0x80018a <com_send_frame_buffer+0x1>
    1ad8:	20 e0       	ldi	r18, 0x00	; 0
    1ada:	40 e0       	ldi	r20, 0x00	; 0
    1adc:	50 e0       	ldi	r21, 0x00	; 0
    1ade:	0e 94 a4 1a 	call	0x3548	; 0x3548 <xQueueGenericSend>
    1ae2:	88 23       	and	r24, r24
    1ae4:	41 f0       	breq	.+16     	; 0x1af6 <serial_com_task+0x15a>
				uint8_t ack_frame_size = 0;
				if ((ack_frame_size = get_acknowledge_frame(ack_frame, sizeof(ack_frame))))
				{
					//25
						if(xSemaphoreTake(com_send_queue_add_sem, 50))
					for (uint8_t i = 0; i < ack_frame_size; i++)
    1ae6:	89 81       	ldd	r24, Y+1	; 0x01
    1ae8:	8f 5f       	subi	r24, 0xFF	; 255
    1aea:	89 83       	std	Y+1, r24	; 0x01
    1aec:	99 81       	ldd	r25, Y+1	; 0x01
    1aee:	8b 81       	ldd	r24, Y+3	; 0x03
    1af0:	98 17       	cp	r25, r24
    1af2:	28 f3       	brcs	.-54     	; 0x1abe <serial_com_task+0x122>
    1af4:	01 c0       	rjmp	.+2      	; 0x1af8 <serial_com_task+0x15c>
					{
						if (!xQueueSend(com_send_frame_buffer, ack_frame+i, 0))
						break;
    1af6:	00 00       	nop
					}
					xSemaphoreGive(com_send_queue_add_sem);
    1af8:	80 91 8b 01 	lds	r24, 0x018B	; 0x80018b <com_send_queue_add_sem>
    1afc:	90 91 8c 01 	lds	r25, 0x018C	; 0x80018c <com_send_queue_add_sem+0x1>
    1b00:	20 e0       	ldi	r18, 0x00	; 0
    1b02:	40 e0       	ldi	r20, 0x00	; 0
    1b04:	50 e0       	ldi	r21, 0x00	; 0
    1b06:	60 e0       	ldi	r22, 0x00	; 0
    1b08:	70 e0       	ldi	r23, 0x00	; 0
    1b0a:	0e 94 a4 1a 	call	0x3548	; 0x3548 <xQueueGenericSend>
				}
				//now handle the received data:
				handle_serial_input(frame, data_length);
    1b0e:	ce 01       	movw	r24, r28
    1b10:	85 59       	subi	r24, 0x95	; 149
    1b12:	9f 4f       	sbci	r25, 0xFF	; 255
    1b14:	fc 01       	movw	r30, r24
    1b16:	80 81       	ld	r24, Z
    1b18:	28 2f       	mov	r18, r24
    1b1a:	30 e0       	ldi	r19, 0x00	; 0
    1b1c:	ce 01       	movw	r24, r28
    1b1e:	04 96       	adiw	r24, 0x04	; 4
    1b20:	b9 01       	movw	r22, r18
    1b22:	0e 94 c4 0e 	call	0x1d88	; 0x1d88 <handle_serial_input>
    1b26:	03 c0       	rjmp	.+6      	; 0x1b2e <serial_com_task+0x192>
			}
			else
			{
				RTS = true; //breakpoint
    1b28:	81 e0       	ldi	r24, 0x01	; 1
    1b2a:	80 93 1f 01 	sts	0x011F, r24	; 0x80011f <RTS>

			}
			//Make ready for next frame
			frame[0] = 0;
    1b2e:	1c 82       	std	Y+4, r1	; 0x04
			frame_size = 0;
    1b30:	ce 01       	movw	r24, r28
    1b32:	88 59       	subi	r24, 0x98	; 152
    1b34:	9f 4f       	sbci	r25, 0xFF	; 255
    1b36:	fc 01       	movw	r30, r24
    1b38:	10 82       	st	Z, r1
		}


		if(RTS)
    1b3a:	80 91 1f 01 	lds	r24, 0x011F	; 0x80011f <RTS>
    1b3e:	88 23       	and	r24, r24
    1b40:	89 f0       	breq	.+34     	; 0x1b64 <serial_com_task+0x1c8>
		{
			//Get the next frame
			if(get_frame_from_queue(com_send_frame_buffer, last_sent_frame, MAX_FRAME_SIZE, &last_sent_frame_size))
    1b42:	80 91 89 01 	lds	r24, 0x0189	; 0x800189 <com_send_frame_buffer>
    1b46:	90 91 8a 01 	lds	r25, 0x018A	; 0x80018a <com_send_frame_buffer+0x1>
    1b4a:	21 ef       	ldi	r18, 0xF1	; 241
    1b4c:	31 e0       	ldi	r19, 0x01	; 1
    1b4e:	44 e6       	ldi	r20, 0x64	; 100
    1b50:	6d e8       	ldi	r22, 0x8D	; 141
    1b52:	71 e0       	ldi	r23, 0x01	; 1
    1b54:	0e 94 39 0c 	call	0x1872	; 0x1872 <get_frame_from_queue>
    1b58:	88 23       	and	r24, r24
    1b5a:	09 f4       	brne	.+2      	; 0x1b5e <serial_com_task+0x1c2>
    1b5c:	5f cf       	rjmp	.-322    	; 0x1a1c <serial_com_task+0x80>
			{
				send_current_frame();
    1b5e:	0e 94 d7 0d 	call	0x1bae	; 0x1bae <send_current_frame>
    1b62:	5c cf       	rjmp	.-328    	; 0x1a1c <serial_com_task+0x80>
			}
		}
		else
		{
			if ((xTaskGetTickCount() - last_frame_time) >= ACK_TIMEOUT)
    1b64:	0e 94 e3 21 	call	0x43c6	; 0x43c6 <xTaskGetTickCount>
    1b68:	9c 01       	movw	r18, r24
    1b6a:	80 91 f2 01 	lds	r24, 0x01F2	; 0x8001f2 <last_frame_time>
    1b6e:	90 91 f3 01 	lds	r25, 0x01F3	; 0x8001f3 <last_frame_time+0x1>
    1b72:	a9 01       	movw	r20, r18
    1b74:	48 1b       	sub	r20, r24
    1b76:	59 0b       	sbc	r21, r25
    1b78:	ca 01       	movw	r24, r20
    1b7a:	84 36       	cpi	r24, 0x64	; 100
    1b7c:	91 05       	cpc	r25, r1
    1b7e:	08 f4       	brcc	.+2      	; 0x1b82 <serial_com_task+0x1e6>
    1b80:	4d cf       	rjmp	.-358    	; 0x1a1c <serial_com_task+0x80>
			{
				ack_timeouts++; //could overflow but thats probably low-risk
    1b82:	80 91 f4 01 	lds	r24, 0x01F4	; 0x8001f4 <ack_timeouts>
    1b86:	8f 5f       	subi	r24, 0xFF	; 255
    1b88:	80 93 f4 01 	sts	0x01F4, r24	; 0x8001f4 <ack_timeouts>
				if(ack_timeouts <= MAX_CONSECUTIVE_ACK_TIMEOUTS)
    1b8c:	80 91 f4 01 	lds	r24, 0x01F4	; 0x8001f4 <ack_timeouts>
    1b90:	86 30       	cpi	r24, 0x06	; 6
    1b92:	18 f4       	brcc	.+6      	; 0x1b9a <serial_com_task+0x1fe>
				{
					send_current_frame(); //resend
    1b94:	0e 94 d7 0d 	call	0x1bae	; 0x1bae <send_current_frame>
    1b98:	41 cf       	rjmp	.-382    	; 0x1a1c <serial_com_task+0x80>
				}
				else
				{
					//Remote end seems to be refusing to send acks, will just continue sending data then..
					RTS = true;
    1b9a:	81 e0       	ldi	r24, 0x01	; 1
    1b9c:	80 93 1f 01 	sts	0x011F, r24	; 0x80011f <RTS>
					last_sent_frame[0] = 0;
    1ba0:	10 92 8d 01 	sts	0x018D, r1	; 0x80018d <last_sent_frame>
					last_sent_frame_size = 0;
    1ba4:	10 92 f1 01 	sts	0x01F1, r1	; 0x8001f1 <last_sent_frame_size>
					ack_timeouts = 0;
    1ba8:	10 92 f4 01 	sts	0x01F4, r1	; 0x8001f4 <ack_timeouts>
				}
			}
		}
	}
    1bac:	37 cf       	rjmp	.-402    	; 0x1a1c <serial_com_task+0x80>

00001bae <send_current_frame>:
}
void send_current_frame()
{
    1bae:	cf 93       	push	r28
    1bb0:	df 93       	push	r29
    1bb2:	1f 92       	push	r1
    1bb4:	cd b7       	in	r28, 0x3d	; 61
    1bb6:	de b7       	in	r29, 0x3e	; 62
	if(last_sent_frame_size)
    1bb8:	80 91 f1 01 	lds	r24, 0x01F1	; 0x8001f1 <last_sent_frame_size>
    1bbc:	88 23       	and	r24, r24
    1bbe:	39 f1       	breq	.+78     	; 0x1c0e <send_current_frame+0x60>
	{
		//Send it
		for(uint8_t i = 0; i < last_sent_frame_size;)
    1bc0:	19 82       	std	Y+1, r1	; 0x01
    1bc2:	13 c0       	rjmp	.+38     	; 0x1bea <send_current_frame+0x3c>
		{
			if(com_send_byte(last_sent_frame[i]) == BUFFER_OK)
    1bc4:	89 81       	ldd	r24, Y+1	; 0x01
    1bc6:	88 2f       	mov	r24, r24
    1bc8:	90 e0       	ldi	r25, 0x00	; 0
    1bca:	83 57       	subi	r24, 0x73	; 115
    1bcc:	9e 4f       	sbci	r25, 0xFE	; 254
    1bce:	fc 01       	movw	r30, r24
    1bd0:	80 81       	ld	r24, Z
    1bd2:	0e 94 93 0f 	call	0x1f26	; 0x1f26 <com_send_byte>
    1bd6:	88 23       	and	r24, r24
    1bd8:	21 f4       	brne	.+8      	; 0x1be2 <send_current_frame+0x34>
			i++; //continue to next byte
    1bda:	89 81       	ldd	r24, Y+1	; 0x01
    1bdc:	8f 5f       	subi	r24, 0xFF	; 255
    1bde:	89 83       	std	Y+1, r24	; 0x01
    1be0:	04 c0       	rjmp	.+8      	; 0x1bea <send_current_frame+0x3c>
			else
			vTaskDelay(COM_BUFFER_FULL_DELAY); //Wait a bit and retry
    1be2:	81 e0       	ldi	r24, 0x01	; 1
    1be4:	90 e0       	ldi	r25, 0x00	; 0
    1be6:	0e 94 e7 20 	call	0x41ce	; 0x41ce <vTaskDelay>
void send_current_frame()
{
	if(last_sent_frame_size)
	{
		//Send it
		for(uint8_t i = 0; i < last_sent_frame_size;)
    1bea:	80 91 f1 01 	lds	r24, 0x01F1	; 0x8001f1 <last_sent_frame_size>
    1bee:	99 81       	ldd	r25, Y+1	; 0x01
    1bf0:	98 17       	cp	r25, r24
    1bf2:	40 f3       	brcs	.-48     	; 0x1bc4 <send_current_frame+0x16>
			if(com_send_byte(last_sent_frame[i]) == BUFFER_OK)
			i++; //continue to next byte
			else
			vTaskDelay(COM_BUFFER_FULL_DELAY); //Wait a bit and retry
		}
		last_frame_time = xTaskGetTickCount();
    1bf4:	0e 94 e3 21 	call	0x43c6	; 0x43c6 <xTaskGetTickCount>
    1bf8:	90 93 f3 01 	sts	0x01F3, r25	; 0x8001f3 <last_frame_time+0x1>
    1bfc:	80 93 f2 01 	sts	0x01F2, r24	; 0x8001f2 <last_frame_time>
		RTS = is_ack_frame(last_sent_frame, MIN_FRAME_SIZE); //Only dataframes require us to wait for acks
    1c00:	64 e0       	ldi	r22, 0x04	; 4
    1c02:	8d e8       	ldi	r24, 0x8D	; 141
    1c04:	91 e0       	ldi	r25, 0x01	; 1
    1c06:	0e 94 13 0c 	call	0x1826	; 0x1826 <is_ack_frame>
    1c0a:	80 93 1f 01 	sts	0x011F, r24	; 0x80011f <RTS>
	}
}
    1c0e:	00 00       	nop
    1c10:	0f 90       	pop	r0
    1c12:	df 91       	pop	r29
    1c14:	cf 91       	pop	r28
    1c16:	08 95       	ret

00001c18 <count_illegal_chars>:
uint8_t count_illegal_chars(uint8_t *byte_buffer, uint8_t buffer_size)
{
    1c18:	cf 93       	push	r28
    1c1a:	df 93       	push	r29
    1c1c:	00 d0       	rcall	.+0      	; 0x1c1e <count_illegal_chars+0x6>
    1c1e:	00 d0       	rcall	.+0      	; 0x1c20 <count_illegal_chars+0x8>
    1c20:	1f 92       	push	r1
    1c22:	cd b7       	in	r28, 0x3d	; 61
    1c24:	de b7       	in	r29, 0x3e	; 62
    1c26:	9c 83       	std	Y+4, r25	; 0x04
    1c28:	8b 83       	std	Y+3, r24	; 0x03
    1c2a:	6d 83       	std	Y+5, r22	; 0x05
	uint8_t c = 0;
    1c2c:	19 82       	std	Y+1, r1	; 0x01
	for(uint8_t i = 0; i < buffer_size; i++)
    1c2e:	1a 82       	std	Y+2, r1	; 0x02
    1c30:	17 c0       	rjmp	.+46     	; 0x1c60 <count_illegal_chars+0x48>
	{
		if((*byte_buffer == LINK_FLAG) || (*byte_buffer == LINK_ESC))
    1c32:	8b 81       	ldd	r24, Y+3	; 0x03
    1c34:	9c 81       	ldd	r25, Y+4	; 0x04
    1c36:	fc 01       	movw	r30, r24
    1c38:	80 81       	ld	r24, Z
    1c3a:	8f 3f       	cpi	r24, 0xFF	; 255
    1c3c:	31 f0       	breq	.+12     	; 0x1c4a <count_illegal_chars+0x32>
    1c3e:	8b 81       	ldd	r24, Y+3	; 0x03
    1c40:	9c 81       	ldd	r25, Y+4	; 0x04
    1c42:	fc 01       	movw	r30, r24
    1c44:	80 81       	ld	r24, Z
    1c46:	88 23       	and	r24, r24
    1c48:	19 f4       	brne	.+6      	; 0x1c50 <count_illegal_chars+0x38>
		c++;
    1c4a:	89 81       	ldd	r24, Y+1	; 0x01
    1c4c:	8f 5f       	subi	r24, 0xFF	; 255
    1c4e:	89 83       	std	Y+1, r24	; 0x01

		byte_buffer++;
    1c50:	8b 81       	ldd	r24, Y+3	; 0x03
    1c52:	9c 81       	ldd	r25, Y+4	; 0x04
    1c54:	01 96       	adiw	r24, 0x01	; 1
    1c56:	9c 83       	std	Y+4, r25	; 0x04
    1c58:	8b 83       	std	Y+3, r24	; 0x03
	}
}
uint8_t count_illegal_chars(uint8_t *byte_buffer, uint8_t buffer_size)
{
	uint8_t c = 0;
	for(uint8_t i = 0; i < buffer_size; i++)
    1c5a:	8a 81       	ldd	r24, Y+2	; 0x02
    1c5c:	8f 5f       	subi	r24, 0xFF	; 255
    1c5e:	8a 83       	std	Y+2, r24	; 0x02
    1c60:	9a 81       	ldd	r25, Y+2	; 0x02
    1c62:	8d 81       	ldd	r24, Y+5	; 0x05
    1c64:	98 17       	cp	r25, r24
    1c66:	28 f3       	brcs	.-54     	; 0x1c32 <count_illegal_chars+0x1a>
		if((*byte_buffer == LINK_FLAG) || (*byte_buffer == LINK_ESC))
		c++;

		byte_buffer++;
	}
	return c;
    1c68:	89 81       	ldd	r24, Y+1	; 0x01
}
    1c6a:	0f 90       	pop	r0
    1c6c:	0f 90       	pop	r0
    1c6e:	0f 90       	pop	r0
    1c70:	0f 90       	pop	r0
    1c72:	0f 90       	pop	r0
    1c74:	df 91       	pop	r29
    1c76:	cf 91       	pop	r28
    1c78:	08 95       	ret

00001c7a <send_bytes>:
bool send_bytes(uint8_t *byte_buffer, uint8_t buffer_size)
{
    1c7a:	cf 93       	push	r28
    1c7c:	df 93       	push	r29
    1c7e:	cd b7       	in	r28, 0x3d	; 61
    1c80:	de b7       	in	r29, 0x3e	; 62
    1c82:	27 97       	sbiw	r28, 0x07	; 7
    1c84:	0f b6       	in	r0, 0x3f	; 63
    1c86:	f8 94       	cli
    1c88:	de bf       	out	0x3e, r29	; 62
    1c8a:	0f be       	out	0x3f, r0	; 63
    1c8c:	cd bf       	out	0x3d, r28	; 61
    1c8e:	9e 83       	std	Y+6, r25	; 0x06
    1c90:	8d 83       	std	Y+5, r24	; 0x05
    1c92:	6f 83       	std	Y+7, r22	; 0x07
	if (buffer_size > MAX_PAYLOAD_SIZE)
	return false;
	uint8_t *frame;
	uint8_t frame_size = buffer_size + FRAME_OVERHEAD + (count_illegal_chars(byte_buffer, buffer_size) * 2);
    1c94:	8d 81       	ldd	r24, Y+5	; 0x05
    1c96:	9e 81       	ldd	r25, Y+6	; 0x06
    1c98:	6f 81       	ldd	r22, Y+7	; 0x07
    1c9a:	0e 94 0c 0e 	call	0x1c18	; 0x1c18 <count_illegal_chars>
    1c9e:	98 2f       	mov	r25, r24
    1ca0:	99 0f       	add	r25, r25
    1ca2:	8f 81       	ldd	r24, Y+7	; 0x07
    1ca4:	89 0f       	add	r24, r25
    1ca6:	8c 5f       	subi	r24, 0xFC	; 252
    1ca8:	89 83       	std	Y+1, r24	; 0x01
	if(frame_size > MAX_FRAME_SIZE)
    1caa:	89 81       	ldd	r24, Y+1	; 0x01
    1cac:	85 36       	cpi	r24, 0x65	; 101
    1cae:	10 f0       	brcs	.+4      	; 0x1cb4 <send_bytes+0x3a>
	frame_size = MAX_FRAME_SIZE;
    1cb0:	84 e6       	ldi	r24, 0x64	; 100
    1cb2:	89 83       	std	Y+1, r24	; 0x01
	
	frame = pvPortMalloc(frame_size);
    1cb4:	89 81       	ldd	r24, Y+1	; 0x01
    1cb6:	88 2f       	mov	r24, r24
    1cb8:	90 e0       	ldi	r25, 0x00	; 0
    1cba:	0e 94 e0 17 	call	0x2fc0	; 0x2fc0 <pvPortMalloc>
    1cbe:	9c 83       	std	Y+4, r25	; 0x04
    1cc0:	8b 83       	std	Y+3, r24	; 0x03
	if(!frame)
    1cc2:	8b 81       	ldd	r24, Y+3	; 0x03
    1cc4:	9c 81       	ldd	r25, Y+4	; 0x04
    1cc6:	89 2b       	or	r24, r25
    1cc8:	11 f4       	brne	.+4      	; 0x1cce <send_bytes+0x54>
	return false;
    1cca:	80 e0       	ldi	r24, 0x00	; 0
    1ccc:	54 c0       	rjmp	.+168    	; 0x1d76 <send_bytes+0xfc>
	frame_size = get_data_frame(frame, frame_size, byte_buffer, buffer_size);
    1cce:	4d 81       	ldd	r20, Y+5	; 0x05
    1cd0:	5e 81       	ldd	r21, Y+6	; 0x06
    1cd2:	8b 81       	ldd	r24, Y+3	; 0x03
    1cd4:	9c 81       	ldd	r25, Y+4	; 0x04
    1cd6:	2f 81       	ldd	r18, Y+7	; 0x07
    1cd8:	69 81       	ldd	r22, Y+1	; 0x01
    1cda:	0e 94 be 0a 	call	0x157c	; 0x157c <get_data_frame>
    1cde:	89 83       	std	Y+1, r24	; 0x01
	if (frame_size)
    1ce0:	89 81       	ldd	r24, Y+1	; 0x01
    1ce2:	88 23       	and	r24, r24
    1ce4:	09 f4       	brne	.+2      	; 0x1ce8 <send_bytes+0x6e>
    1ce6:	42 c0       	rjmp	.+132    	; 0x1d6c <send_bytes+0xf2>
	{
		if (uxQueueSpacesAvailable(com_send_frame_buffer) >= frame_size)
    1ce8:	80 91 89 01 	lds	r24, 0x0189	; 0x800189 <com_send_frame_buffer>
    1cec:	90 91 8a 01 	lds	r25, 0x018A	; 0x80018a <com_send_frame_buffer+0x1>
    1cf0:	0e 94 aa 1c 	call	0x3954	; 0x3954 <uxQueueSpacesAvailable>
    1cf4:	98 2f       	mov	r25, r24
    1cf6:	89 81       	ldd	r24, Y+1	; 0x01
    1cf8:	98 17       	cp	r25, r24
    1cfa:	c0 f1       	brcs	.+112    	; 0x1d6c <send_bytes+0xf2>
		{
			if(xSemaphoreTake(com_send_queue_add_sem, 50))
    1cfc:	80 91 8b 01 	lds	r24, 0x018B	; 0x80018b <com_send_queue_add_sem>
    1d00:	90 91 8c 01 	lds	r25, 0x018C	; 0x80018c <com_send_queue_add_sem+0x1>
    1d04:	20 e0       	ldi	r18, 0x00	; 0
    1d06:	42 e3       	ldi	r20, 0x32	; 50
    1d08:	50 e0       	ldi	r21, 0x00	; 0
    1d0a:	60 e0       	ldi	r22, 0x00	; 0
    1d0c:	70 e0       	ldi	r23, 0x00	; 0
    1d0e:	0e 94 b4 1b 	call	0x3768	; 0x3768 <xQueueGenericReceive>
    1d12:	88 23       	and	r24, r24
    1d14:	d1 f0       	breq	.+52     	; 0x1d4a <send_bytes+0xd0>
			for (uint8_t i = 0; i < frame_size; i++)
    1d16:	1a 82       	std	Y+2, r1	; 0x02
    1d18:	14 c0       	rjmp	.+40     	; 0x1d42 <send_bytes+0xc8>
			{
				xQueueSend(com_send_frame_buffer, frame+i, 0);
    1d1a:	8a 81       	ldd	r24, Y+2	; 0x02
    1d1c:	88 2f       	mov	r24, r24
    1d1e:	90 e0       	ldi	r25, 0x00	; 0
    1d20:	2b 81       	ldd	r18, Y+3	; 0x03
    1d22:	3c 81       	ldd	r19, Y+4	; 0x04
    1d24:	b9 01       	movw	r22, r18
    1d26:	68 0f       	add	r22, r24
    1d28:	79 1f       	adc	r23, r25
    1d2a:	80 91 89 01 	lds	r24, 0x0189	; 0x800189 <com_send_frame_buffer>
    1d2e:	90 91 8a 01 	lds	r25, 0x018A	; 0x80018a <com_send_frame_buffer+0x1>
    1d32:	20 e0       	ldi	r18, 0x00	; 0
    1d34:	40 e0       	ldi	r20, 0x00	; 0
    1d36:	50 e0       	ldi	r21, 0x00	; 0
    1d38:	0e 94 a4 1a 	call	0x3548	; 0x3548 <xQueueGenericSend>
	if (frame_size)
	{
		if (uxQueueSpacesAvailable(com_send_frame_buffer) >= frame_size)
		{
			if(xSemaphoreTake(com_send_queue_add_sem, 50))
			for (uint8_t i = 0; i < frame_size; i++)
    1d3c:	8a 81       	ldd	r24, Y+2	; 0x02
    1d3e:	8f 5f       	subi	r24, 0xFF	; 255
    1d40:	8a 83       	std	Y+2, r24	; 0x02
    1d42:	9a 81       	ldd	r25, Y+2	; 0x02
    1d44:	89 81       	ldd	r24, Y+1	; 0x01
    1d46:	98 17       	cp	r25, r24
    1d48:	40 f3       	brcs	.-48     	; 0x1d1a <send_bytes+0xa0>
			{
				xQueueSend(com_send_frame_buffer, frame+i, 0);
			}
			xSemaphoreGive(com_send_queue_add_sem);
    1d4a:	80 91 8b 01 	lds	r24, 0x018B	; 0x80018b <com_send_queue_add_sem>
    1d4e:	90 91 8c 01 	lds	r25, 0x018C	; 0x80018c <com_send_queue_add_sem+0x1>
    1d52:	20 e0       	ldi	r18, 0x00	; 0
    1d54:	40 e0       	ldi	r20, 0x00	; 0
    1d56:	50 e0       	ldi	r21, 0x00	; 0
    1d58:	60 e0       	ldi	r22, 0x00	; 0
    1d5a:	70 e0       	ldi	r23, 0x00	; 0
    1d5c:	0e 94 a4 1a 	call	0x3548	; 0x3548 <xQueueGenericSend>
			vPortFree(frame);
    1d60:	8b 81       	ldd	r24, Y+3	; 0x03
    1d62:	9c 81       	ldd	r25, Y+4	; 0x04
    1d64:	0e 94 d5 18 	call	0x31aa	; 0x31aa <vPortFree>
			return true;
    1d68:	81 e0       	ldi	r24, 0x01	; 1
    1d6a:	05 c0       	rjmp	.+10     	; 0x1d76 <send_bytes+0xfc>
		}
	}
	vPortFree(frame);
    1d6c:	8b 81       	ldd	r24, Y+3	; 0x03
    1d6e:	9c 81       	ldd	r25, Y+4	; 0x04
    1d70:	0e 94 d5 18 	call	0x31aa	; 0x31aa <vPortFree>
	return false;
    1d74:	80 e0       	ldi	r24, 0x00	; 0
}
    1d76:	27 96       	adiw	r28, 0x07	; 7
    1d78:	0f b6       	in	r0, 0x3f	; 63
    1d7a:	f8 94       	cli
    1d7c:	de bf       	out	0x3e, r29	; 62
    1d7e:	0f be       	out	0x3f, r0	; 63
    1d80:	cd bf       	out	0x3d, r28	; 61
    1d82:	df 91       	pop	r29
    1d84:	cf 91       	pop	r28
    1d86:	08 95       	ret

00001d88 <handle_serial_input>:

void handle_serial_input(uint8_t *buffer, uint8_t length)
{
    1d88:	cf 93       	push	r28
    1d8a:	df 93       	push	r29
    1d8c:	00 d0       	rcall	.+0      	; 0x1d8e <handle_serial_input+0x6>
    1d8e:	1f 92       	push	r1
    1d90:	cd b7       	in	r28, 0x3d	; 61
    1d92:	de b7       	in	r29, 0x3e	; 62
    1d94:	9a 83       	std	Y+2, r25	; 0x02
    1d96:	89 83       	std	Y+1, r24	; 0x01
    1d98:	6b 83       	std	Y+3, r22	; 0x03
	if(length == 1)
    1d9a:	8b 81       	ldd	r24, Y+3	; 0x03
    1d9c:	81 30       	cpi	r24, 0x01	; 1
    1d9e:	a9 f4       	brne	.+42     	; 0x1dca <handle_serial_input+0x42>
	{ //keyboard input
		if(*buffer == 0x26)
    1da0:	89 81       	ldd	r24, Y+1	; 0x01
    1da2:	9a 81       	ldd	r25, Y+2	; 0x02
    1da4:	fc 01       	movw	r30, r24
    1da6:	80 81       	ld	r24, Z
    1da8:	86 32       	cpi	r24, 0x26	; 38
    1daa:	29 f4       	brne	.+10     	; 0x1db6 <handle_serial_input+0x2e>
		bat_move(PL_TWO, D_UP);
    1dac:	62 e0       	ldi	r22, 0x02	; 2
    1dae:	81 e0       	ldi	r24, 0x01	; 1
    1db0:	0e 94 8d 01 	call	0x31a	; 0x31a <bat_move>
		
		else if(*buffer == 0x28)
		bat_move(PL_TWO, D_DOWN);
	}
    1db4:	0a c0       	rjmp	.+20     	; 0x1dca <handle_serial_input+0x42>
	if(length == 1)
	{ //keyboard input
		if(*buffer == 0x26)
		bat_move(PL_TWO, D_UP);
		
		else if(*buffer == 0x28)
    1db6:	89 81       	ldd	r24, Y+1	; 0x01
    1db8:	9a 81       	ldd	r25, Y+2	; 0x02
    1dba:	fc 01       	movw	r30, r24
    1dbc:	80 81       	ld	r24, Z
    1dbe:	88 32       	cpi	r24, 0x28	; 40
    1dc0:	21 f4       	brne	.+8      	; 0x1dca <handle_serial_input+0x42>
		bat_move(PL_TWO, D_DOWN);
    1dc2:	61 e0       	ldi	r22, 0x01	; 1
    1dc4:	81 e0       	ldi	r24, 0x01	; 1
    1dc6:	0e 94 8d 01 	call	0x31a	; 0x31a <bat_move>
	}
    1dca:	00 00       	nop
    1dcc:	0f 90       	pop	r0
    1dce:	0f 90       	pop	r0
    1dd0:	0f 90       	pop	r0
    1dd2:	df 91       	pop	r29
    1dd4:	cf 91       	pop	r28
    1dd6:	08 95       	ret

00001dd8 <_com_call_back>:
    1dd8:	cf 93       	push	r28
    1dda:	df 93       	push	r29
    1ddc:	00 d0       	rcall	.+0      	; 0x1dde <_com_call_back+0x6>
    1dde:	00 d0       	rcall	.+0      	; 0x1de0 <_com_call_back+0x8>
    1de0:	cd b7       	in	r28, 0x3d	; 61
    1de2:	de b7       	in	r29, 0x3e	; 62
    1de4:	9b 83       	std	Y+3, r25	; 0x03
    1de6:	8a 83       	std	Y+2, r24	; 0x02
    1de8:	6c 83       	std	Y+4, r22	; 0x04
    1dea:	80 91 f7 01 	lds	r24, 0x01F7	; 0x8001f7 <_x_rx_com_queue>
    1dee:	90 91 f8 01 	lds	r25, 0x01F8	; 0x8001f8 <_x_rx_com_queue+0x1>
    1df2:	89 2b       	or	r24, r25
    1df4:	99 f0       	breq	.+38     	; 0x1e1c <_com_call_back+0x44>
    1df6:	19 82       	std	Y+1, r1	; 0x01
    1df8:	80 91 f7 01 	lds	r24, 0x01F7	; 0x8001f7 <_x_rx_com_queue>
    1dfc:	90 91 f8 01 	lds	r25, 0x01F8	; 0x8001f8 <_x_rx_com_queue+0x1>
    1e00:	be 01       	movw	r22, r28
    1e02:	6c 5f       	subi	r22, 0xFC	; 252
    1e04:	7f 4f       	sbci	r23, 0xFF	; 255
    1e06:	20 e0       	ldi	r18, 0x00	; 0
    1e08:	ae 01       	movw	r20, r28
    1e0a:	4f 5f       	subi	r20, 0xFF	; 255
    1e0c:	5f 4f       	sbci	r21, 0xFF	; 255
    1e0e:	0e 94 55 1b 	call	0x36aa	; 0x36aa <xQueueGenericSendFromISR>
    1e12:	89 81       	ldd	r24, Y+1	; 0x01
    1e14:	88 23       	and	r24, r24
    1e16:	11 f0       	breq	.+4      	; 0x1e1c <_com_call_back+0x44>
    1e18:	0e 94 56 14 	call	0x28ac	; 0x28ac <vPortYield>
    1e1c:	00 00       	nop
    1e1e:	0f 90       	pop	r0
    1e20:	0f 90       	pop	r0
    1e22:	0f 90       	pop	r0
    1e24:	0f 90       	pop	r0
    1e26:	df 91       	pop	r29
    1e28:	cf 91       	pop	r28
    1e2a:	08 95       	ret

00001e2c <init_com>:
    1e2c:	cf 93       	push	r28
    1e2e:	df 93       	push	r29
    1e30:	00 d0       	rcall	.+0      	; 0x1e32 <init_com+0x6>
    1e32:	cd b7       	in	r28, 0x3d	; 61
    1e34:	de b7       	in	r29, 0x3e	; 62
    1e36:	9a 83       	std	Y+2, r25	; 0x02
    1e38:	89 83       	std	Y+1, r24	; 0x01
    1e3a:	89 81       	ldd	r24, Y+1	; 0x01
    1e3c:	9a 81       	ldd	r25, Y+2	; 0x02
    1e3e:	90 93 f8 01 	sts	0x01F8, r25	; 0x8001f8 <_x_rx_com_queue+0x1>
    1e42:	80 93 f7 01 	sts	0x01F7, r24	; 0x8001f7 <_x_rx_com_queue>
    1e46:	00 00       	nop
    1e48:	0f 90       	pop	r0
    1e4a:	0f 90       	pop	r0
    1e4c:	df 91       	pop	r29
    1e4e:	cf 91       	pop	r28
    1e50:	08 95       	ret

00001e52 <init_display_timer>:
    1e52:	cf 93       	push	r28
    1e54:	df 93       	push	r29
    1e56:	00 d0       	rcall	.+0      	; 0x1e58 <init_display_timer+0x6>
    1e58:	cd b7       	in	r28, 0x3d	; 61
    1e5a:	de b7       	in	r29, 0x3e	; 62
    1e5c:	9a 83       	std	Y+2, r25	; 0x02
    1e5e:	89 83       	std	Y+1, r24	; 0x01
    1e60:	89 81       	ldd	r24, Y+1	; 0x01
    1e62:	9a 81       	ldd	r25, Y+2	; 0x02
    1e64:	90 93 fa 01 	sts	0x01FA, r25	; 0x8001fa <cb_ptr+0x1>
    1e68:	80 93 f9 01 	sts	0x01F9, r24	; 0x8001f9 <cb_ptr>
    1e6c:	87 e4       	ldi	r24, 0x47	; 71
    1e6e:	90 e0       	ldi	r25, 0x00	; 0
    1e70:	2a e0       	ldi	r18, 0x0A	; 10
    1e72:	fc 01       	movw	r30, r24
    1e74:	20 83       	st	Z, r18
    1e76:	84 e4       	ldi	r24, 0x44	; 68
    1e78:	90 e0       	ldi	r25, 0x00	; 0
    1e7a:	24 e4       	ldi	r18, 0x44	; 68
    1e7c:	30 e0       	ldi	r19, 0x00	; 0
    1e7e:	f9 01       	movw	r30, r18
    1e80:	20 81       	ld	r18, Z
    1e82:	22 60       	ori	r18, 0x02	; 2
    1e84:	fc 01       	movw	r30, r24
    1e86:	20 83       	st	Z, r18
    1e88:	8e e6       	ldi	r24, 0x6E	; 110
    1e8a:	90 e0       	ldi	r25, 0x00	; 0
    1e8c:	2e e6       	ldi	r18, 0x6E	; 110
    1e8e:	30 e0       	ldi	r19, 0x00	; 0
    1e90:	f9 01       	movw	r30, r18
    1e92:	20 81       	ld	r18, Z
    1e94:	22 60       	ori	r18, 0x02	; 2
    1e96:	fc 01       	movw	r30, r24
    1e98:	20 83       	st	Z, r18
    1e9a:	85 e4       	ldi	r24, 0x45	; 69
    1e9c:	90 e0       	ldi	r25, 0x00	; 0
    1e9e:	25 e4       	ldi	r18, 0x45	; 69
    1ea0:	30 e0       	ldi	r19, 0x00	; 0
    1ea2:	f9 01       	movw	r30, r18
    1ea4:	20 81       	ld	r18, Z
    1ea6:	25 60       	ori	r18, 0x05	; 5
    1ea8:	fc 01       	movw	r30, r24
    1eaa:	20 83       	st	Z, r18
    1eac:	00 00       	nop
    1eae:	0f 90       	pop	r0
    1eb0:	0f 90       	pop	r0
    1eb2:	df 91       	pop	r29
    1eb4:	cf 91       	pop	r28
    1eb6:	08 95       	ret

00001eb8 <__vector_16>:
    1eb8:	1f 92       	push	r1
    1eba:	0f 92       	push	r0
    1ebc:	00 90 5f 00 	lds	r0, 0x005F	; 0x80005f <__TEXT_REGION_LENGTH__+0x7e005f>
    1ec0:	0f 92       	push	r0
    1ec2:	11 24       	eor	r1, r1
    1ec4:	2f 93       	push	r18
    1ec6:	3f 93       	push	r19
    1ec8:	4f 93       	push	r20
    1eca:	5f 93       	push	r21
    1ecc:	6f 93       	push	r22
    1ece:	7f 93       	push	r23
    1ed0:	8f 93       	push	r24
    1ed2:	9f 93       	push	r25
    1ed4:	af 93       	push	r26
    1ed6:	bf 93       	push	r27
    1ed8:	ef 93       	push	r30
    1eda:	ff 93       	push	r31
    1edc:	cf 93       	push	r28
    1ede:	df 93       	push	r29
    1ee0:	cd b7       	in	r28, 0x3d	; 61
    1ee2:	de b7       	in	r29, 0x3e	; 62
    1ee4:	80 91 f9 01 	lds	r24, 0x01F9	; 0x8001f9 <cb_ptr>
    1ee8:	90 91 fa 01 	lds	r25, 0x01FA	; 0x8001fa <cb_ptr+0x1>
    1eec:	89 2b       	or	r24, r25
    1eee:	31 f0       	breq	.+12     	; 0x1efc <__vector_16+0x44>
    1ef0:	80 91 f9 01 	lds	r24, 0x01F9	; 0x8001f9 <cb_ptr>
    1ef4:	90 91 fa 01 	lds	r25, 0x01FA	; 0x8001fa <cb_ptr+0x1>
    1ef8:	fc 01       	movw	r30, r24
    1efa:	09 95       	icall
    1efc:	00 00       	nop
    1efe:	df 91       	pop	r29
    1f00:	cf 91       	pop	r28
    1f02:	ff 91       	pop	r31
    1f04:	ef 91       	pop	r30
    1f06:	bf 91       	pop	r27
    1f08:	af 91       	pop	r26
    1f0a:	9f 91       	pop	r25
    1f0c:	8f 91       	pop	r24
    1f0e:	7f 91       	pop	r23
    1f10:	6f 91       	pop	r22
    1f12:	5f 91       	pop	r21
    1f14:	4f 91       	pop	r20
    1f16:	3f 91       	pop	r19
    1f18:	2f 91       	pop	r18
    1f1a:	0f 90       	pop	r0
    1f1c:	00 92 5f 00 	sts	0x005F, r0	; 0x80005f <__TEXT_REGION_LENGTH__+0x7e005f>
    1f20:	0f 90       	pop	r0
    1f22:	1f 90       	pop	r1
    1f24:	18 95       	reti

00001f26 <com_send_byte>:
    1f26:	cf 93       	push	r28
    1f28:	df 93       	push	r29
    1f2a:	1f 92       	push	r1
    1f2c:	cd b7       	in	r28, 0x3d	; 61
    1f2e:	de b7       	in	r29, 0x3e	; 62
    1f30:	89 83       	std	Y+1, r24	; 0x01
    1f32:	80 91 f5 01 	lds	r24, 0x01F5	; 0x8001f5 <_com_serial_instance>
    1f36:	90 91 f6 01 	lds	r25, 0x01F6	; 0x8001f6 <_com_serial_instance+0x1>
    1f3a:	69 81       	ldd	r22, Y+1	; 0x01
    1f3c:	0e 94 4e 16 	call	0x2c9c	; 0x2c9c <serial_send_byte>
    1f40:	0f 90       	pop	r0
    1f42:	df 91       	pop	r29
    1f44:	cf 91       	pop	r28
    1f46:	08 95       	ret

00001f48 <init_board>:
    1f48:	8f 92       	push	r8
    1f4a:	9f 92       	push	r9
    1f4c:	af 92       	push	r10
    1f4e:	bf 92       	push	r11
    1f50:	cf 92       	push	r12
    1f52:	df 92       	push	r13
    1f54:	ef 92       	push	r14
    1f56:	0f 93       	push	r16
    1f58:	cf 93       	push	r28
    1f5a:	df 93       	push	r29
    1f5c:	cd b7       	in	r28, 0x3d	; 61
    1f5e:	de b7       	in	r29, 0x3e	; 62
    1f60:	8b ef       	ldi	r24, 0xFB	; 251
    1f62:	91 e0       	ldi	r25, 0x01	; 1
    1f64:	0e 94 6e 10 	call	0x20dc	; 0x20dc <buffer_init>
    1f68:	8e e1       	ldi	r24, 0x1E	; 30
    1f6a:	92 e0       	ldi	r25, 0x02	; 2
    1f6c:	0e 94 6e 10 	call	0x20dc	; 0x20dc <buffer_init>
    1f70:	0f 2e       	mov	r0, r31
    1f72:	fc ee       	ldi	r31, 0xEC	; 236
    1f74:	8f 2e       	mov	r8, r31
    1f76:	fe e0       	ldi	r31, 0x0E	; 14
    1f78:	9f 2e       	mov	r9, r31
    1f7a:	f0 2d       	mov	r31, r0
    1f7c:	0f 2e       	mov	r0, r31
    1f7e:	fe e1       	ldi	r31, 0x1E	; 30
    1f80:	af 2e       	mov	r10, r31
    1f82:	f2 e0       	ldi	r31, 0x02	; 2
    1f84:	bf 2e       	mov	r11, r31
    1f86:	f0 2d       	mov	r31, r0
    1f88:	0f 2e       	mov	r0, r31
    1f8a:	fb ef       	ldi	r31, 0xFB	; 251
    1f8c:	cf 2e       	mov	r12, r31
    1f8e:	f1 e0       	ldi	r31, 0x01	; 1
    1f90:	df 2e       	mov	r13, r31
    1f92:	f0 2d       	mov	r31, r0
    1f94:	e1 2c       	mov	r14, r1
    1f96:	00 e0       	ldi	r16, 0x00	; 0
    1f98:	23 e0       	ldi	r18, 0x03	; 3
    1f9a:	40 e0       	ldi	r20, 0x00	; 0
    1f9c:	52 ec       	ldi	r21, 0xC2	; 194
    1f9e:	61 e0       	ldi	r22, 0x01	; 1
    1fa0:	70 e0       	ldi	r23, 0x00	; 0
    1fa2:	80 e0       	ldi	r24, 0x00	; 0
    1fa4:	0e 94 8d 15 	call	0x2b1a	; 0x2b1a <serial_new_instance>
    1fa8:	90 93 f6 01 	sts	0x01F6, r25	; 0x8001f6 <_com_serial_instance+0x1>
    1fac:	80 93 f5 01 	sts	0x01F5, r24	; 0x8001f5 <_com_serial_instance>
    1fb0:	87 e2       	ldi	r24, 0x27	; 39
    1fb2:	90 e0       	ldi	r25, 0x00	; 0
    1fb4:	27 e2       	ldi	r18, 0x27	; 39
    1fb6:	30 e0       	ldi	r19, 0x00	; 0
    1fb8:	f9 01       	movw	r30, r18
    1fba:	20 81       	ld	r18, Z
    1fbc:	2c 73       	andi	r18, 0x3C	; 60
    1fbe:	fc 01       	movw	r30, r24
    1fc0:	20 83       	st	Z, r18
    1fc2:	8a e2       	ldi	r24, 0x2A	; 42
    1fc4:	90 e0       	ldi	r25, 0x00	; 0
    1fc6:	2a e2       	ldi	r18, 0x2A	; 42
    1fc8:	30 e0       	ldi	r19, 0x00	; 0
    1fca:	f9 01       	movw	r30, r18
    1fcc:	20 81       	ld	r18, Z
    1fce:	27 7f       	andi	r18, 0xF7	; 247
    1fd0:	fc 01       	movw	r30, r24
    1fd2:	20 83       	st	Z, r18
    1fd4:	88 e2       	ldi	r24, 0x28	; 40
    1fd6:	90 e0       	ldi	r25, 0x00	; 0
    1fd8:	28 e2       	ldi	r18, 0x28	; 40
    1fda:	30 e0       	ldi	r19, 0x00	; 0
    1fdc:	f9 01       	movw	r30, r18
    1fde:	20 81       	ld	r18, Z
    1fe0:	23 6c       	ori	r18, 0xC3	; 195
    1fe2:	fc 01       	movw	r30, r24
    1fe4:	20 83       	st	Z, r18
    1fe6:	8b e2       	ldi	r24, 0x2B	; 43
    1fe8:	90 e0       	ldi	r25, 0x00	; 0
    1fea:	2b e2       	ldi	r18, 0x2B	; 43
    1fec:	30 e0       	ldi	r19, 0x00	; 0
    1fee:	f9 01       	movw	r30, r18
    1ff0:	20 81       	ld	r18, Z
    1ff2:	28 60       	ori	r18, 0x08	; 8
    1ff4:	fc 01       	movw	r30, r24
    1ff6:	20 83       	st	Z, r18
    1ff8:	8a e2       	ldi	r24, 0x2A	; 42
    1ffa:	90 e0       	ldi	r25, 0x00	; 0
    1ffc:	2a e2       	ldi	r18, 0x2A	; 42
    1ffe:	30 e0       	ldi	r19, 0x00	; 0
    2000:	f9 01       	movw	r30, r18
    2002:	20 81       	ld	r18, Z
    2004:	24 67       	ori	r18, 0x74	; 116
    2006:	fc 01       	movw	r30, r24
    2008:	20 83       	st	Z, r18
    200a:	8b e2       	ldi	r24, 0x2B	; 43
    200c:	90 e0       	ldi	r25, 0x00	; 0
    200e:	2b e2       	ldi	r18, 0x2B	; 43
    2010:	30 e0       	ldi	r19, 0x00	; 0
    2012:	f9 01       	movw	r30, r18
    2014:	20 81       	ld	r18, Z
    2016:	20 64       	ori	r18, 0x40	; 64
    2018:	fc 01       	movw	r30, r24
    201a:	20 83       	st	Z, r18
    201c:	81 e2       	ldi	r24, 0x21	; 33
    201e:	90 e0       	ldi	r25, 0x00	; 0
    2020:	fc 01       	movw	r30, r24
    2022:	80 81       	ld	r24, Z
    2024:	81 e2       	ldi	r24, 0x21	; 33
    2026:	90 e0       	ldi	r25, 0x00	; 0
    2028:	2f ef       	ldi	r18, 0xFF	; 255
    202a:	fc 01       	movw	r30, r24
    202c:	20 83       	st	Z, r18
    202e:	84 e2       	ldi	r24, 0x24	; 36
    2030:	90 e0       	ldi	r25, 0x00	; 0
    2032:	24 e2       	ldi	r18, 0x24	; 36
    2034:	30 e0       	ldi	r19, 0x00	; 0
    2036:	f9 01       	movw	r30, r18
    2038:	20 81       	ld	r18, Z
    203a:	23 60       	ori	r18, 0x03	; 3
    203c:	fc 01       	movw	r30, r24
    203e:	20 83       	st	Z, r18
    2040:	84 e2       	ldi	r24, 0x24	; 36
    2042:	90 e0       	ldi	r25, 0x00	; 0
    2044:	24 e2       	ldi	r18, 0x24	; 36
    2046:	30 e0       	ldi	r19, 0x00	; 0
    2048:	f9 01       	movw	r30, r18
    204a:	20 81       	ld	r18, Z
    204c:	2c 63       	ori	r18, 0x3C	; 60
    204e:	fc 01       	movw	r30, r24
    2050:	20 83       	st	Z, r18
    2052:	00 00       	nop
    2054:	df 91       	pop	r29
    2056:	cf 91       	pop	r28
    2058:	0f 91       	pop	r16
    205a:	ef 90       	pop	r14
    205c:	df 90       	pop	r13
    205e:	cf 90       	pop	r12
    2060:	bf 90       	pop	r11
    2062:	af 90       	pop	r10
    2064:	9f 90       	pop	r9
    2066:	8f 90       	pop	r8
    2068:	08 95       	ret

0000206a <switch_in>:
    206a:	cf 93       	push	r28
    206c:	df 93       	push	r29
    206e:	1f 92       	push	r1
    2070:	cd b7       	in	r28, 0x3d	; 61
    2072:	de b7       	in	r29, 0x3e	; 62
    2074:	89 83       	std	Y+1, r24	; 0x01
    2076:	85 e2       	ldi	r24, 0x25	; 37
    2078:	90 e0       	ldi	r25, 0x00	; 0
    207a:	25 e2       	ldi	r18, 0x25	; 37
    207c:	30 e0       	ldi	r19, 0x00	; 0
    207e:	f9 01       	movw	r30, r18
    2080:	20 81       	ld	r18, Z
    2082:	23 7c       	andi	r18, 0xC3	; 195
    2084:	fc 01       	movw	r30, r24
    2086:	20 83       	st	Z, r18
    2088:	85 e2       	ldi	r24, 0x25	; 37
    208a:	90 e0       	ldi	r25, 0x00	; 0
    208c:	25 e2       	ldi	r18, 0x25	; 37
    208e:	30 e0       	ldi	r19, 0x00	; 0
    2090:	f9 01       	movw	r30, r18
    2092:	20 81       	ld	r18, Z
    2094:	42 2f       	mov	r20, r18
    2096:	29 81       	ldd	r18, Y+1	; 0x01
    2098:	22 2f       	mov	r18, r18
    209a:	30 e0       	ldi	r19, 0x00	; 0
    209c:	22 0f       	add	r18, r18
    209e:	33 1f       	adc	r19, r19
    20a0:	22 0f       	add	r18, r18
    20a2:	33 1f       	adc	r19, r19
    20a4:	24 2b       	or	r18, r20
    20a6:	fc 01       	movw	r30, r24
    20a8:	20 83       	st	Z, r18
    20aa:	00 00       	nop
    20ac:	0f 90       	pop	r0
    20ae:	df 91       	pop	r29
    20b0:	cf 91       	pop	r28
    20b2:	08 95       	ret

000020b4 <switch_out>:
    20b4:	cf 93       	push	r28
    20b6:	df 93       	push	r29
    20b8:	1f 92       	push	r1
    20ba:	cd b7       	in	r28, 0x3d	; 61
    20bc:	de b7       	in	r29, 0x3e	; 62
    20be:	89 83       	std	Y+1, r24	; 0x01
    20c0:	85 e2       	ldi	r24, 0x25	; 37
    20c2:	90 e0       	ldi	r25, 0x00	; 0
    20c4:	25 e2       	ldi	r18, 0x25	; 37
    20c6:	30 e0       	ldi	r19, 0x00	; 0
    20c8:	f9 01       	movw	r30, r18
    20ca:	20 81       	ld	r18, Z
    20cc:	23 7c       	andi	r18, 0xC3	; 195
    20ce:	fc 01       	movw	r30, r24
    20d0:	20 83       	st	Z, r18
    20d2:	00 00       	nop
    20d4:	0f 90       	pop	r0
    20d6:	df 91       	pop	r29
    20d8:	cf 91       	pop	r28
    20da:	08 95       	ret

000020dc <buffer_init>:
    20dc:	cf 93       	push	r28
    20de:	df 93       	push	r29
    20e0:	00 d0       	rcall	.+0      	; 0x20e2 <buffer_init+0x6>
    20e2:	cd b7       	in	r28, 0x3d	; 61
    20e4:	de b7       	in	r29, 0x3e	; 62
    20e6:	9a 83       	std	Y+2, r25	; 0x02
    20e8:	89 83       	std	Y+1, r24	; 0x01
    20ea:	89 81       	ldd	r24, Y+1	; 0x01
    20ec:	9a 81       	ldd	r25, Y+2	; 0x02
    20ee:	fc 01       	movw	r30, r24
    20f0:	10 a2       	std	Z+32, r1	; 0x20
    20f2:	89 81       	ldd	r24, Y+1	; 0x01
    20f4:	9a 81       	ldd	r25, Y+2	; 0x02
    20f6:	fc 01       	movw	r30, r24
    20f8:	11 a2       	std	Z+33, r1	; 0x21
    20fa:	89 81       	ldd	r24, Y+1	; 0x01
    20fc:	9a 81       	ldd	r25, Y+2	; 0x02
    20fe:	fc 01       	movw	r30, r24
    2100:	12 a2       	std	Z+34, r1	; 0x22
    2102:	00 00       	nop
    2104:	0f 90       	pop	r0
    2106:	0f 90       	pop	r0
    2108:	df 91       	pop	r29
    210a:	cf 91       	pop	r28
    210c:	08 95       	ret

0000210e <buffer_get_item>:
    210e:	cf 93       	push	r28
    2110:	df 93       	push	r29
    2112:	00 d0       	rcall	.+0      	; 0x2114 <buffer_get_item+0x6>
    2114:	00 d0       	rcall	.+0      	; 0x2116 <buffer_get_item+0x8>
    2116:	cd b7       	in	r28, 0x3d	; 61
    2118:	de b7       	in	r29, 0x3e	; 62
    211a:	9a 83       	std	Y+2, r25	; 0x02
    211c:	89 83       	std	Y+1, r24	; 0x01
    211e:	7c 83       	std	Y+4, r23	; 0x04
    2120:	6b 83       	std	Y+3, r22	; 0x03
    2122:	89 81       	ldd	r24, Y+1	; 0x01
    2124:	9a 81       	ldd	r25, Y+2	; 0x02
    2126:	fc 01       	movw	r30, r24
    2128:	82 a1       	ldd	r24, Z+34	; 0x22
    212a:	88 23       	and	r24, r24
    212c:	81 f1       	breq	.+96     	; 0x218e <buffer_get_item+0x80>
    212e:	89 81       	ldd	r24, Y+1	; 0x01
    2130:	9a 81       	ldd	r25, Y+2	; 0x02
    2132:	fc 01       	movw	r30, r24
    2134:	81 a1       	ldd	r24, Z+33	; 0x21
    2136:	88 2f       	mov	r24, r24
    2138:	90 e0       	ldi	r25, 0x00	; 0
    213a:	29 81       	ldd	r18, Y+1	; 0x01
    213c:	3a 81       	ldd	r19, Y+2	; 0x02
    213e:	82 0f       	add	r24, r18
    2140:	93 1f       	adc	r25, r19
    2142:	fc 01       	movw	r30, r24
    2144:	20 81       	ld	r18, Z
    2146:	8b 81       	ldd	r24, Y+3	; 0x03
    2148:	9c 81       	ldd	r25, Y+4	; 0x04
    214a:	fc 01       	movw	r30, r24
    214c:	20 83       	st	Z, r18
    214e:	89 81       	ldd	r24, Y+1	; 0x01
    2150:	9a 81       	ldd	r25, Y+2	; 0x02
    2152:	fc 01       	movw	r30, r24
    2154:	81 a1       	ldd	r24, Z+33	; 0x21
    2156:	88 2f       	mov	r24, r24
    2158:	90 e0       	ldi	r25, 0x00	; 0
    215a:	01 96       	adiw	r24, 0x01	; 1
    215c:	8f 71       	andi	r24, 0x1F	; 31
    215e:	90 78       	andi	r25, 0x80	; 128
    2160:	99 23       	and	r25, r25
    2162:	24 f4       	brge	.+8      	; 0x216c <buffer_get_item+0x5e>
    2164:	01 97       	sbiw	r24, 0x01	; 1
    2166:	80 6e       	ori	r24, 0xE0	; 224
    2168:	9f 6f       	ori	r25, 0xFF	; 255
    216a:	01 96       	adiw	r24, 0x01	; 1
    216c:	28 2f       	mov	r18, r24
    216e:	89 81       	ldd	r24, Y+1	; 0x01
    2170:	9a 81       	ldd	r25, Y+2	; 0x02
    2172:	fc 01       	movw	r30, r24
    2174:	21 a3       	std	Z+33, r18	; 0x21
    2176:	89 81       	ldd	r24, Y+1	; 0x01
    2178:	9a 81       	ldd	r25, Y+2	; 0x02
    217a:	fc 01       	movw	r30, r24
    217c:	82 a1       	ldd	r24, Z+34	; 0x22
    217e:	2f ef       	ldi	r18, 0xFF	; 255
    2180:	28 0f       	add	r18, r24
    2182:	89 81       	ldd	r24, Y+1	; 0x01
    2184:	9a 81       	ldd	r25, Y+2	; 0x02
    2186:	fc 01       	movw	r30, r24
    2188:	22 a3       	std	Z+34, r18	; 0x22
    218a:	80 e0       	ldi	r24, 0x00	; 0
    218c:	01 c0       	rjmp	.+2      	; 0x2190 <buffer_get_item+0x82>
    218e:	81 e0       	ldi	r24, 0x01	; 1
    2190:	0f 90       	pop	r0
    2192:	0f 90       	pop	r0
    2194:	0f 90       	pop	r0
    2196:	0f 90       	pop	r0
    2198:	df 91       	pop	r29
    219a:	cf 91       	pop	r28
    219c:	08 95       	ret

0000219e <buffer_put_item>:
    219e:	cf 93       	push	r28
    21a0:	df 93       	push	r29
    21a2:	00 d0       	rcall	.+0      	; 0x21a4 <buffer_put_item+0x6>
    21a4:	1f 92       	push	r1
    21a6:	cd b7       	in	r28, 0x3d	; 61
    21a8:	de b7       	in	r29, 0x3e	; 62
    21aa:	9a 83       	std	Y+2, r25	; 0x02
    21ac:	89 83       	std	Y+1, r24	; 0x01
    21ae:	6b 83       	std	Y+3, r22	; 0x03
    21b0:	89 81       	ldd	r24, Y+1	; 0x01
    21b2:	9a 81       	ldd	r25, Y+2	; 0x02
    21b4:	fc 01       	movw	r30, r24
    21b6:	82 a1       	ldd	r24, Z+34	; 0x22
    21b8:	80 32       	cpi	r24, 0x20	; 32
    21ba:	68 f5       	brcc	.+90     	; 0x2216 <buffer_put_item+0x78>
    21bc:	89 81       	ldd	r24, Y+1	; 0x01
    21be:	9a 81       	ldd	r25, Y+2	; 0x02
    21c0:	fc 01       	movw	r30, r24
    21c2:	80 a1       	ldd	r24, Z+32	; 0x20
    21c4:	88 2f       	mov	r24, r24
    21c6:	90 e0       	ldi	r25, 0x00	; 0
    21c8:	29 81       	ldd	r18, Y+1	; 0x01
    21ca:	3a 81       	ldd	r19, Y+2	; 0x02
    21cc:	82 0f       	add	r24, r18
    21ce:	93 1f       	adc	r25, r19
    21d0:	2b 81       	ldd	r18, Y+3	; 0x03
    21d2:	fc 01       	movw	r30, r24
    21d4:	20 83       	st	Z, r18
    21d6:	89 81       	ldd	r24, Y+1	; 0x01
    21d8:	9a 81       	ldd	r25, Y+2	; 0x02
    21da:	fc 01       	movw	r30, r24
    21dc:	80 a1       	ldd	r24, Z+32	; 0x20
    21de:	88 2f       	mov	r24, r24
    21e0:	90 e0       	ldi	r25, 0x00	; 0
    21e2:	01 96       	adiw	r24, 0x01	; 1
    21e4:	8f 71       	andi	r24, 0x1F	; 31
    21e6:	90 78       	andi	r25, 0x80	; 128
    21e8:	99 23       	and	r25, r25
    21ea:	24 f4       	brge	.+8      	; 0x21f4 <buffer_put_item+0x56>
    21ec:	01 97       	sbiw	r24, 0x01	; 1
    21ee:	80 6e       	ori	r24, 0xE0	; 224
    21f0:	9f 6f       	ori	r25, 0xFF	; 255
    21f2:	01 96       	adiw	r24, 0x01	; 1
    21f4:	28 2f       	mov	r18, r24
    21f6:	89 81       	ldd	r24, Y+1	; 0x01
    21f8:	9a 81       	ldd	r25, Y+2	; 0x02
    21fa:	fc 01       	movw	r30, r24
    21fc:	20 a3       	std	Z+32, r18	; 0x20
    21fe:	89 81       	ldd	r24, Y+1	; 0x01
    2200:	9a 81       	ldd	r25, Y+2	; 0x02
    2202:	fc 01       	movw	r30, r24
    2204:	82 a1       	ldd	r24, Z+34	; 0x22
    2206:	21 e0       	ldi	r18, 0x01	; 1
    2208:	28 0f       	add	r18, r24
    220a:	89 81       	ldd	r24, Y+1	; 0x01
    220c:	9a 81       	ldd	r25, Y+2	; 0x02
    220e:	fc 01       	movw	r30, r24
    2210:	22 a3       	std	Z+34, r18	; 0x22
    2212:	80 e0       	ldi	r24, 0x00	; 0
    2214:	01 c0       	rjmp	.+2      	; 0x2218 <buffer_put_item+0x7a>
    2216:	82 e0       	ldi	r24, 0x02	; 2
    2218:	0f 90       	pop	r0
    221a:	0f 90       	pop	r0
    221c:	0f 90       	pop	r0
    221e:	df 91       	pop	r29
    2220:	cf 91       	pop	r28
    2222:	08 95       	ret

00002224 <vListInitialise>:
    2224:	cf 93       	push	r28
    2226:	df 93       	push	r29
    2228:	00 d0       	rcall	.+0      	; 0x222a <vListInitialise+0x6>
    222a:	cd b7       	in	r28, 0x3d	; 61
    222c:	de b7       	in	r29, 0x3e	; 62
    222e:	9a 83       	std	Y+2, r25	; 0x02
    2230:	89 83       	std	Y+1, r24	; 0x01
    2232:	89 81       	ldd	r24, Y+1	; 0x01
    2234:	9a 81       	ldd	r25, Y+2	; 0x02
    2236:	9c 01       	movw	r18, r24
    2238:	2d 5f       	subi	r18, 0xFD	; 253
    223a:	3f 4f       	sbci	r19, 0xFF	; 255
    223c:	89 81       	ldd	r24, Y+1	; 0x01
    223e:	9a 81       	ldd	r25, Y+2	; 0x02
    2240:	fc 01       	movw	r30, r24
    2242:	32 83       	std	Z+2, r19	; 0x02
    2244:	21 83       	std	Z+1, r18	; 0x01
    2246:	89 81       	ldd	r24, Y+1	; 0x01
    2248:	9a 81       	ldd	r25, Y+2	; 0x02
    224a:	2f ef       	ldi	r18, 0xFF	; 255
    224c:	3f ef       	ldi	r19, 0xFF	; 255
    224e:	fc 01       	movw	r30, r24
    2250:	34 83       	std	Z+4, r19	; 0x04
    2252:	23 83       	std	Z+3, r18	; 0x03
    2254:	89 81       	ldd	r24, Y+1	; 0x01
    2256:	9a 81       	ldd	r25, Y+2	; 0x02
    2258:	9c 01       	movw	r18, r24
    225a:	2d 5f       	subi	r18, 0xFD	; 253
    225c:	3f 4f       	sbci	r19, 0xFF	; 255
    225e:	89 81       	ldd	r24, Y+1	; 0x01
    2260:	9a 81       	ldd	r25, Y+2	; 0x02
    2262:	fc 01       	movw	r30, r24
    2264:	36 83       	std	Z+6, r19	; 0x06
    2266:	25 83       	std	Z+5, r18	; 0x05
    2268:	89 81       	ldd	r24, Y+1	; 0x01
    226a:	9a 81       	ldd	r25, Y+2	; 0x02
    226c:	9c 01       	movw	r18, r24
    226e:	2d 5f       	subi	r18, 0xFD	; 253
    2270:	3f 4f       	sbci	r19, 0xFF	; 255
    2272:	89 81       	ldd	r24, Y+1	; 0x01
    2274:	9a 81       	ldd	r25, Y+2	; 0x02
    2276:	fc 01       	movw	r30, r24
    2278:	30 87       	std	Z+8, r19	; 0x08
    227a:	27 83       	std	Z+7, r18	; 0x07
    227c:	89 81       	ldd	r24, Y+1	; 0x01
    227e:	9a 81       	ldd	r25, Y+2	; 0x02
    2280:	fc 01       	movw	r30, r24
    2282:	10 82       	st	Z, r1
    2284:	00 00       	nop
    2286:	0f 90       	pop	r0
    2288:	0f 90       	pop	r0
    228a:	df 91       	pop	r29
    228c:	cf 91       	pop	r28
    228e:	08 95       	ret

00002290 <vListInitialiseItem>:
    2290:	cf 93       	push	r28
    2292:	df 93       	push	r29
    2294:	00 d0       	rcall	.+0      	; 0x2296 <vListInitialiseItem+0x6>
    2296:	cd b7       	in	r28, 0x3d	; 61
    2298:	de b7       	in	r29, 0x3e	; 62
    229a:	9a 83       	std	Y+2, r25	; 0x02
    229c:	89 83       	std	Y+1, r24	; 0x01
    229e:	89 81       	ldd	r24, Y+1	; 0x01
    22a0:	9a 81       	ldd	r25, Y+2	; 0x02
    22a2:	fc 01       	movw	r30, r24
    22a4:	11 86       	std	Z+9, r1	; 0x09
    22a6:	10 86       	std	Z+8, r1	; 0x08
    22a8:	00 00       	nop
    22aa:	0f 90       	pop	r0
    22ac:	0f 90       	pop	r0
    22ae:	df 91       	pop	r29
    22b0:	cf 91       	pop	r28
    22b2:	08 95       	ret

000022b4 <vListInsertEnd>:
    22b4:	cf 93       	push	r28
    22b6:	df 93       	push	r29
    22b8:	00 d0       	rcall	.+0      	; 0x22ba <vListInsertEnd+0x6>
    22ba:	00 d0       	rcall	.+0      	; 0x22bc <vListInsertEnd+0x8>
    22bc:	00 d0       	rcall	.+0      	; 0x22be <vListInsertEnd+0xa>
    22be:	cd b7       	in	r28, 0x3d	; 61
    22c0:	de b7       	in	r29, 0x3e	; 62
    22c2:	9c 83       	std	Y+4, r25	; 0x04
    22c4:	8b 83       	std	Y+3, r24	; 0x03
    22c6:	7e 83       	std	Y+6, r23	; 0x06
    22c8:	6d 83       	std	Y+5, r22	; 0x05
    22ca:	8b 81       	ldd	r24, Y+3	; 0x03
    22cc:	9c 81       	ldd	r25, Y+4	; 0x04
    22ce:	fc 01       	movw	r30, r24
    22d0:	81 81       	ldd	r24, Z+1	; 0x01
    22d2:	92 81       	ldd	r25, Z+2	; 0x02
    22d4:	9a 83       	std	Y+2, r25	; 0x02
    22d6:	89 83       	std	Y+1, r24	; 0x01
    22d8:	8d 81       	ldd	r24, Y+5	; 0x05
    22da:	9e 81       	ldd	r25, Y+6	; 0x06
    22dc:	29 81       	ldd	r18, Y+1	; 0x01
    22de:	3a 81       	ldd	r19, Y+2	; 0x02
    22e0:	fc 01       	movw	r30, r24
    22e2:	33 83       	std	Z+3, r19	; 0x03
    22e4:	22 83       	std	Z+2, r18	; 0x02
    22e6:	89 81       	ldd	r24, Y+1	; 0x01
    22e8:	9a 81       	ldd	r25, Y+2	; 0x02
    22ea:	fc 01       	movw	r30, r24
    22ec:	24 81       	ldd	r18, Z+4	; 0x04
    22ee:	35 81       	ldd	r19, Z+5	; 0x05
    22f0:	8d 81       	ldd	r24, Y+5	; 0x05
    22f2:	9e 81       	ldd	r25, Y+6	; 0x06
    22f4:	fc 01       	movw	r30, r24
    22f6:	35 83       	std	Z+5, r19	; 0x05
    22f8:	24 83       	std	Z+4, r18	; 0x04
    22fa:	89 81       	ldd	r24, Y+1	; 0x01
    22fc:	9a 81       	ldd	r25, Y+2	; 0x02
    22fe:	fc 01       	movw	r30, r24
    2300:	84 81       	ldd	r24, Z+4	; 0x04
    2302:	95 81       	ldd	r25, Z+5	; 0x05
    2304:	2d 81       	ldd	r18, Y+5	; 0x05
    2306:	3e 81       	ldd	r19, Y+6	; 0x06
    2308:	fc 01       	movw	r30, r24
    230a:	33 83       	std	Z+3, r19	; 0x03
    230c:	22 83       	std	Z+2, r18	; 0x02
    230e:	89 81       	ldd	r24, Y+1	; 0x01
    2310:	9a 81       	ldd	r25, Y+2	; 0x02
    2312:	2d 81       	ldd	r18, Y+5	; 0x05
    2314:	3e 81       	ldd	r19, Y+6	; 0x06
    2316:	fc 01       	movw	r30, r24
    2318:	35 83       	std	Z+5, r19	; 0x05
    231a:	24 83       	std	Z+4, r18	; 0x04
    231c:	8d 81       	ldd	r24, Y+5	; 0x05
    231e:	9e 81       	ldd	r25, Y+6	; 0x06
    2320:	2b 81       	ldd	r18, Y+3	; 0x03
    2322:	3c 81       	ldd	r19, Y+4	; 0x04
    2324:	fc 01       	movw	r30, r24
    2326:	31 87       	std	Z+9, r19	; 0x09
    2328:	20 87       	std	Z+8, r18	; 0x08
    232a:	8b 81       	ldd	r24, Y+3	; 0x03
    232c:	9c 81       	ldd	r25, Y+4	; 0x04
    232e:	fc 01       	movw	r30, r24
    2330:	80 81       	ld	r24, Z
    2332:	21 e0       	ldi	r18, 0x01	; 1
    2334:	28 0f       	add	r18, r24
    2336:	8b 81       	ldd	r24, Y+3	; 0x03
    2338:	9c 81       	ldd	r25, Y+4	; 0x04
    233a:	fc 01       	movw	r30, r24
    233c:	20 83       	st	Z, r18
    233e:	00 00       	nop
    2340:	26 96       	adiw	r28, 0x06	; 6
    2342:	0f b6       	in	r0, 0x3f	; 63
    2344:	f8 94       	cli
    2346:	de bf       	out	0x3e, r29	; 62
    2348:	0f be       	out	0x3f, r0	; 63
    234a:	cd bf       	out	0x3d, r28	; 61
    234c:	df 91       	pop	r29
    234e:	cf 91       	pop	r28
    2350:	08 95       	ret

00002352 <vListInsert>:
    2352:	cf 93       	push	r28
    2354:	df 93       	push	r29
    2356:	cd b7       	in	r28, 0x3d	; 61
    2358:	de b7       	in	r29, 0x3e	; 62
    235a:	28 97       	sbiw	r28, 0x08	; 8
    235c:	0f b6       	in	r0, 0x3f	; 63
    235e:	f8 94       	cli
    2360:	de bf       	out	0x3e, r29	; 62
    2362:	0f be       	out	0x3f, r0	; 63
    2364:	cd bf       	out	0x3d, r28	; 61
    2366:	9e 83       	std	Y+6, r25	; 0x06
    2368:	8d 83       	std	Y+5, r24	; 0x05
    236a:	78 87       	std	Y+8, r23	; 0x08
    236c:	6f 83       	std	Y+7, r22	; 0x07
    236e:	8f 81       	ldd	r24, Y+7	; 0x07
    2370:	98 85       	ldd	r25, Y+8	; 0x08
    2372:	fc 01       	movw	r30, r24
    2374:	80 81       	ld	r24, Z
    2376:	91 81       	ldd	r25, Z+1	; 0x01
    2378:	9c 83       	std	Y+4, r25	; 0x04
    237a:	8b 83       	std	Y+3, r24	; 0x03
    237c:	8b 81       	ldd	r24, Y+3	; 0x03
    237e:	9c 81       	ldd	r25, Y+4	; 0x04
    2380:	01 96       	adiw	r24, 0x01	; 1
    2382:	41 f4       	brne	.+16     	; 0x2394 <vListInsert+0x42>
    2384:	8d 81       	ldd	r24, Y+5	; 0x05
    2386:	9e 81       	ldd	r25, Y+6	; 0x06
    2388:	fc 01       	movw	r30, r24
    238a:	87 81       	ldd	r24, Z+7	; 0x07
    238c:	90 85       	ldd	r25, Z+8	; 0x08
    238e:	9a 83       	std	Y+2, r25	; 0x02
    2390:	89 83       	std	Y+1, r24	; 0x01
    2392:	1a c0       	rjmp	.+52     	; 0x23c8 <vListInsert+0x76>
    2394:	8d 81       	ldd	r24, Y+5	; 0x05
    2396:	9e 81       	ldd	r25, Y+6	; 0x06
    2398:	03 96       	adiw	r24, 0x03	; 3
    239a:	9a 83       	std	Y+2, r25	; 0x02
    239c:	89 83       	std	Y+1, r24	; 0x01
    239e:	07 c0       	rjmp	.+14     	; 0x23ae <vListInsert+0x5c>
    23a0:	89 81       	ldd	r24, Y+1	; 0x01
    23a2:	9a 81       	ldd	r25, Y+2	; 0x02
    23a4:	fc 01       	movw	r30, r24
    23a6:	82 81       	ldd	r24, Z+2	; 0x02
    23a8:	93 81       	ldd	r25, Z+3	; 0x03
    23aa:	9a 83       	std	Y+2, r25	; 0x02
    23ac:	89 83       	std	Y+1, r24	; 0x01
    23ae:	89 81       	ldd	r24, Y+1	; 0x01
    23b0:	9a 81       	ldd	r25, Y+2	; 0x02
    23b2:	fc 01       	movw	r30, r24
    23b4:	82 81       	ldd	r24, Z+2	; 0x02
    23b6:	93 81       	ldd	r25, Z+3	; 0x03
    23b8:	fc 01       	movw	r30, r24
    23ba:	20 81       	ld	r18, Z
    23bc:	31 81       	ldd	r19, Z+1	; 0x01
    23be:	8b 81       	ldd	r24, Y+3	; 0x03
    23c0:	9c 81       	ldd	r25, Y+4	; 0x04
    23c2:	82 17       	cp	r24, r18
    23c4:	93 07       	cpc	r25, r19
    23c6:	60 f7       	brcc	.-40     	; 0x23a0 <vListInsert+0x4e>
    23c8:	89 81       	ldd	r24, Y+1	; 0x01
    23ca:	9a 81       	ldd	r25, Y+2	; 0x02
    23cc:	fc 01       	movw	r30, r24
    23ce:	22 81       	ldd	r18, Z+2	; 0x02
    23d0:	33 81       	ldd	r19, Z+3	; 0x03
    23d2:	8f 81       	ldd	r24, Y+7	; 0x07
    23d4:	98 85       	ldd	r25, Y+8	; 0x08
    23d6:	fc 01       	movw	r30, r24
    23d8:	33 83       	std	Z+3, r19	; 0x03
    23da:	22 83       	std	Z+2, r18	; 0x02
    23dc:	8f 81       	ldd	r24, Y+7	; 0x07
    23de:	98 85       	ldd	r25, Y+8	; 0x08
    23e0:	fc 01       	movw	r30, r24
    23e2:	82 81       	ldd	r24, Z+2	; 0x02
    23e4:	93 81       	ldd	r25, Z+3	; 0x03
    23e6:	2f 81       	ldd	r18, Y+7	; 0x07
    23e8:	38 85       	ldd	r19, Y+8	; 0x08
    23ea:	fc 01       	movw	r30, r24
    23ec:	35 83       	std	Z+5, r19	; 0x05
    23ee:	24 83       	std	Z+4, r18	; 0x04
    23f0:	8f 81       	ldd	r24, Y+7	; 0x07
    23f2:	98 85       	ldd	r25, Y+8	; 0x08
    23f4:	29 81       	ldd	r18, Y+1	; 0x01
    23f6:	3a 81       	ldd	r19, Y+2	; 0x02
    23f8:	fc 01       	movw	r30, r24
    23fa:	35 83       	std	Z+5, r19	; 0x05
    23fc:	24 83       	std	Z+4, r18	; 0x04
    23fe:	89 81       	ldd	r24, Y+1	; 0x01
    2400:	9a 81       	ldd	r25, Y+2	; 0x02
    2402:	2f 81       	ldd	r18, Y+7	; 0x07
    2404:	38 85       	ldd	r19, Y+8	; 0x08
    2406:	fc 01       	movw	r30, r24
    2408:	33 83       	std	Z+3, r19	; 0x03
    240a:	22 83       	std	Z+2, r18	; 0x02
    240c:	8f 81       	ldd	r24, Y+7	; 0x07
    240e:	98 85       	ldd	r25, Y+8	; 0x08
    2410:	2d 81       	ldd	r18, Y+5	; 0x05
    2412:	3e 81       	ldd	r19, Y+6	; 0x06
    2414:	fc 01       	movw	r30, r24
    2416:	31 87       	std	Z+9, r19	; 0x09
    2418:	20 87       	std	Z+8, r18	; 0x08
    241a:	8d 81       	ldd	r24, Y+5	; 0x05
    241c:	9e 81       	ldd	r25, Y+6	; 0x06
    241e:	fc 01       	movw	r30, r24
    2420:	80 81       	ld	r24, Z
    2422:	21 e0       	ldi	r18, 0x01	; 1
    2424:	28 0f       	add	r18, r24
    2426:	8d 81       	ldd	r24, Y+5	; 0x05
    2428:	9e 81       	ldd	r25, Y+6	; 0x06
    242a:	fc 01       	movw	r30, r24
    242c:	20 83       	st	Z, r18
    242e:	00 00       	nop
    2430:	28 96       	adiw	r28, 0x08	; 8
    2432:	0f b6       	in	r0, 0x3f	; 63
    2434:	f8 94       	cli
    2436:	de bf       	out	0x3e, r29	; 62
    2438:	0f be       	out	0x3f, r0	; 63
    243a:	cd bf       	out	0x3d, r28	; 61
    243c:	df 91       	pop	r29
    243e:	cf 91       	pop	r28
    2440:	08 95       	ret

00002442 <uxListRemove>:
    2442:	cf 93       	push	r28
    2444:	df 93       	push	r29
    2446:	00 d0       	rcall	.+0      	; 0x2448 <uxListRemove+0x6>
    2448:	00 d0       	rcall	.+0      	; 0x244a <uxListRemove+0x8>
    244a:	cd b7       	in	r28, 0x3d	; 61
    244c:	de b7       	in	r29, 0x3e	; 62
    244e:	9c 83       	std	Y+4, r25	; 0x04
    2450:	8b 83       	std	Y+3, r24	; 0x03
    2452:	8b 81       	ldd	r24, Y+3	; 0x03
    2454:	9c 81       	ldd	r25, Y+4	; 0x04
    2456:	fc 01       	movw	r30, r24
    2458:	80 85       	ldd	r24, Z+8	; 0x08
    245a:	91 85       	ldd	r25, Z+9	; 0x09
    245c:	9a 83       	std	Y+2, r25	; 0x02
    245e:	89 83       	std	Y+1, r24	; 0x01
    2460:	8b 81       	ldd	r24, Y+3	; 0x03
    2462:	9c 81       	ldd	r25, Y+4	; 0x04
    2464:	fc 01       	movw	r30, r24
    2466:	82 81       	ldd	r24, Z+2	; 0x02
    2468:	93 81       	ldd	r25, Z+3	; 0x03
    246a:	2b 81       	ldd	r18, Y+3	; 0x03
    246c:	3c 81       	ldd	r19, Y+4	; 0x04
    246e:	f9 01       	movw	r30, r18
    2470:	24 81       	ldd	r18, Z+4	; 0x04
    2472:	35 81       	ldd	r19, Z+5	; 0x05
    2474:	fc 01       	movw	r30, r24
    2476:	35 83       	std	Z+5, r19	; 0x05
    2478:	24 83       	std	Z+4, r18	; 0x04
    247a:	8b 81       	ldd	r24, Y+3	; 0x03
    247c:	9c 81       	ldd	r25, Y+4	; 0x04
    247e:	fc 01       	movw	r30, r24
    2480:	84 81       	ldd	r24, Z+4	; 0x04
    2482:	95 81       	ldd	r25, Z+5	; 0x05
    2484:	2b 81       	ldd	r18, Y+3	; 0x03
    2486:	3c 81       	ldd	r19, Y+4	; 0x04
    2488:	f9 01       	movw	r30, r18
    248a:	22 81       	ldd	r18, Z+2	; 0x02
    248c:	33 81       	ldd	r19, Z+3	; 0x03
    248e:	fc 01       	movw	r30, r24
    2490:	33 83       	std	Z+3, r19	; 0x03
    2492:	22 83       	std	Z+2, r18	; 0x02
    2494:	89 81       	ldd	r24, Y+1	; 0x01
    2496:	9a 81       	ldd	r25, Y+2	; 0x02
    2498:	fc 01       	movw	r30, r24
    249a:	21 81       	ldd	r18, Z+1	; 0x01
    249c:	32 81       	ldd	r19, Z+2	; 0x02
    249e:	8b 81       	ldd	r24, Y+3	; 0x03
    24a0:	9c 81       	ldd	r25, Y+4	; 0x04
    24a2:	28 17       	cp	r18, r24
    24a4:	39 07       	cpc	r19, r25
    24a6:	51 f4       	brne	.+20     	; 0x24bc <uxListRemove+0x7a>
    24a8:	8b 81       	ldd	r24, Y+3	; 0x03
    24aa:	9c 81       	ldd	r25, Y+4	; 0x04
    24ac:	fc 01       	movw	r30, r24
    24ae:	24 81       	ldd	r18, Z+4	; 0x04
    24b0:	35 81       	ldd	r19, Z+5	; 0x05
    24b2:	89 81       	ldd	r24, Y+1	; 0x01
    24b4:	9a 81       	ldd	r25, Y+2	; 0x02
    24b6:	fc 01       	movw	r30, r24
    24b8:	32 83       	std	Z+2, r19	; 0x02
    24ba:	21 83       	std	Z+1, r18	; 0x01
    24bc:	8b 81       	ldd	r24, Y+3	; 0x03
    24be:	9c 81       	ldd	r25, Y+4	; 0x04
    24c0:	fc 01       	movw	r30, r24
    24c2:	11 86       	std	Z+9, r1	; 0x09
    24c4:	10 86       	std	Z+8, r1	; 0x08
    24c6:	89 81       	ldd	r24, Y+1	; 0x01
    24c8:	9a 81       	ldd	r25, Y+2	; 0x02
    24ca:	fc 01       	movw	r30, r24
    24cc:	80 81       	ld	r24, Z
    24ce:	2f ef       	ldi	r18, 0xFF	; 255
    24d0:	28 0f       	add	r18, r24
    24d2:	89 81       	ldd	r24, Y+1	; 0x01
    24d4:	9a 81       	ldd	r25, Y+2	; 0x02
    24d6:	fc 01       	movw	r30, r24
    24d8:	20 83       	st	Z, r18
    24da:	89 81       	ldd	r24, Y+1	; 0x01
    24dc:	9a 81       	ldd	r25, Y+2	; 0x02
    24de:	fc 01       	movw	r30, r24
    24e0:	80 81       	ld	r24, Z
    24e2:	0f 90       	pop	r0
    24e4:	0f 90       	pop	r0
    24e6:	0f 90       	pop	r0
    24e8:	0f 90       	pop	r0
    24ea:	df 91       	pop	r29
    24ec:	cf 91       	pop	r28
    24ee:	08 95       	ret

000024f0 <pxPortInitialiseStack>:
    24f0:	cf 93       	push	r28
    24f2:	df 93       	push	r29
    24f4:	cd b7       	in	r28, 0x3d	; 61
    24f6:	de b7       	in	r29, 0x3e	; 62
    24f8:	28 97       	sbiw	r28, 0x08	; 8
    24fa:	0f b6       	in	r0, 0x3f	; 63
    24fc:	f8 94       	cli
    24fe:	de bf       	out	0x3e, r29	; 62
    2500:	0f be       	out	0x3f, r0	; 63
    2502:	cd bf       	out	0x3d, r28	; 61
    2504:	9c 83       	std	Y+4, r25	; 0x04
    2506:	8b 83       	std	Y+3, r24	; 0x03
    2508:	7e 83       	std	Y+6, r23	; 0x06
    250a:	6d 83       	std	Y+5, r22	; 0x05
    250c:	58 87       	std	Y+8, r21	; 0x08
    250e:	4f 83       	std	Y+7, r20	; 0x07
    2510:	8b 81       	ldd	r24, Y+3	; 0x03
    2512:	9c 81       	ldd	r25, Y+4	; 0x04
    2514:	21 e1       	ldi	r18, 0x11	; 17
    2516:	fc 01       	movw	r30, r24
    2518:	20 83       	st	Z, r18
    251a:	8b 81       	ldd	r24, Y+3	; 0x03
    251c:	9c 81       	ldd	r25, Y+4	; 0x04
    251e:	01 97       	sbiw	r24, 0x01	; 1
    2520:	9c 83       	std	Y+4, r25	; 0x04
    2522:	8b 83       	std	Y+3, r24	; 0x03
    2524:	8b 81       	ldd	r24, Y+3	; 0x03
    2526:	9c 81       	ldd	r25, Y+4	; 0x04
    2528:	22 e2       	ldi	r18, 0x22	; 34
    252a:	fc 01       	movw	r30, r24
    252c:	20 83       	st	Z, r18
    252e:	8b 81       	ldd	r24, Y+3	; 0x03
    2530:	9c 81       	ldd	r25, Y+4	; 0x04
    2532:	01 97       	sbiw	r24, 0x01	; 1
    2534:	9c 83       	std	Y+4, r25	; 0x04
    2536:	8b 83       	std	Y+3, r24	; 0x03
    2538:	8b 81       	ldd	r24, Y+3	; 0x03
    253a:	9c 81       	ldd	r25, Y+4	; 0x04
    253c:	23 e3       	ldi	r18, 0x33	; 51
    253e:	fc 01       	movw	r30, r24
    2540:	20 83       	st	Z, r18
    2542:	8b 81       	ldd	r24, Y+3	; 0x03
    2544:	9c 81       	ldd	r25, Y+4	; 0x04
    2546:	01 97       	sbiw	r24, 0x01	; 1
    2548:	9c 83       	std	Y+4, r25	; 0x04
    254a:	8b 83       	std	Y+3, r24	; 0x03
    254c:	8d 81       	ldd	r24, Y+5	; 0x05
    254e:	9e 81       	ldd	r25, Y+6	; 0x06
    2550:	9a 83       	std	Y+2, r25	; 0x02
    2552:	89 83       	std	Y+1, r24	; 0x01
    2554:	29 81       	ldd	r18, Y+1	; 0x01
    2556:	8b 81       	ldd	r24, Y+3	; 0x03
    2558:	9c 81       	ldd	r25, Y+4	; 0x04
    255a:	fc 01       	movw	r30, r24
    255c:	20 83       	st	Z, r18
    255e:	8b 81       	ldd	r24, Y+3	; 0x03
    2560:	9c 81       	ldd	r25, Y+4	; 0x04
    2562:	01 97       	sbiw	r24, 0x01	; 1
    2564:	9c 83       	std	Y+4, r25	; 0x04
    2566:	8b 83       	std	Y+3, r24	; 0x03
    2568:	89 81       	ldd	r24, Y+1	; 0x01
    256a:	9a 81       	ldd	r25, Y+2	; 0x02
    256c:	89 2f       	mov	r24, r25
    256e:	99 27       	eor	r25, r25
    2570:	9a 83       	std	Y+2, r25	; 0x02
    2572:	89 83       	std	Y+1, r24	; 0x01
    2574:	29 81       	ldd	r18, Y+1	; 0x01
    2576:	8b 81       	ldd	r24, Y+3	; 0x03
    2578:	9c 81       	ldd	r25, Y+4	; 0x04
    257a:	fc 01       	movw	r30, r24
    257c:	20 83       	st	Z, r18
    257e:	8b 81       	ldd	r24, Y+3	; 0x03
    2580:	9c 81       	ldd	r25, Y+4	; 0x04
    2582:	01 97       	sbiw	r24, 0x01	; 1
    2584:	9c 83       	std	Y+4, r25	; 0x04
    2586:	8b 83       	std	Y+3, r24	; 0x03
    2588:	8b 81       	ldd	r24, Y+3	; 0x03
    258a:	9c 81       	ldd	r25, Y+4	; 0x04
    258c:	fc 01       	movw	r30, r24
    258e:	10 82       	st	Z, r1
    2590:	8b 81       	ldd	r24, Y+3	; 0x03
    2592:	9c 81       	ldd	r25, Y+4	; 0x04
    2594:	01 97       	sbiw	r24, 0x01	; 1
    2596:	9c 83       	std	Y+4, r25	; 0x04
    2598:	8b 83       	std	Y+3, r24	; 0x03
    259a:	8b 81       	ldd	r24, Y+3	; 0x03
    259c:	9c 81       	ldd	r25, Y+4	; 0x04
    259e:	20 e8       	ldi	r18, 0x80	; 128
    25a0:	fc 01       	movw	r30, r24
    25a2:	20 83       	st	Z, r18
    25a4:	8b 81       	ldd	r24, Y+3	; 0x03
    25a6:	9c 81       	ldd	r25, Y+4	; 0x04
    25a8:	01 97       	sbiw	r24, 0x01	; 1
    25aa:	9c 83       	std	Y+4, r25	; 0x04
    25ac:	8b 83       	std	Y+3, r24	; 0x03
    25ae:	8b 81       	ldd	r24, Y+3	; 0x03
    25b0:	9c 81       	ldd	r25, Y+4	; 0x04
    25b2:	fc 01       	movw	r30, r24
    25b4:	10 82       	st	Z, r1
    25b6:	8b 81       	ldd	r24, Y+3	; 0x03
    25b8:	9c 81       	ldd	r25, Y+4	; 0x04
    25ba:	01 97       	sbiw	r24, 0x01	; 1
    25bc:	9c 83       	std	Y+4, r25	; 0x04
    25be:	8b 83       	std	Y+3, r24	; 0x03
    25c0:	8b 81       	ldd	r24, Y+3	; 0x03
    25c2:	9c 81       	ldd	r25, Y+4	; 0x04
    25c4:	22 e0       	ldi	r18, 0x02	; 2
    25c6:	fc 01       	movw	r30, r24
    25c8:	20 83       	st	Z, r18
    25ca:	8b 81       	ldd	r24, Y+3	; 0x03
    25cc:	9c 81       	ldd	r25, Y+4	; 0x04
    25ce:	01 97       	sbiw	r24, 0x01	; 1
    25d0:	9c 83       	std	Y+4, r25	; 0x04
    25d2:	8b 83       	std	Y+3, r24	; 0x03
    25d4:	8b 81       	ldd	r24, Y+3	; 0x03
    25d6:	9c 81       	ldd	r25, Y+4	; 0x04
    25d8:	23 e0       	ldi	r18, 0x03	; 3
    25da:	fc 01       	movw	r30, r24
    25dc:	20 83       	st	Z, r18
    25de:	8b 81       	ldd	r24, Y+3	; 0x03
    25e0:	9c 81       	ldd	r25, Y+4	; 0x04
    25e2:	01 97       	sbiw	r24, 0x01	; 1
    25e4:	9c 83       	std	Y+4, r25	; 0x04
    25e6:	8b 83       	std	Y+3, r24	; 0x03
    25e8:	8b 81       	ldd	r24, Y+3	; 0x03
    25ea:	9c 81       	ldd	r25, Y+4	; 0x04
    25ec:	24 e0       	ldi	r18, 0x04	; 4
    25ee:	fc 01       	movw	r30, r24
    25f0:	20 83       	st	Z, r18
    25f2:	8b 81       	ldd	r24, Y+3	; 0x03
    25f4:	9c 81       	ldd	r25, Y+4	; 0x04
    25f6:	01 97       	sbiw	r24, 0x01	; 1
    25f8:	9c 83       	std	Y+4, r25	; 0x04
    25fa:	8b 83       	std	Y+3, r24	; 0x03
    25fc:	8b 81       	ldd	r24, Y+3	; 0x03
    25fe:	9c 81       	ldd	r25, Y+4	; 0x04
    2600:	25 e0       	ldi	r18, 0x05	; 5
    2602:	fc 01       	movw	r30, r24
    2604:	20 83       	st	Z, r18
    2606:	8b 81       	ldd	r24, Y+3	; 0x03
    2608:	9c 81       	ldd	r25, Y+4	; 0x04
    260a:	01 97       	sbiw	r24, 0x01	; 1
    260c:	9c 83       	std	Y+4, r25	; 0x04
    260e:	8b 83       	std	Y+3, r24	; 0x03
    2610:	8b 81       	ldd	r24, Y+3	; 0x03
    2612:	9c 81       	ldd	r25, Y+4	; 0x04
    2614:	26 e0       	ldi	r18, 0x06	; 6
    2616:	fc 01       	movw	r30, r24
    2618:	20 83       	st	Z, r18
    261a:	8b 81       	ldd	r24, Y+3	; 0x03
    261c:	9c 81       	ldd	r25, Y+4	; 0x04
    261e:	01 97       	sbiw	r24, 0x01	; 1
    2620:	9c 83       	std	Y+4, r25	; 0x04
    2622:	8b 83       	std	Y+3, r24	; 0x03
    2624:	8b 81       	ldd	r24, Y+3	; 0x03
    2626:	9c 81       	ldd	r25, Y+4	; 0x04
    2628:	27 e0       	ldi	r18, 0x07	; 7
    262a:	fc 01       	movw	r30, r24
    262c:	20 83       	st	Z, r18
    262e:	8b 81       	ldd	r24, Y+3	; 0x03
    2630:	9c 81       	ldd	r25, Y+4	; 0x04
    2632:	01 97       	sbiw	r24, 0x01	; 1
    2634:	9c 83       	std	Y+4, r25	; 0x04
    2636:	8b 83       	std	Y+3, r24	; 0x03
    2638:	8b 81       	ldd	r24, Y+3	; 0x03
    263a:	9c 81       	ldd	r25, Y+4	; 0x04
    263c:	28 e0       	ldi	r18, 0x08	; 8
    263e:	fc 01       	movw	r30, r24
    2640:	20 83       	st	Z, r18
    2642:	8b 81       	ldd	r24, Y+3	; 0x03
    2644:	9c 81       	ldd	r25, Y+4	; 0x04
    2646:	01 97       	sbiw	r24, 0x01	; 1
    2648:	9c 83       	std	Y+4, r25	; 0x04
    264a:	8b 83       	std	Y+3, r24	; 0x03
    264c:	8b 81       	ldd	r24, Y+3	; 0x03
    264e:	9c 81       	ldd	r25, Y+4	; 0x04
    2650:	29 e0       	ldi	r18, 0x09	; 9
    2652:	fc 01       	movw	r30, r24
    2654:	20 83       	st	Z, r18
    2656:	8b 81       	ldd	r24, Y+3	; 0x03
    2658:	9c 81       	ldd	r25, Y+4	; 0x04
    265a:	01 97       	sbiw	r24, 0x01	; 1
    265c:	9c 83       	std	Y+4, r25	; 0x04
    265e:	8b 83       	std	Y+3, r24	; 0x03
    2660:	8b 81       	ldd	r24, Y+3	; 0x03
    2662:	9c 81       	ldd	r25, Y+4	; 0x04
    2664:	20 e1       	ldi	r18, 0x10	; 16
    2666:	fc 01       	movw	r30, r24
    2668:	20 83       	st	Z, r18
    266a:	8b 81       	ldd	r24, Y+3	; 0x03
    266c:	9c 81       	ldd	r25, Y+4	; 0x04
    266e:	01 97       	sbiw	r24, 0x01	; 1
    2670:	9c 83       	std	Y+4, r25	; 0x04
    2672:	8b 83       	std	Y+3, r24	; 0x03
    2674:	8b 81       	ldd	r24, Y+3	; 0x03
    2676:	9c 81       	ldd	r25, Y+4	; 0x04
    2678:	21 e1       	ldi	r18, 0x11	; 17
    267a:	fc 01       	movw	r30, r24
    267c:	20 83       	st	Z, r18
    267e:	8b 81       	ldd	r24, Y+3	; 0x03
    2680:	9c 81       	ldd	r25, Y+4	; 0x04
    2682:	01 97       	sbiw	r24, 0x01	; 1
    2684:	9c 83       	std	Y+4, r25	; 0x04
    2686:	8b 83       	std	Y+3, r24	; 0x03
    2688:	8b 81       	ldd	r24, Y+3	; 0x03
    268a:	9c 81       	ldd	r25, Y+4	; 0x04
    268c:	22 e1       	ldi	r18, 0x12	; 18
    268e:	fc 01       	movw	r30, r24
    2690:	20 83       	st	Z, r18
    2692:	8b 81       	ldd	r24, Y+3	; 0x03
    2694:	9c 81       	ldd	r25, Y+4	; 0x04
    2696:	01 97       	sbiw	r24, 0x01	; 1
    2698:	9c 83       	std	Y+4, r25	; 0x04
    269a:	8b 83       	std	Y+3, r24	; 0x03
    269c:	8b 81       	ldd	r24, Y+3	; 0x03
    269e:	9c 81       	ldd	r25, Y+4	; 0x04
    26a0:	23 e1       	ldi	r18, 0x13	; 19
    26a2:	fc 01       	movw	r30, r24
    26a4:	20 83       	st	Z, r18
    26a6:	8b 81       	ldd	r24, Y+3	; 0x03
    26a8:	9c 81       	ldd	r25, Y+4	; 0x04
    26aa:	01 97       	sbiw	r24, 0x01	; 1
    26ac:	9c 83       	std	Y+4, r25	; 0x04
    26ae:	8b 83       	std	Y+3, r24	; 0x03
    26b0:	8b 81       	ldd	r24, Y+3	; 0x03
    26b2:	9c 81       	ldd	r25, Y+4	; 0x04
    26b4:	24 e1       	ldi	r18, 0x14	; 20
    26b6:	fc 01       	movw	r30, r24
    26b8:	20 83       	st	Z, r18
    26ba:	8b 81       	ldd	r24, Y+3	; 0x03
    26bc:	9c 81       	ldd	r25, Y+4	; 0x04
    26be:	01 97       	sbiw	r24, 0x01	; 1
    26c0:	9c 83       	std	Y+4, r25	; 0x04
    26c2:	8b 83       	std	Y+3, r24	; 0x03
    26c4:	8b 81       	ldd	r24, Y+3	; 0x03
    26c6:	9c 81       	ldd	r25, Y+4	; 0x04
    26c8:	25 e1       	ldi	r18, 0x15	; 21
    26ca:	fc 01       	movw	r30, r24
    26cc:	20 83       	st	Z, r18
    26ce:	8b 81       	ldd	r24, Y+3	; 0x03
    26d0:	9c 81       	ldd	r25, Y+4	; 0x04
    26d2:	01 97       	sbiw	r24, 0x01	; 1
    26d4:	9c 83       	std	Y+4, r25	; 0x04
    26d6:	8b 83       	std	Y+3, r24	; 0x03
    26d8:	8b 81       	ldd	r24, Y+3	; 0x03
    26da:	9c 81       	ldd	r25, Y+4	; 0x04
    26dc:	26 e1       	ldi	r18, 0x16	; 22
    26de:	fc 01       	movw	r30, r24
    26e0:	20 83       	st	Z, r18
    26e2:	8b 81       	ldd	r24, Y+3	; 0x03
    26e4:	9c 81       	ldd	r25, Y+4	; 0x04
    26e6:	01 97       	sbiw	r24, 0x01	; 1
    26e8:	9c 83       	std	Y+4, r25	; 0x04
    26ea:	8b 83       	std	Y+3, r24	; 0x03
    26ec:	8b 81       	ldd	r24, Y+3	; 0x03
    26ee:	9c 81       	ldd	r25, Y+4	; 0x04
    26f0:	27 e1       	ldi	r18, 0x17	; 23
    26f2:	fc 01       	movw	r30, r24
    26f4:	20 83       	st	Z, r18
    26f6:	8b 81       	ldd	r24, Y+3	; 0x03
    26f8:	9c 81       	ldd	r25, Y+4	; 0x04
    26fa:	01 97       	sbiw	r24, 0x01	; 1
    26fc:	9c 83       	std	Y+4, r25	; 0x04
    26fe:	8b 83       	std	Y+3, r24	; 0x03
    2700:	8b 81       	ldd	r24, Y+3	; 0x03
    2702:	9c 81       	ldd	r25, Y+4	; 0x04
    2704:	28 e1       	ldi	r18, 0x18	; 24
    2706:	fc 01       	movw	r30, r24
    2708:	20 83       	st	Z, r18
    270a:	8b 81       	ldd	r24, Y+3	; 0x03
    270c:	9c 81       	ldd	r25, Y+4	; 0x04
    270e:	01 97       	sbiw	r24, 0x01	; 1
    2710:	9c 83       	std	Y+4, r25	; 0x04
    2712:	8b 83       	std	Y+3, r24	; 0x03
    2714:	8b 81       	ldd	r24, Y+3	; 0x03
    2716:	9c 81       	ldd	r25, Y+4	; 0x04
    2718:	29 e1       	ldi	r18, 0x19	; 25
    271a:	fc 01       	movw	r30, r24
    271c:	20 83       	st	Z, r18
    271e:	8b 81       	ldd	r24, Y+3	; 0x03
    2720:	9c 81       	ldd	r25, Y+4	; 0x04
    2722:	01 97       	sbiw	r24, 0x01	; 1
    2724:	9c 83       	std	Y+4, r25	; 0x04
    2726:	8b 83       	std	Y+3, r24	; 0x03
    2728:	8b 81       	ldd	r24, Y+3	; 0x03
    272a:	9c 81       	ldd	r25, Y+4	; 0x04
    272c:	20 e2       	ldi	r18, 0x20	; 32
    272e:	fc 01       	movw	r30, r24
    2730:	20 83       	st	Z, r18
    2732:	8b 81       	ldd	r24, Y+3	; 0x03
    2734:	9c 81       	ldd	r25, Y+4	; 0x04
    2736:	01 97       	sbiw	r24, 0x01	; 1
    2738:	9c 83       	std	Y+4, r25	; 0x04
    273a:	8b 83       	std	Y+3, r24	; 0x03
    273c:	8b 81       	ldd	r24, Y+3	; 0x03
    273e:	9c 81       	ldd	r25, Y+4	; 0x04
    2740:	21 e2       	ldi	r18, 0x21	; 33
    2742:	fc 01       	movw	r30, r24
    2744:	20 83       	st	Z, r18
    2746:	8b 81       	ldd	r24, Y+3	; 0x03
    2748:	9c 81       	ldd	r25, Y+4	; 0x04
    274a:	01 97       	sbiw	r24, 0x01	; 1
    274c:	9c 83       	std	Y+4, r25	; 0x04
    274e:	8b 83       	std	Y+3, r24	; 0x03
    2750:	8b 81       	ldd	r24, Y+3	; 0x03
    2752:	9c 81       	ldd	r25, Y+4	; 0x04
    2754:	22 e2       	ldi	r18, 0x22	; 34
    2756:	fc 01       	movw	r30, r24
    2758:	20 83       	st	Z, r18
    275a:	8b 81       	ldd	r24, Y+3	; 0x03
    275c:	9c 81       	ldd	r25, Y+4	; 0x04
    275e:	01 97       	sbiw	r24, 0x01	; 1
    2760:	9c 83       	std	Y+4, r25	; 0x04
    2762:	8b 83       	std	Y+3, r24	; 0x03
    2764:	8b 81       	ldd	r24, Y+3	; 0x03
    2766:	9c 81       	ldd	r25, Y+4	; 0x04
    2768:	23 e2       	ldi	r18, 0x23	; 35
    276a:	fc 01       	movw	r30, r24
    276c:	20 83       	st	Z, r18
    276e:	8b 81       	ldd	r24, Y+3	; 0x03
    2770:	9c 81       	ldd	r25, Y+4	; 0x04
    2772:	01 97       	sbiw	r24, 0x01	; 1
    2774:	9c 83       	std	Y+4, r25	; 0x04
    2776:	8b 83       	std	Y+3, r24	; 0x03
    2778:	8f 81       	ldd	r24, Y+7	; 0x07
    277a:	98 85       	ldd	r25, Y+8	; 0x08
    277c:	9a 83       	std	Y+2, r25	; 0x02
    277e:	89 83       	std	Y+1, r24	; 0x01
    2780:	29 81       	ldd	r18, Y+1	; 0x01
    2782:	8b 81       	ldd	r24, Y+3	; 0x03
    2784:	9c 81       	ldd	r25, Y+4	; 0x04
    2786:	fc 01       	movw	r30, r24
    2788:	20 83       	st	Z, r18
    278a:	8b 81       	ldd	r24, Y+3	; 0x03
    278c:	9c 81       	ldd	r25, Y+4	; 0x04
    278e:	01 97       	sbiw	r24, 0x01	; 1
    2790:	9c 83       	std	Y+4, r25	; 0x04
    2792:	8b 83       	std	Y+3, r24	; 0x03
    2794:	89 81       	ldd	r24, Y+1	; 0x01
    2796:	9a 81       	ldd	r25, Y+2	; 0x02
    2798:	89 2f       	mov	r24, r25
    279a:	99 27       	eor	r25, r25
    279c:	9a 83       	std	Y+2, r25	; 0x02
    279e:	89 83       	std	Y+1, r24	; 0x01
    27a0:	29 81       	ldd	r18, Y+1	; 0x01
    27a2:	8b 81       	ldd	r24, Y+3	; 0x03
    27a4:	9c 81       	ldd	r25, Y+4	; 0x04
    27a6:	fc 01       	movw	r30, r24
    27a8:	20 83       	st	Z, r18
    27aa:	8b 81       	ldd	r24, Y+3	; 0x03
    27ac:	9c 81       	ldd	r25, Y+4	; 0x04
    27ae:	01 97       	sbiw	r24, 0x01	; 1
    27b0:	9c 83       	std	Y+4, r25	; 0x04
    27b2:	8b 83       	std	Y+3, r24	; 0x03
    27b4:	8b 81       	ldd	r24, Y+3	; 0x03
    27b6:	9c 81       	ldd	r25, Y+4	; 0x04
    27b8:	26 e2       	ldi	r18, 0x26	; 38
    27ba:	fc 01       	movw	r30, r24
    27bc:	20 83       	st	Z, r18
    27be:	8b 81       	ldd	r24, Y+3	; 0x03
    27c0:	9c 81       	ldd	r25, Y+4	; 0x04
    27c2:	01 97       	sbiw	r24, 0x01	; 1
    27c4:	9c 83       	std	Y+4, r25	; 0x04
    27c6:	8b 83       	std	Y+3, r24	; 0x03
    27c8:	8b 81       	ldd	r24, Y+3	; 0x03
    27ca:	9c 81       	ldd	r25, Y+4	; 0x04
    27cc:	27 e2       	ldi	r18, 0x27	; 39
    27ce:	fc 01       	movw	r30, r24
    27d0:	20 83       	st	Z, r18
    27d2:	8b 81       	ldd	r24, Y+3	; 0x03
    27d4:	9c 81       	ldd	r25, Y+4	; 0x04
    27d6:	01 97       	sbiw	r24, 0x01	; 1
    27d8:	9c 83       	std	Y+4, r25	; 0x04
    27da:	8b 83       	std	Y+3, r24	; 0x03
    27dc:	8b 81       	ldd	r24, Y+3	; 0x03
    27de:	9c 81       	ldd	r25, Y+4	; 0x04
    27e0:	28 e2       	ldi	r18, 0x28	; 40
    27e2:	fc 01       	movw	r30, r24
    27e4:	20 83       	st	Z, r18
    27e6:	8b 81       	ldd	r24, Y+3	; 0x03
    27e8:	9c 81       	ldd	r25, Y+4	; 0x04
    27ea:	01 97       	sbiw	r24, 0x01	; 1
    27ec:	9c 83       	std	Y+4, r25	; 0x04
    27ee:	8b 83       	std	Y+3, r24	; 0x03
    27f0:	8b 81       	ldd	r24, Y+3	; 0x03
    27f2:	9c 81       	ldd	r25, Y+4	; 0x04
    27f4:	29 e2       	ldi	r18, 0x29	; 41
    27f6:	fc 01       	movw	r30, r24
    27f8:	20 83       	st	Z, r18
    27fa:	8b 81       	ldd	r24, Y+3	; 0x03
    27fc:	9c 81       	ldd	r25, Y+4	; 0x04
    27fe:	01 97       	sbiw	r24, 0x01	; 1
    2800:	9c 83       	std	Y+4, r25	; 0x04
    2802:	8b 83       	std	Y+3, r24	; 0x03
    2804:	8b 81       	ldd	r24, Y+3	; 0x03
    2806:	9c 81       	ldd	r25, Y+4	; 0x04
    2808:	20 e3       	ldi	r18, 0x30	; 48
    280a:	fc 01       	movw	r30, r24
    280c:	20 83       	st	Z, r18
    280e:	8b 81       	ldd	r24, Y+3	; 0x03
    2810:	9c 81       	ldd	r25, Y+4	; 0x04
    2812:	01 97       	sbiw	r24, 0x01	; 1
    2814:	9c 83       	std	Y+4, r25	; 0x04
    2816:	8b 83       	std	Y+3, r24	; 0x03
    2818:	8b 81       	ldd	r24, Y+3	; 0x03
    281a:	9c 81       	ldd	r25, Y+4	; 0x04
    281c:	21 e3       	ldi	r18, 0x31	; 49
    281e:	fc 01       	movw	r30, r24
    2820:	20 83       	st	Z, r18
    2822:	8b 81       	ldd	r24, Y+3	; 0x03
    2824:	9c 81       	ldd	r25, Y+4	; 0x04
    2826:	01 97       	sbiw	r24, 0x01	; 1
    2828:	9c 83       	std	Y+4, r25	; 0x04
    282a:	8b 83       	std	Y+3, r24	; 0x03
    282c:	8b 81       	ldd	r24, Y+3	; 0x03
    282e:	9c 81       	ldd	r25, Y+4	; 0x04
    2830:	28 96       	adiw	r28, 0x08	; 8
    2832:	0f b6       	in	r0, 0x3f	; 63
    2834:	f8 94       	cli
    2836:	de bf       	out	0x3e, r29	; 62
    2838:	0f be       	out	0x3f, r0	; 63
    283a:	cd bf       	out	0x3d, r28	; 61
    283c:	df 91       	pop	r29
    283e:	cf 91       	pop	r28
    2840:	08 95       	ret

00002842 <xPortStartScheduler>:
    2842:	cf 93       	push	r28
    2844:	df 93       	push	r29
    2846:	cd b7       	in	r28, 0x3d	; 61
    2848:	de b7       	in	r29, 0x3e	; 62
    284a:	0e 94 0e 15 	call	0x2a1c	; 0x2a1c <prvSetupTimerInterrupt>
    284e:	a0 91 c6 07 	lds	r26, 0x07C6	; 0x8007c6 <pxCurrentTCB>
    2852:	b0 91 c7 07 	lds	r27, 0x07C7	; 0x8007c7 <pxCurrentTCB+0x1>
    2856:	cd 91       	ld	r28, X+
    2858:	cd bf       	out	0x3d, r28	; 61
    285a:	dd 91       	ld	r29, X+
    285c:	de bf       	out	0x3e, r29	; 62
    285e:	ff 91       	pop	r31
    2860:	ef 91       	pop	r30
    2862:	df 91       	pop	r29
    2864:	cf 91       	pop	r28
    2866:	bf 91       	pop	r27
    2868:	af 91       	pop	r26
    286a:	9f 91       	pop	r25
    286c:	8f 91       	pop	r24
    286e:	7f 91       	pop	r23
    2870:	6f 91       	pop	r22
    2872:	5f 91       	pop	r21
    2874:	4f 91       	pop	r20
    2876:	3f 91       	pop	r19
    2878:	2f 91       	pop	r18
    287a:	1f 91       	pop	r17
    287c:	0f 91       	pop	r16
    287e:	ff 90       	pop	r15
    2880:	ef 90       	pop	r14
    2882:	df 90       	pop	r13
    2884:	cf 90       	pop	r12
    2886:	bf 90       	pop	r11
    2888:	af 90       	pop	r10
    288a:	9f 90       	pop	r9
    288c:	8f 90       	pop	r8
    288e:	7f 90       	pop	r7
    2890:	6f 90       	pop	r6
    2892:	5f 90       	pop	r5
    2894:	4f 90       	pop	r4
    2896:	3f 90       	pop	r3
    2898:	2f 90       	pop	r2
    289a:	1f 90       	pop	r1
    289c:	0f 90       	pop	r0
    289e:	0f be       	out	0x3f, r0	; 63
    28a0:	0f 90       	pop	r0
    28a2:	08 95       	ret
    28a4:	81 e0       	ldi	r24, 0x01	; 1
    28a6:	df 91       	pop	r29
    28a8:	cf 91       	pop	r28
    28aa:	08 95       	ret

000028ac <vPortYield>:
    28ac:	0f 92       	push	r0
    28ae:	0f b6       	in	r0, 0x3f	; 63
    28b0:	f8 94       	cli
    28b2:	0f 92       	push	r0
    28b4:	1f 92       	push	r1
    28b6:	11 24       	eor	r1, r1
    28b8:	2f 92       	push	r2
    28ba:	3f 92       	push	r3
    28bc:	4f 92       	push	r4
    28be:	5f 92       	push	r5
    28c0:	6f 92       	push	r6
    28c2:	7f 92       	push	r7
    28c4:	8f 92       	push	r8
    28c6:	9f 92       	push	r9
    28c8:	af 92       	push	r10
    28ca:	bf 92       	push	r11
    28cc:	cf 92       	push	r12
    28ce:	df 92       	push	r13
    28d0:	ef 92       	push	r14
    28d2:	ff 92       	push	r15
    28d4:	0f 93       	push	r16
    28d6:	1f 93       	push	r17
    28d8:	2f 93       	push	r18
    28da:	3f 93       	push	r19
    28dc:	4f 93       	push	r20
    28de:	5f 93       	push	r21
    28e0:	6f 93       	push	r22
    28e2:	7f 93       	push	r23
    28e4:	8f 93       	push	r24
    28e6:	9f 93       	push	r25
    28e8:	af 93       	push	r26
    28ea:	bf 93       	push	r27
    28ec:	cf 93       	push	r28
    28ee:	df 93       	push	r29
    28f0:	ef 93       	push	r30
    28f2:	ff 93       	push	r31
    28f4:	a0 91 c6 07 	lds	r26, 0x07C6	; 0x8007c6 <pxCurrentTCB>
    28f8:	b0 91 c7 07 	lds	r27, 0x07C7	; 0x8007c7 <pxCurrentTCB+0x1>
    28fc:	0d b6       	in	r0, 0x3d	; 61
    28fe:	0d 92       	st	X+, r0
    2900:	0e b6       	in	r0, 0x3e	; 62
    2902:	0d 92       	st	X+, r0
    2904:	0e 94 e7 22 	call	0x45ce	; 0x45ce <vTaskSwitchContext>
    2908:	a0 91 c6 07 	lds	r26, 0x07C6	; 0x8007c6 <pxCurrentTCB>
    290c:	b0 91 c7 07 	lds	r27, 0x07C7	; 0x8007c7 <pxCurrentTCB+0x1>
    2910:	cd 91       	ld	r28, X+
    2912:	cd bf       	out	0x3d, r28	; 61
    2914:	dd 91       	ld	r29, X+
    2916:	de bf       	out	0x3e, r29	; 62
    2918:	ff 91       	pop	r31
    291a:	ef 91       	pop	r30
    291c:	df 91       	pop	r29
    291e:	cf 91       	pop	r28
    2920:	bf 91       	pop	r27
    2922:	af 91       	pop	r26
    2924:	9f 91       	pop	r25
    2926:	8f 91       	pop	r24
    2928:	7f 91       	pop	r23
    292a:	6f 91       	pop	r22
    292c:	5f 91       	pop	r21
    292e:	4f 91       	pop	r20
    2930:	3f 91       	pop	r19
    2932:	2f 91       	pop	r18
    2934:	1f 91       	pop	r17
    2936:	0f 91       	pop	r16
    2938:	ff 90       	pop	r15
    293a:	ef 90       	pop	r14
    293c:	df 90       	pop	r13
    293e:	cf 90       	pop	r12
    2940:	bf 90       	pop	r11
    2942:	af 90       	pop	r10
    2944:	9f 90       	pop	r9
    2946:	8f 90       	pop	r8
    2948:	7f 90       	pop	r7
    294a:	6f 90       	pop	r6
    294c:	5f 90       	pop	r5
    294e:	4f 90       	pop	r4
    2950:	3f 90       	pop	r3
    2952:	2f 90       	pop	r2
    2954:	1f 90       	pop	r1
    2956:	0f 90       	pop	r0
    2958:	0f be       	out	0x3f, r0	; 63
    295a:	0f 90       	pop	r0
    295c:	08 95       	ret
	...

00002960 <vPortYieldFromTick>:
    2960:	0f 92       	push	r0
    2962:	0f b6       	in	r0, 0x3f	; 63
    2964:	f8 94       	cli
    2966:	0f 92       	push	r0
    2968:	1f 92       	push	r1
    296a:	11 24       	eor	r1, r1
    296c:	2f 92       	push	r2
    296e:	3f 92       	push	r3
    2970:	4f 92       	push	r4
    2972:	5f 92       	push	r5
    2974:	6f 92       	push	r6
    2976:	7f 92       	push	r7
    2978:	8f 92       	push	r8
    297a:	9f 92       	push	r9
    297c:	af 92       	push	r10
    297e:	bf 92       	push	r11
    2980:	cf 92       	push	r12
    2982:	df 92       	push	r13
    2984:	ef 92       	push	r14
    2986:	ff 92       	push	r15
    2988:	0f 93       	push	r16
    298a:	1f 93       	push	r17
    298c:	2f 93       	push	r18
    298e:	3f 93       	push	r19
    2990:	4f 93       	push	r20
    2992:	5f 93       	push	r21
    2994:	6f 93       	push	r22
    2996:	7f 93       	push	r23
    2998:	8f 93       	push	r24
    299a:	9f 93       	push	r25
    299c:	af 93       	push	r26
    299e:	bf 93       	push	r27
    29a0:	cf 93       	push	r28
    29a2:	df 93       	push	r29
    29a4:	ef 93       	push	r30
    29a6:	ff 93       	push	r31
    29a8:	a0 91 c6 07 	lds	r26, 0x07C6	; 0x8007c6 <pxCurrentTCB>
    29ac:	b0 91 c7 07 	lds	r27, 0x07C7	; 0x8007c7 <pxCurrentTCB+0x1>
    29b0:	0d b6       	in	r0, 0x3d	; 61
    29b2:	0d 92       	st	X+, r0
    29b4:	0e b6       	in	r0, 0x3e	; 62
    29b6:	0d 92       	st	X+, r0
    29b8:	0e 94 fa 21 	call	0x43f4	; 0x43f4 <xTaskIncrementTick>
    29bc:	88 23       	and	r24, r24
    29be:	11 f0       	breq	.+4      	; 0x29c4 <vPortYieldFromTick+0x64>
    29c0:	0e 94 e7 22 	call	0x45ce	; 0x45ce <vTaskSwitchContext>
    29c4:	a0 91 c6 07 	lds	r26, 0x07C6	; 0x8007c6 <pxCurrentTCB>
    29c8:	b0 91 c7 07 	lds	r27, 0x07C7	; 0x8007c7 <pxCurrentTCB+0x1>
    29cc:	cd 91       	ld	r28, X+
    29ce:	cd bf       	out	0x3d, r28	; 61
    29d0:	dd 91       	ld	r29, X+
    29d2:	de bf       	out	0x3e, r29	; 62
    29d4:	ff 91       	pop	r31
    29d6:	ef 91       	pop	r30
    29d8:	df 91       	pop	r29
    29da:	cf 91       	pop	r28
    29dc:	bf 91       	pop	r27
    29de:	af 91       	pop	r26
    29e0:	9f 91       	pop	r25
    29e2:	8f 91       	pop	r24
    29e4:	7f 91       	pop	r23
    29e6:	6f 91       	pop	r22
    29e8:	5f 91       	pop	r21
    29ea:	4f 91       	pop	r20
    29ec:	3f 91       	pop	r19
    29ee:	2f 91       	pop	r18
    29f0:	1f 91       	pop	r17
    29f2:	0f 91       	pop	r16
    29f4:	ff 90       	pop	r15
    29f6:	ef 90       	pop	r14
    29f8:	df 90       	pop	r13
    29fa:	cf 90       	pop	r12
    29fc:	bf 90       	pop	r11
    29fe:	af 90       	pop	r10
    2a00:	9f 90       	pop	r9
    2a02:	8f 90       	pop	r8
    2a04:	7f 90       	pop	r7
    2a06:	6f 90       	pop	r6
    2a08:	5f 90       	pop	r5
    2a0a:	4f 90       	pop	r4
    2a0c:	3f 90       	pop	r3
    2a0e:	2f 90       	pop	r2
    2a10:	1f 90       	pop	r1
    2a12:	0f 90       	pop	r0
    2a14:	0f be       	out	0x3f, r0	; 63
    2a16:	0f 90       	pop	r0
    2a18:	08 95       	ret
	...

00002a1c <prvSetupTimerInterrupt>:
    2a1c:	cf 93       	push	r28
    2a1e:	df 93       	push	r29
    2a20:	00 d0       	rcall	.+0      	; 0x2a22 <prvSetupTimerInterrupt+0x6>
    2a22:	00 d0       	rcall	.+0      	; 0x2a24 <prvSetupTimerInterrupt+0x8>
    2a24:	00 d0       	rcall	.+0      	; 0x2a26 <prvSetupTimerInterrupt+0xa>
    2a26:	cd b7       	in	r28, 0x3d	; 61
    2a28:	de b7       	in	r29, 0x3e	; 62
    2a2a:	89 e9       	ldi	r24, 0x99	; 153
    2a2c:	99 e3       	ldi	r25, 0x39	; 57
    2a2e:	a0 e0       	ldi	r26, 0x00	; 0
    2a30:	b0 e0       	ldi	r27, 0x00	; 0
    2a32:	89 83       	std	Y+1, r24	; 0x01
    2a34:	9a 83       	std	Y+2, r25	; 0x02
    2a36:	ab 83       	std	Y+3, r26	; 0x03
    2a38:	bc 83       	std	Y+4, r27	; 0x04
    2a3a:	89 81       	ldd	r24, Y+1	; 0x01
    2a3c:	9a 81       	ldd	r25, Y+2	; 0x02
    2a3e:	ab 81       	ldd	r26, Y+3	; 0x03
    2a40:	bc 81       	ldd	r27, Y+4	; 0x04
    2a42:	68 94       	set
    2a44:	15 f8       	bld	r1, 5
    2a46:	b6 95       	lsr	r27
    2a48:	a7 95       	ror	r26
    2a4a:	97 95       	ror	r25
    2a4c:	87 95       	ror	r24
    2a4e:	16 94       	lsr	r1
    2a50:	d1 f7       	brne	.-12     	; 0x2a46 <prvSetupTimerInterrupt+0x2a>
    2a52:	89 83       	std	Y+1, r24	; 0x01
    2a54:	9a 83       	std	Y+2, r25	; 0x02
    2a56:	ab 83       	std	Y+3, r26	; 0x03
    2a58:	bc 83       	std	Y+4, r27	; 0x04
    2a5a:	89 81       	ldd	r24, Y+1	; 0x01
    2a5c:	9a 81       	ldd	r25, Y+2	; 0x02
    2a5e:	ab 81       	ldd	r26, Y+3	; 0x03
    2a60:	bc 81       	ldd	r27, Y+4	; 0x04
    2a62:	01 97       	sbiw	r24, 0x01	; 1
    2a64:	a1 09       	sbc	r26, r1
    2a66:	b1 09       	sbc	r27, r1
    2a68:	89 83       	std	Y+1, r24	; 0x01
    2a6a:	9a 83       	std	Y+2, r25	; 0x02
    2a6c:	ab 83       	std	Y+3, r26	; 0x03
    2a6e:	bc 83       	std	Y+4, r27	; 0x04
    2a70:	89 81       	ldd	r24, Y+1	; 0x01
    2a72:	8d 83       	std	Y+5, r24	; 0x05
    2a74:	89 81       	ldd	r24, Y+1	; 0x01
    2a76:	9a 81       	ldd	r25, Y+2	; 0x02
    2a78:	ab 81       	ldd	r26, Y+3	; 0x03
    2a7a:	bc 81       	ldd	r27, Y+4	; 0x04
    2a7c:	89 2f       	mov	r24, r25
    2a7e:	9a 2f       	mov	r25, r26
    2a80:	ab 2f       	mov	r26, r27
    2a82:	bb 27       	eor	r27, r27
    2a84:	89 83       	std	Y+1, r24	; 0x01
    2a86:	9a 83       	std	Y+2, r25	; 0x02
    2a88:	ab 83       	std	Y+3, r26	; 0x03
    2a8a:	bc 83       	std	Y+4, r27	; 0x04
    2a8c:	89 81       	ldd	r24, Y+1	; 0x01
    2a8e:	8e 83       	std	Y+6, r24	; 0x06
    2a90:	89 e8       	ldi	r24, 0x89	; 137
    2a92:	90 e0       	ldi	r25, 0x00	; 0
    2a94:	2e 81       	ldd	r18, Y+6	; 0x06
    2a96:	fc 01       	movw	r30, r24
    2a98:	20 83       	st	Z, r18
    2a9a:	88 e8       	ldi	r24, 0x88	; 136
    2a9c:	90 e0       	ldi	r25, 0x00	; 0
    2a9e:	2d 81       	ldd	r18, Y+5	; 0x05
    2aa0:	fc 01       	movw	r30, r24
    2aa2:	20 83       	st	Z, r18
    2aa4:	8b e0       	ldi	r24, 0x0B	; 11
    2aa6:	8d 83       	std	Y+5, r24	; 0x05
    2aa8:	81 e8       	ldi	r24, 0x81	; 129
    2aaa:	90 e0       	ldi	r25, 0x00	; 0
    2aac:	2d 81       	ldd	r18, Y+5	; 0x05
    2aae:	fc 01       	movw	r30, r24
    2ab0:	20 83       	st	Z, r18
    2ab2:	8f e6       	ldi	r24, 0x6F	; 111
    2ab4:	90 e0       	ldi	r25, 0x00	; 0
    2ab6:	fc 01       	movw	r30, r24
    2ab8:	80 81       	ld	r24, Z
    2aba:	8d 83       	std	Y+5, r24	; 0x05
    2abc:	8d 81       	ldd	r24, Y+5	; 0x05
    2abe:	82 60       	ori	r24, 0x02	; 2
    2ac0:	8d 83       	std	Y+5, r24	; 0x05
    2ac2:	8f e6       	ldi	r24, 0x6F	; 111
    2ac4:	90 e0       	ldi	r25, 0x00	; 0
    2ac6:	2d 81       	ldd	r18, Y+5	; 0x05
    2ac8:	fc 01       	movw	r30, r24
    2aca:	20 83       	st	Z, r18
    2acc:	00 00       	nop
    2ace:	26 96       	adiw	r28, 0x06	; 6
    2ad0:	0f b6       	in	r0, 0x3f	; 63
    2ad2:	f8 94       	cli
    2ad4:	de bf       	out	0x3e, r29	; 62
    2ad6:	0f be       	out	0x3f, r0	; 63
    2ad8:	cd bf       	out	0x3d, r28	; 61
    2ada:	df 91       	pop	r29
    2adc:	cf 91       	pop	r28
    2ade:	08 95       	ret

00002ae0 <__vector_13>:
    2ae0:	0e 94 b0 14 	call	0x2960	; 0x2960 <vPortYieldFromTick>
    2ae4:	18 95       	reti
	...

00002ae8 <_serial_tx_int_on>:
    2ae8:	cf 93       	push	r28
    2aea:	df 93       	push	r29
    2aec:	00 d0       	rcall	.+0      	; 0x2aee <_serial_tx_int_on+0x6>
    2aee:	cd b7       	in	r28, 0x3d	; 61
    2af0:	de b7       	in	r29, 0x3e	; 62
    2af2:	9a 83       	std	Y+2, r25	; 0x02
    2af4:	89 83       	std	Y+1, r24	; 0x01
    2af6:	89 81       	ldd	r24, Y+1	; 0x01
    2af8:	9a 81       	ldd	r25, Y+2	; 0x02
    2afa:	05 97       	sbiw	r24, 0x05	; 5
    2afc:	29 81       	ldd	r18, Y+1	; 0x01
    2afe:	3a 81       	ldd	r19, Y+2	; 0x02
    2b00:	25 50       	subi	r18, 0x05	; 5
    2b02:	31 09       	sbc	r19, r1
    2b04:	f9 01       	movw	r30, r18
    2b06:	20 81       	ld	r18, Z
    2b08:	20 62       	ori	r18, 0x20	; 32
    2b0a:	fc 01       	movw	r30, r24
    2b0c:	20 83       	st	Z, r18
    2b0e:	00 00       	nop
    2b10:	0f 90       	pop	r0
    2b12:	0f 90       	pop	r0
    2b14:	df 91       	pop	r29
    2b16:	cf 91       	pop	r28
    2b18:	08 95       	ret

00002b1a <serial_new_instance>:
    2b1a:	8f 92       	push	r8
    2b1c:	9f 92       	push	r9
    2b1e:	af 92       	push	r10
    2b20:	bf 92       	push	r11
    2b22:	cf 92       	push	r12
    2b24:	df 92       	push	r13
    2b26:	ef 92       	push	r14
    2b28:	0f 93       	push	r16
    2b2a:	1f 93       	push	r17
    2b2c:	cf 93       	push	r28
    2b2e:	df 93       	push	r29
    2b30:	cd b7       	in	r28, 0x3d	; 61
    2b32:	de b7       	in	r29, 0x3e	; 62
    2b34:	61 97       	sbiw	r28, 0x11	; 17
    2b36:	0f b6       	in	r0, 0x3f	; 63
    2b38:	f8 94       	cli
    2b3a:	de bf       	out	0x3e, r29	; 62
    2b3c:	0f be       	out	0x3f, r0	; 63
    2b3e:	cd bf       	out	0x3d, r28	; 61
    2b40:	8c 83       	std	Y+4, r24	; 0x04
    2b42:	4d 83       	std	Y+5, r20	; 0x05
    2b44:	5e 83       	std	Y+6, r21	; 0x06
    2b46:	6f 83       	std	Y+7, r22	; 0x07
    2b48:	78 87       	std	Y+8, r23	; 0x08
    2b4a:	29 87       	std	Y+9, r18	; 0x09
    2b4c:	0a 87       	std	Y+10, r16	; 0x0a
    2b4e:	eb 86       	std	Y+11, r14	; 0x0b
    2b50:	dd 86       	std	Y+13, r13	; 0x0d
    2b52:	cc 86       	std	Y+12, r12	; 0x0c
    2b54:	bf 86       	std	Y+15, r11	; 0x0f
    2b56:	ae 86       	std	Y+14, r10	; 0x0e
    2b58:	99 8a       	std	Y+17, r9	; 0x11
    2b5a:	88 8a       	std	Y+16, r8	; 0x10
    2b5c:	88 e0       	ldi	r24, 0x08	; 8
    2b5e:	90 e0       	ldi	r25, 0x00	; 0
    2b60:	0e 94 e0 17 	call	0x2fc0	; 0x2fc0 <pvPortMalloc>
    2b64:	9a 83       	std	Y+2, r25	; 0x02
    2b66:	89 83       	std	Y+1, r24	; 0x01
    2b68:	8c 81       	ldd	r24, Y+4	; 0x04
    2b6a:	88 2f       	mov	r24, r24
    2b6c:	90 e0       	ldi	r25, 0x00	; 0
    2b6e:	88 0f       	add	r24, r24
    2b70:	99 1f       	adc	r25, r25
    2b72:	8f 5b       	subi	r24, 0xBF	; 191
    2b74:	9d 4f       	sbci	r25, 0xFD	; 253
    2b76:	29 81       	ldd	r18, Y+1	; 0x01
    2b78:	3a 81       	ldd	r19, Y+2	; 0x02
    2b7a:	fc 01       	movw	r30, r24
    2b7c:	31 83       	std	Z+1, r19	; 0x01
    2b7e:	20 83       	st	Z, r18
    2b80:	8c 81       	ldd	r24, Y+4	; 0x04
    2b82:	88 2f       	mov	r24, r24
    2b84:	90 e0       	ldi	r25, 0x00	; 0
    2b86:	88 0f       	add	r24, r24
    2b88:	99 1f       	adc	r25, r25
    2b8a:	80 5e       	subi	r24, 0xE0	; 224
    2b8c:	9e 4f       	sbci	r25, 0xFE	; 254
    2b8e:	fc 01       	movw	r30, r24
    2b90:	20 81       	ld	r18, Z
    2b92:	31 81       	ldd	r19, Z+1	; 0x01
    2b94:	89 81       	ldd	r24, Y+1	; 0x01
    2b96:	9a 81       	ldd	r25, Y+2	; 0x02
    2b98:	fc 01       	movw	r30, r24
    2b9a:	31 83       	std	Z+1, r19	; 0x01
    2b9c:	20 83       	st	Z, r18
    2b9e:	89 81       	ldd	r24, Y+1	; 0x01
    2ba0:	9a 81       	ldd	r25, Y+2	; 0x02
    2ba2:	2e 85       	ldd	r18, Y+14	; 0x0e
    2ba4:	3f 85       	ldd	r19, Y+15	; 0x0f
    2ba6:	fc 01       	movw	r30, r24
    2ba8:	33 83       	std	Z+3, r19	; 0x03
    2baa:	22 83       	std	Z+2, r18	; 0x02
    2bac:	89 81       	ldd	r24, Y+1	; 0x01
    2bae:	9a 81       	ldd	r25, Y+2	; 0x02
    2bb0:	2c 85       	ldd	r18, Y+12	; 0x0c
    2bb2:	3d 85       	ldd	r19, Y+13	; 0x0d
    2bb4:	fc 01       	movw	r30, r24
    2bb6:	35 83       	std	Z+5, r19	; 0x05
    2bb8:	24 83       	std	Z+4, r18	; 0x04
    2bba:	89 81       	ldd	r24, Y+1	; 0x01
    2bbc:	9a 81       	ldd	r25, Y+2	; 0x02
    2bbe:	28 89       	ldd	r18, Y+16	; 0x10
    2bc0:	39 89       	ldd	r19, Y+17	; 0x11
    2bc2:	fc 01       	movw	r30, r24
    2bc4:	37 83       	std	Z+7, r19	; 0x07
    2bc6:	26 83       	std	Z+6, r18	; 0x06
    2bc8:	8f e5       	ldi	r24, 0x5F	; 95
    2bca:	90 e0       	ldi	r25, 0x00	; 0
    2bcc:	fc 01       	movw	r30, r24
    2bce:	80 81       	ld	r24, Z
    2bd0:	8b 83       	std	Y+3, r24	; 0x03
    2bd2:	f8 94       	cli
    2bd4:	89 81       	ldd	r24, Y+1	; 0x01
    2bd6:	9a 81       	ldd	r25, Y+2	; 0x02
    2bd8:	fc 01       	movw	r30, r24
    2bda:	80 81       	ld	r24, Z
    2bdc:	91 81       	ldd	r25, Z+1	; 0x01
    2bde:	06 97       	sbiw	r24, 0x06	; 6
    2be0:	29 81       	ldd	r18, Y+1	; 0x01
    2be2:	3a 81       	ldd	r19, Y+2	; 0x02
    2be4:	f9 01       	movw	r30, r18
    2be6:	20 81       	ld	r18, Z
    2be8:	31 81       	ldd	r19, Z+1	; 0x01
    2bea:	26 50       	subi	r18, 0x06	; 6
    2bec:	31 09       	sbc	r19, r1
    2bee:	f9 01       	movw	r30, r18
    2bf0:	20 81       	ld	r18, Z
    2bf2:	22 60       	ori	r18, 0x02	; 2
    2bf4:	fc 01       	movw	r30, r24
    2bf6:	20 83       	st	Z, r18
    2bf8:	89 81       	ldd	r24, Y+1	; 0x01
    2bfa:	9a 81       	ldd	r25, Y+2	; 0x02
    2bfc:	fc 01       	movw	r30, r24
    2bfe:	80 81       	ld	r24, Z
    2c00:	91 81       	ldd	r25, Z+1	; 0x01
    2c02:	8c 01       	movw	r16, r24
    2c04:	02 50       	subi	r16, 0x02	; 2
    2c06:	11 09       	sbc	r17, r1
    2c08:	8d 81       	ldd	r24, Y+5	; 0x05
    2c0a:	9e 81       	ldd	r25, Y+6	; 0x06
    2c0c:	af 81       	ldd	r26, Y+7	; 0x07
    2c0e:	b8 85       	ldd	r27, Y+8	; 0x08
    2c10:	88 0f       	add	r24, r24
    2c12:	99 1f       	adc	r25, r25
    2c14:	aa 1f       	adc	r26, r26
    2c16:	bb 1f       	adc	r27, r27
    2c18:	88 0f       	add	r24, r24
    2c1a:	99 1f       	adc	r25, r25
    2c1c:	aa 1f       	adc	r26, r26
    2c1e:	bb 1f       	adc	r27, r27
    2c20:	88 0f       	add	r24, r24
    2c22:	99 1f       	adc	r25, r25
    2c24:	aa 1f       	adc	r26, r26
    2c26:	bb 1f       	adc	r27, r27
    2c28:	9c 01       	movw	r18, r24
    2c2a:	ad 01       	movw	r20, r26
    2c2c:	80 e0       	ldi	r24, 0x00	; 0
    2c2e:	90 e0       	ldi	r25, 0x00	; 0
    2c30:	a1 ee       	ldi	r26, 0xE1	; 225
    2c32:	b0 e0       	ldi	r27, 0x00	; 0
    2c34:	bc 01       	movw	r22, r24
    2c36:	cd 01       	movw	r24, r26
    2c38:	0e 94 8c 27 	call	0x4f18	; 0x4f18 <__udivmodsi4>
    2c3c:	da 01       	movw	r26, r20
    2c3e:	c9 01       	movw	r24, r18
    2c40:	81 50       	subi	r24, 0x01	; 1
    2c42:	f8 01       	movw	r30, r16
    2c44:	80 83       	st	Z, r24
    2c46:	89 81       	ldd	r24, Y+1	; 0x01
    2c48:	9a 81       	ldd	r25, Y+2	; 0x02
    2c4a:	fc 01       	movw	r30, r24
    2c4c:	80 81       	ld	r24, Z
    2c4e:	91 81       	ldd	r25, Z+1	; 0x01
    2c50:	05 97       	sbiw	r24, 0x05	; 5
    2c52:	28 e9       	ldi	r18, 0x98	; 152
    2c54:	fc 01       	movw	r30, r24
    2c56:	20 83       	st	Z, r18
    2c58:	89 81       	ldd	r24, Y+1	; 0x01
    2c5a:	9a 81       	ldd	r25, Y+2	; 0x02
    2c5c:	fc 01       	movw	r30, r24
    2c5e:	80 81       	ld	r24, Z
    2c60:	91 81       	ldd	r25, Z+1	; 0x01
    2c62:	04 97       	sbiw	r24, 0x04	; 4
    2c64:	26 e0       	ldi	r18, 0x06	; 6
    2c66:	fc 01       	movw	r30, r24
    2c68:	20 83       	st	Z, r18
    2c6a:	8f e5       	ldi	r24, 0x5F	; 95
    2c6c:	90 e0       	ldi	r25, 0x00	; 0
    2c6e:	2b 81       	ldd	r18, Y+3	; 0x03
    2c70:	fc 01       	movw	r30, r24
    2c72:	20 83       	st	Z, r18
    2c74:	89 81       	ldd	r24, Y+1	; 0x01
    2c76:	9a 81       	ldd	r25, Y+2	; 0x02
    2c78:	61 96       	adiw	r28, 0x11	; 17
    2c7a:	0f b6       	in	r0, 0x3f	; 63
    2c7c:	f8 94       	cli
    2c7e:	de bf       	out	0x3e, r29	; 62
    2c80:	0f be       	out	0x3f, r0	; 63
    2c82:	cd bf       	out	0x3d, r28	; 61
    2c84:	df 91       	pop	r29
    2c86:	cf 91       	pop	r28
    2c88:	1f 91       	pop	r17
    2c8a:	0f 91       	pop	r16
    2c8c:	ef 90       	pop	r14
    2c8e:	df 90       	pop	r13
    2c90:	cf 90       	pop	r12
    2c92:	bf 90       	pop	r11
    2c94:	af 90       	pop	r10
    2c96:	9f 90       	pop	r9
    2c98:	8f 90       	pop	r8
    2c9a:	08 95       	ret

00002c9c <serial_send_byte>:
    2c9c:	cf 93       	push	r28
    2c9e:	df 93       	push	r29
    2ca0:	00 d0       	rcall	.+0      	; 0x2ca2 <serial_send_byte+0x6>
    2ca2:	1f 92       	push	r1
    2ca4:	cd b7       	in	r28, 0x3d	; 61
    2ca6:	de b7       	in	r29, 0x3e	; 62
    2ca8:	9a 83       	std	Y+2, r25	; 0x02
    2caa:	89 83       	std	Y+1, r24	; 0x01
    2cac:	6b 83       	std	Y+3, r22	; 0x03
    2cae:	89 81       	ldd	r24, Y+1	; 0x01
    2cb0:	9a 81       	ldd	r25, Y+2	; 0x02
    2cb2:	fc 01       	movw	r30, r24
    2cb4:	82 81       	ldd	r24, Z+2	; 0x02
    2cb6:	93 81       	ldd	r25, Z+3	; 0x03
    2cb8:	89 2b       	or	r24, r25
    2cba:	99 f0       	breq	.+38     	; 0x2ce2 <serial_send_byte+0x46>
    2cbc:	89 81       	ldd	r24, Y+1	; 0x01
    2cbe:	9a 81       	ldd	r25, Y+2	; 0x02
    2cc0:	fc 01       	movw	r30, r24
    2cc2:	82 81       	ldd	r24, Z+2	; 0x02
    2cc4:	93 81       	ldd	r25, Z+3	; 0x03
    2cc6:	6b 81       	ldd	r22, Y+3	; 0x03
    2cc8:	0e 94 cf 10 	call	0x219e	; 0x219e <buffer_put_item>
    2ccc:	88 23       	and	r24, r24
    2cce:	49 f4       	brne	.+18     	; 0x2ce2 <serial_send_byte+0x46>
    2cd0:	89 81       	ldd	r24, Y+1	; 0x01
    2cd2:	9a 81       	ldd	r25, Y+2	; 0x02
    2cd4:	fc 01       	movw	r30, r24
    2cd6:	80 81       	ld	r24, Z
    2cd8:	91 81       	ldd	r25, Z+1	; 0x01
    2cda:	0e 94 74 15 	call	0x2ae8	; 0x2ae8 <_serial_tx_int_on>
    2cde:	80 e0       	ldi	r24, 0x00	; 0
    2ce0:	01 c0       	rjmp	.+2      	; 0x2ce4 <serial_send_byte+0x48>
    2ce2:	82 e0       	ldi	r24, 0x02	; 2
    2ce4:	0f 90       	pop	r0
    2ce6:	0f 90       	pop	r0
    2ce8:	0f 90       	pop	r0
    2cea:	df 91       	pop	r29
    2cec:	cf 91       	pop	r28
    2cee:	08 95       	ret

00002cf0 <__vector_20>:
    2cf0:	1f 92       	push	r1
    2cf2:	0f 92       	push	r0
    2cf4:	00 90 5f 00 	lds	r0, 0x005F	; 0x80005f <__TEXT_REGION_LENGTH__+0x7e005f>
    2cf8:	0f 92       	push	r0
    2cfa:	11 24       	eor	r1, r1
    2cfc:	2f 93       	push	r18
    2cfe:	3f 93       	push	r19
    2d00:	4f 93       	push	r20
    2d02:	5f 93       	push	r21
    2d04:	6f 93       	push	r22
    2d06:	7f 93       	push	r23
    2d08:	8f 93       	push	r24
    2d0a:	9f 93       	push	r25
    2d0c:	af 93       	push	r26
    2d0e:	bf 93       	push	r27
    2d10:	ef 93       	push	r30
    2d12:	ff 93       	push	r31
    2d14:	cf 93       	push	r28
    2d16:	df 93       	push	r29
    2d18:	1f 92       	push	r1
    2d1a:	cd b7       	in	r28, 0x3d	; 61
    2d1c:	de b7       	in	r29, 0x3e	; 62
    2d1e:	80 91 41 02 	lds	r24, 0x0241	; 0x800241 <_ser_handle>
    2d22:	90 91 42 02 	lds	r25, 0x0242	; 0x800242 <_ser_handle+0x1>
    2d26:	89 2b       	or	r24, r25
    2d28:	31 f1       	breq	.+76     	; 0x2d76 <__vector_20+0x86>
    2d2a:	86 ec       	ldi	r24, 0xC6	; 198
    2d2c:	90 e0       	ldi	r25, 0x00	; 0
    2d2e:	fc 01       	movw	r30, r24
    2d30:	80 81       	ld	r24, Z
    2d32:	89 83       	std	Y+1, r24	; 0x01
    2d34:	80 91 41 02 	lds	r24, 0x0241	; 0x800241 <_ser_handle>
    2d38:	90 91 42 02 	lds	r25, 0x0242	; 0x800242 <_ser_handle+0x1>
    2d3c:	fc 01       	movw	r30, r24
    2d3e:	84 81       	ldd	r24, Z+4	; 0x04
    2d40:	95 81       	ldd	r25, Z+5	; 0x05
    2d42:	69 81       	ldd	r22, Y+1	; 0x01
    2d44:	0e 94 cf 10 	call	0x219e	; 0x219e <buffer_put_item>
    2d48:	80 91 41 02 	lds	r24, 0x0241	; 0x800241 <_ser_handle>
    2d4c:	90 91 42 02 	lds	r25, 0x0242	; 0x800242 <_ser_handle+0x1>
    2d50:	fc 01       	movw	r30, r24
    2d52:	86 81       	ldd	r24, Z+6	; 0x06
    2d54:	97 81       	ldd	r25, Z+7	; 0x07
    2d56:	89 2b       	or	r24, r25
    2d58:	71 f0       	breq	.+28     	; 0x2d76 <__vector_20+0x86>
    2d5a:	80 91 41 02 	lds	r24, 0x0241	; 0x800241 <_ser_handle>
    2d5e:	90 91 42 02 	lds	r25, 0x0242	; 0x800242 <_ser_handle+0x1>
    2d62:	fc 01       	movw	r30, r24
    2d64:	26 81       	ldd	r18, Z+6	; 0x06
    2d66:	37 81       	ldd	r19, Z+7	; 0x07
    2d68:	80 91 41 02 	lds	r24, 0x0241	; 0x800241 <_ser_handle>
    2d6c:	90 91 42 02 	lds	r25, 0x0242	; 0x800242 <_ser_handle+0x1>
    2d70:	69 81       	ldd	r22, Y+1	; 0x01
    2d72:	f9 01       	movw	r30, r18
    2d74:	09 95       	icall
    2d76:	00 00       	nop
    2d78:	0f 90       	pop	r0
    2d7a:	df 91       	pop	r29
    2d7c:	cf 91       	pop	r28
    2d7e:	ff 91       	pop	r31
    2d80:	ef 91       	pop	r30
    2d82:	bf 91       	pop	r27
    2d84:	af 91       	pop	r26
    2d86:	9f 91       	pop	r25
    2d88:	8f 91       	pop	r24
    2d8a:	7f 91       	pop	r23
    2d8c:	6f 91       	pop	r22
    2d8e:	5f 91       	pop	r21
    2d90:	4f 91       	pop	r20
    2d92:	3f 91       	pop	r19
    2d94:	2f 91       	pop	r18
    2d96:	0f 90       	pop	r0
    2d98:	00 92 5f 00 	sts	0x005F, r0	; 0x80005f <__TEXT_REGION_LENGTH__+0x7e005f>
    2d9c:	0f 90       	pop	r0
    2d9e:	1f 90       	pop	r1
    2da0:	18 95       	reti

00002da2 <__vector_21>:
    2da2:	1f 92       	push	r1
    2da4:	0f 92       	push	r0
    2da6:	00 90 5f 00 	lds	r0, 0x005F	; 0x80005f <__TEXT_REGION_LENGTH__+0x7e005f>
    2daa:	0f 92       	push	r0
    2dac:	11 24       	eor	r1, r1
    2dae:	2f 93       	push	r18
    2db0:	3f 93       	push	r19
    2db2:	4f 93       	push	r20
    2db4:	5f 93       	push	r21
    2db6:	6f 93       	push	r22
    2db8:	7f 93       	push	r23
    2dba:	8f 93       	push	r24
    2dbc:	9f 93       	push	r25
    2dbe:	af 93       	push	r26
    2dc0:	bf 93       	push	r27
    2dc2:	ef 93       	push	r30
    2dc4:	ff 93       	push	r31
    2dc6:	cf 93       	push	r28
    2dc8:	df 93       	push	r29
    2dca:	1f 92       	push	r1
    2dcc:	cd b7       	in	r28, 0x3d	; 61
    2dce:	de b7       	in	r29, 0x3e	; 62
    2dd0:	80 91 41 02 	lds	r24, 0x0241	; 0x800241 <_ser_handle>
    2dd4:	90 91 42 02 	lds	r25, 0x0242	; 0x800242 <_ser_handle+0x1>
    2dd8:	89 2b       	or	r24, r25
    2dda:	f9 f0       	breq	.+62     	; 0x2e1a <__vector_21+0x78>
    2ddc:	80 91 41 02 	lds	r24, 0x0241	; 0x800241 <_ser_handle>
    2de0:	90 91 42 02 	lds	r25, 0x0242	; 0x800242 <_ser_handle+0x1>
    2de4:	fc 01       	movw	r30, r24
    2de6:	82 81       	ldd	r24, Z+2	; 0x02
    2de8:	93 81       	ldd	r25, Z+3	; 0x03
    2dea:	9e 01       	movw	r18, r28
    2dec:	2f 5f       	subi	r18, 0xFF	; 255
    2dee:	3f 4f       	sbci	r19, 0xFF	; 255
    2df0:	b9 01       	movw	r22, r18
    2df2:	0e 94 87 10 	call	0x210e	; 0x210e <buffer_get_item>
    2df6:	88 23       	and	r24, r24
    2df8:	31 f4       	brne	.+12     	; 0x2e06 <__vector_21+0x64>
    2dfa:	86 ec       	ldi	r24, 0xC6	; 198
    2dfc:	90 e0       	ldi	r25, 0x00	; 0
    2dfe:	29 81       	ldd	r18, Y+1	; 0x01
    2e00:	fc 01       	movw	r30, r24
    2e02:	20 83       	st	Z, r18
    2e04:	13 c0       	rjmp	.+38     	; 0x2e2c <__vector_21+0x8a>
    2e06:	81 ec       	ldi	r24, 0xC1	; 193
    2e08:	90 e0       	ldi	r25, 0x00	; 0
    2e0a:	21 ec       	ldi	r18, 0xC1	; 193
    2e0c:	30 e0       	ldi	r19, 0x00	; 0
    2e0e:	f9 01       	movw	r30, r18
    2e10:	20 81       	ld	r18, Z
    2e12:	2f 7d       	andi	r18, 0xDF	; 223
    2e14:	fc 01       	movw	r30, r24
    2e16:	20 83       	st	Z, r18
    2e18:	09 c0       	rjmp	.+18     	; 0x2e2c <__vector_21+0x8a>
    2e1a:	81 ec       	ldi	r24, 0xC1	; 193
    2e1c:	90 e0       	ldi	r25, 0x00	; 0
    2e1e:	21 ec       	ldi	r18, 0xC1	; 193
    2e20:	30 e0       	ldi	r19, 0x00	; 0
    2e22:	f9 01       	movw	r30, r18
    2e24:	20 81       	ld	r18, Z
    2e26:	2f 7d       	andi	r18, 0xDF	; 223
    2e28:	fc 01       	movw	r30, r24
    2e2a:	20 83       	st	Z, r18
    2e2c:	00 00       	nop
    2e2e:	0f 90       	pop	r0
    2e30:	df 91       	pop	r29
    2e32:	cf 91       	pop	r28
    2e34:	ff 91       	pop	r31
    2e36:	ef 91       	pop	r30
    2e38:	bf 91       	pop	r27
    2e3a:	af 91       	pop	r26
    2e3c:	9f 91       	pop	r25
    2e3e:	8f 91       	pop	r24
    2e40:	7f 91       	pop	r23
    2e42:	6f 91       	pop	r22
    2e44:	5f 91       	pop	r21
    2e46:	4f 91       	pop	r20
    2e48:	3f 91       	pop	r19
    2e4a:	2f 91       	pop	r18
    2e4c:	0f 90       	pop	r0
    2e4e:	00 92 5f 00 	sts	0x005F, r0	; 0x80005f <__TEXT_REGION_LENGTH__+0x7e005f>
    2e52:	0f 90       	pop	r0
    2e54:	1f 90       	pop	r1
    2e56:	18 95       	reti

00002e58 <__vector_28>:
    2e58:	1f 92       	push	r1
    2e5a:	0f 92       	push	r0
    2e5c:	00 90 5f 00 	lds	r0, 0x005F	; 0x80005f <__TEXT_REGION_LENGTH__+0x7e005f>
    2e60:	0f 92       	push	r0
    2e62:	11 24       	eor	r1, r1
    2e64:	2f 93       	push	r18
    2e66:	3f 93       	push	r19
    2e68:	4f 93       	push	r20
    2e6a:	5f 93       	push	r21
    2e6c:	6f 93       	push	r22
    2e6e:	7f 93       	push	r23
    2e70:	8f 93       	push	r24
    2e72:	9f 93       	push	r25
    2e74:	af 93       	push	r26
    2e76:	bf 93       	push	r27
    2e78:	ef 93       	push	r30
    2e7a:	ff 93       	push	r31
    2e7c:	cf 93       	push	r28
    2e7e:	df 93       	push	r29
    2e80:	1f 92       	push	r1
    2e82:	cd b7       	in	r28, 0x3d	; 61
    2e84:	de b7       	in	r29, 0x3e	; 62
    2e86:	80 91 43 02 	lds	r24, 0x0243	; 0x800243 <_ser_handle+0x2>
    2e8a:	90 91 44 02 	lds	r25, 0x0244	; 0x800244 <_ser_handle+0x3>
    2e8e:	89 2b       	or	r24, r25
    2e90:	31 f1       	breq	.+76     	; 0x2ede <__vector_28+0x86>
    2e92:	8e ec       	ldi	r24, 0xCE	; 206
    2e94:	90 e0       	ldi	r25, 0x00	; 0
    2e96:	fc 01       	movw	r30, r24
    2e98:	80 81       	ld	r24, Z
    2e9a:	89 83       	std	Y+1, r24	; 0x01
    2e9c:	80 91 43 02 	lds	r24, 0x0243	; 0x800243 <_ser_handle+0x2>
    2ea0:	90 91 44 02 	lds	r25, 0x0244	; 0x800244 <_ser_handle+0x3>
    2ea4:	fc 01       	movw	r30, r24
    2ea6:	84 81       	ldd	r24, Z+4	; 0x04
    2ea8:	95 81       	ldd	r25, Z+5	; 0x05
    2eaa:	69 81       	ldd	r22, Y+1	; 0x01
    2eac:	0e 94 cf 10 	call	0x219e	; 0x219e <buffer_put_item>
    2eb0:	80 91 43 02 	lds	r24, 0x0243	; 0x800243 <_ser_handle+0x2>
    2eb4:	90 91 44 02 	lds	r25, 0x0244	; 0x800244 <_ser_handle+0x3>
    2eb8:	fc 01       	movw	r30, r24
    2eba:	86 81       	ldd	r24, Z+6	; 0x06
    2ebc:	97 81       	ldd	r25, Z+7	; 0x07
    2ebe:	89 2b       	or	r24, r25
    2ec0:	71 f0       	breq	.+28     	; 0x2ede <__vector_28+0x86>
    2ec2:	80 91 43 02 	lds	r24, 0x0243	; 0x800243 <_ser_handle+0x2>
    2ec6:	90 91 44 02 	lds	r25, 0x0244	; 0x800244 <_ser_handle+0x3>
    2eca:	fc 01       	movw	r30, r24
    2ecc:	26 81       	ldd	r18, Z+6	; 0x06
    2ece:	37 81       	ldd	r19, Z+7	; 0x07
    2ed0:	80 91 43 02 	lds	r24, 0x0243	; 0x800243 <_ser_handle+0x2>
    2ed4:	90 91 44 02 	lds	r25, 0x0244	; 0x800244 <_ser_handle+0x3>
    2ed8:	69 81       	ldd	r22, Y+1	; 0x01
    2eda:	f9 01       	movw	r30, r18
    2edc:	09 95       	icall
    2ede:	00 00       	nop
    2ee0:	0f 90       	pop	r0
    2ee2:	df 91       	pop	r29
    2ee4:	cf 91       	pop	r28
    2ee6:	ff 91       	pop	r31
    2ee8:	ef 91       	pop	r30
    2eea:	bf 91       	pop	r27
    2eec:	af 91       	pop	r26
    2eee:	9f 91       	pop	r25
    2ef0:	8f 91       	pop	r24
    2ef2:	7f 91       	pop	r23
    2ef4:	6f 91       	pop	r22
    2ef6:	5f 91       	pop	r21
    2ef8:	4f 91       	pop	r20
    2efa:	3f 91       	pop	r19
    2efc:	2f 91       	pop	r18
    2efe:	0f 90       	pop	r0
    2f00:	00 92 5f 00 	sts	0x005F, r0	; 0x80005f <__TEXT_REGION_LENGTH__+0x7e005f>
    2f04:	0f 90       	pop	r0
    2f06:	1f 90       	pop	r1
    2f08:	18 95       	reti

00002f0a <__vector_29>:
    2f0a:	1f 92       	push	r1
    2f0c:	0f 92       	push	r0
    2f0e:	00 90 5f 00 	lds	r0, 0x005F	; 0x80005f <__TEXT_REGION_LENGTH__+0x7e005f>
    2f12:	0f 92       	push	r0
    2f14:	11 24       	eor	r1, r1
    2f16:	2f 93       	push	r18
    2f18:	3f 93       	push	r19
    2f1a:	4f 93       	push	r20
    2f1c:	5f 93       	push	r21
    2f1e:	6f 93       	push	r22
    2f20:	7f 93       	push	r23
    2f22:	8f 93       	push	r24
    2f24:	9f 93       	push	r25
    2f26:	af 93       	push	r26
    2f28:	bf 93       	push	r27
    2f2a:	ef 93       	push	r30
    2f2c:	ff 93       	push	r31
    2f2e:	cf 93       	push	r28
    2f30:	df 93       	push	r29
    2f32:	1f 92       	push	r1
    2f34:	cd b7       	in	r28, 0x3d	; 61
    2f36:	de b7       	in	r29, 0x3e	; 62
    2f38:	80 91 43 02 	lds	r24, 0x0243	; 0x800243 <_ser_handle+0x2>
    2f3c:	90 91 44 02 	lds	r25, 0x0244	; 0x800244 <_ser_handle+0x3>
    2f40:	89 2b       	or	r24, r25
    2f42:	f9 f0       	breq	.+62     	; 0x2f82 <__vector_29+0x78>
    2f44:	80 91 43 02 	lds	r24, 0x0243	; 0x800243 <_ser_handle+0x2>
    2f48:	90 91 44 02 	lds	r25, 0x0244	; 0x800244 <_ser_handle+0x3>
    2f4c:	fc 01       	movw	r30, r24
    2f4e:	82 81       	ldd	r24, Z+2	; 0x02
    2f50:	93 81       	ldd	r25, Z+3	; 0x03
    2f52:	9e 01       	movw	r18, r28
    2f54:	2f 5f       	subi	r18, 0xFF	; 255
    2f56:	3f 4f       	sbci	r19, 0xFF	; 255
    2f58:	b9 01       	movw	r22, r18
    2f5a:	0e 94 87 10 	call	0x210e	; 0x210e <buffer_get_item>
    2f5e:	88 23       	and	r24, r24
    2f60:	31 f4       	brne	.+12     	; 0x2f6e <__vector_29+0x64>
    2f62:	8e ec       	ldi	r24, 0xCE	; 206
    2f64:	90 e0       	ldi	r25, 0x00	; 0
    2f66:	29 81       	ldd	r18, Y+1	; 0x01
    2f68:	fc 01       	movw	r30, r24
    2f6a:	20 83       	st	Z, r18
    2f6c:	13 c0       	rjmp	.+38     	; 0x2f94 <__vector_29+0x8a>
    2f6e:	89 ec       	ldi	r24, 0xC9	; 201
    2f70:	90 e0       	ldi	r25, 0x00	; 0
    2f72:	29 ec       	ldi	r18, 0xC9	; 201
    2f74:	30 e0       	ldi	r19, 0x00	; 0
    2f76:	f9 01       	movw	r30, r18
    2f78:	20 81       	ld	r18, Z
    2f7a:	2f 7d       	andi	r18, 0xDF	; 223
    2f7c:	fc 01       	movw	r30, r24
    2f7e:	20 83       	st	Z, r18
    2f80:	09 c0       	rjmp	.+18     	; 0x2f94 <__vector_29+0x8a>
    2f82:	89 ec       	ldi	r24, 0xC9	; 201
    2f84:	90 e0       	ldi	r25, 0x00	; 0
    2f86:	29 ec       	ldi	r18, 0xC9	; 201
    2f88:	30 e0       	ldi	r19, 0x00	; 0
    2f8a:	f9 01       	movw	r30, r18
    2f8c:	20 81       	ld	r18, Z
    2f8e:	2f 7d       	andi	r18, 0xDF	; 223
    2f90:	fc 01       	movw	r30, r24
    2f92:	20 83       	st	Z, r18
    2f94:	00 00       	nop
    2f96:	0f 90       	pop	r0
    2f98:	df 91       	pop	r29
    2f9a:	cf 91       	pop	r28
    2f9c:	ff 91       	pop	r31
    2f9e:	ef 91       	pop	r30
    2fa0:	bf 91       	pop	r27
    2fa2:	af 91       	pop	r26
    2fa4:	9f 91       	pop	r25
    2fa6:	8f 91       	pop	r24
    2fa8:	7f 91       	pop	r23
    2faa:	6f 91       	pop	r22
    2fac:	5f 91       	pop	r21
    2fae:	4f 91       	pop	r20
    2fb0:	3f 91       	pop	r19
    2fb2:	2f 91       	pop	r18
    2fb4:	0f 90       	pop	r0
    2fb6:	00 92 5f 00 	sts	0x005F, r0	; 0x80005f <__TEXT_REGION_LENGTH__+0x7e005f>
    2fba:	0f 90       	pop	r0
    2fbc:	1f 90       	pop	r1
    2fbe:	18 95       	reti

00002fc0 <pvPortMalloc>:
    2fc0:	cf 93       	push	r28
    2fc2:	df 93       	push	r29
    2fc4:	cd b7       	in	r28, 0x3d	; 61
    2fc6:	de b7       	in	r29, 0x3e	; 62
    2fc8:	2e 97       	sbiw	r28, 0x0e	; 14
    2fca:	0f b6       	in	r0, 0x3f	; 63
    2fcc:	f8 94       	cli
    2fce:	de bf       	out	0x3e, r29	; 62
    2fd0:	0f be       	out	0x3f, r0	; 63
    2fd2:	cd bf       	out	0x3d, r28	; 61
    2fd4:	9e 87       	std	Y+14, r25	; 0x0e
    2fd6:	8d 87       	std	Y+13, r24	; 0x0d
    2fd8:	1e 82       	std	Y+6, r1	; 0x06
    2fda:	1d 82       	std	Y+5, r1	; 0x05
    2fdc:	0e 94 3f 21 	call	0x427e	; 0x427e <vTaskSuspendAll>
    2fe0:	80 91 c5 07 	lds	r24, 0x07C5	; 0x8007c5 <xHeapHasBeenInitialised.2095>
    2fe4:	88 23       	and	r24, r24
    2fe6:	29 f4       	brne	.+10     	; 0x2ff2 <pvPortMalloc+0x32>
    2fe8:	0e 94 47 19 	call	0x328e	; 0x328e <prvHeapInit>
    2fec:	81 e0       	ldi	r24, 0x01	; 1
    2fee:	80 93 c5 07 	sts	0x07C5, r24	; 0x8007c5 <xHeapHasBeenInitialised.2095>
    2ff2:	8d 85       	ldd	r24, Y+13	; 0x0d
    2ff4:	9e 85       	ldd	r25, Y+14	; 0x0e
    2ff6:	89 2b       	or	r24, r25
    2ff8:	41 f0       	breq	.+16     	; 0x300a <pvPortMalloc+0x4a>
    2ffa:	84 e0       	ldi	r24, 0x04	; 4
    2ffc:	90 e0       	ldi	r25, 0x00	; 0
    2ffe:	2d 85       	ldd	r18, Y+13	; 0x0d
    3000:	3e 85       	ldd	r19, Y+14	; 0x0e
    3002:	82 0f       	add	r24, r18
    3004:	93 1f       	adc	r25, r19
    3006:	9e 87       	std	Y+14, r25	; 0x0e
    3008:	8d 87       	std	Y+13, r24	; 0x0d
    300a:	8d 85       	ldd	r24, Y+13	; 0x0d
    300c:	9e 85       	ldd	r25, Y+14	; 0x0e
    300e:	89 2b       	or	r24, r25
    3010:	09 f4       	brne	.+2      	; 0x3014 <pvPortMalloc+0x54>
    3012:	b8 c0       	rjmp	.+368    	; 0x3184 <pvPortMalloc+0x1c4>
    3014:	8d 85       	ldd	r24, Y+13	; 0x0d
    3016:	9e 85       	ldd	r25, Y+14	; 0x0e
    3018:	87 37       	cpi	r24, 0x77	; 119
    301a:	95 40       	sbci	r25, 0x05	; 5
    301c:	08 f0       	brcs	.+2      	; 0x3020 <pvPortMalloc+0x60>
    301e:	b2 c0       	rjmp	.+356    	; 0x3184 <pvPortMalloc+0x1c4>
    3020:	8d eb       	ldi	r24, 0xBD	; 189
    3022:	97 e0       	ldi	r25, 0x07	; 7
    3024:	9c 83       	std	Y+4, r25	; 0x04
    3026:	8b 83       	std	Y+3, r24	; 0x03
    3028:	80 91 bd 07 	lds	r24, 0x07BD	; 0x8007bd <xStart>
    302c:	90 91 be 07 	lds	r25, 0x07BE	; 0x8007be <xStart+0x1>
    3030:	9a 83       	std	Y+2, r25	; 0x02
    3032:	89 83       	std	Y+1, r24	; 0x01
    3034:	0b c0       	rjmp	.+22     	; 0x304c <pvPortMalloc+0x8c>
    3036:	89 81       	ldd	r24, Y+1	; 0x01
    3038:	9a 81       	ldd	r25, Y+2	; 0x02
    303a:	9c 83       	std	Y+4, r25	; 0x04
    303c:	8b 83       	std	Y+3, r24	; 0x03
    303e:	89 81       	ldd	r24, Y+1	; 0x01
    3040:	9a 81       	ldd	r25, Y+2	; 0x02
    3042:	fc 01       	movw	r30, r24
    3044:	80 81       	ld	r24, Z
    3046:	91 81       	ldd	r25, Z+1	; 0x01
    3048:	9a 83       	std	Y+2, r25	; 0x02
    304a:	89 83       	std	Y+1, r24	; 0x01
    304c:	89 81       	ldd	r24, Y+1	; 0x01
    304e:	9a 81       	ldd	r25, Y+2	; 0x02
    3050:	fc 01       	movw	r30, r24
    3052:	22 81       	ldd	r18, Z+2	; 0x02
    3054:	33 81       	ldd	r19, Z+3	; 0x03
    3056:	8d 85       	ldd	r24, Y+13	; 0x0d
    3058:	9e 85       	ldd	r25, Y+14	; 0x0e
    305a:	28 17       	cp	r18, r24
    305c:	39 07       	cpc	r19, r25
    305e:	38 f4       	brcc	.+14     	; 0x306e <pvPortMalloc+0xae>
    3060:	89 81       	ldd	r24, Y+1	; 0x01
    3062:	9a 81       	ldd	r25, Y+2	; 0x02
    3064:	fc 01       	movw	r30, r24
    3066:	80 81       	ld	r24, Z
    3068:	91 81       	ldd	r25, Z+1	; 0x01
    306a:	89 2b       	or	r24, r25
    306c:	21 f7       	brne	.-56     	; 0x3036 <pvPortMalloc+0x76>
    306e:	89 81       	ldd	r24, Y+1	; 0x01
    3070:	9a 81       	ldd	r25, Y+2	; 0x02
    3072:	81 5c       	subi	r24, 0xC1	; 193
    3074:	97 40       	sbci	r25, 0x07	; 7
    3076:	09 f4       	brne	.+2      	; 0x307a <pvPortMalloc+0xba>
    3078:	85 c0       	rjmp	.+266    	; 0x3184 <pvPortMalloc+0x1c4>
    307a:	8b 81       	ldd	r24, Y+3	; 0x03
    307c:	9c 81       	ldd	r25, Y+4	; 0x04
    307e:	fc 01       	movw	r30, r24
    3080:	20 81       	ld	r18, Z
    3082:	31 81       	ldd	r19, Z+1	; 0x01
    3084:	84 e0       	ldi	r24, 0x04	; 4
    3086:	90 e0       	ldi	r25, 0x00	; 0
    3088:	82 0f       	add	r24, r18
    308a:	93 1f       	adc	r25, r19
    308c:	9e 83       	std	Y+6, r25	; 0x06
    308e:	8d 83       	std	Y+5, r24	; 0x05
    3090:	89 81       	ldd	r24, Y+1	; 0x01
    3092:	9a 81       	ldd	r25, Y+2	; 0x02
    3094:	fc 01       	movw	r30, r24
    3096:	20 81       	ld	r18, Z
    3098:	31 81       	ldd	r19, Z+1	; 0x01
    309a:	8b 81       	ldd	r24, Y+3	; 0x03
    309c:	9c 81       	ldd	r25, Y+4	; 0x04
    309e:	fc 01       	movw	r30, r24
    30a0:	31 83       	std	Z+1, r19	; 0x01
    30a2:	20 83       	st	Z, r18
    30a4:	89 81       	ldd	r24, Y+1	; 0x01
    30a6:	9a 81       	ldd	r25, Y+2	; 0x02
    30a8:	fc 01       	movw	r30, r24
    30aa:	22 81       	ldd	r18, Z+2	; 0x02
    30ac:	33 81       	ldd	r19, Z+3	; 0x03
    30ae:	8d 85       	ldd	r24, Y+13	; 0x0d
    30b0:	9e 85       	ldd	r25, Y+14	; 0x0e
    30b2:	28 1b       	sub	r18, r24
    30b4:	39 0b       	sbc	r19, r25
    30b6:	84 e0       	ldi	r24, 0x04	; 4
    30b8:	90 e0       	ldi	r25, 0x00	; 0
    30ba:	88 0f       	add	r24, r24
    30bc:	99 1f       	adc	r25, r25
    30be:	82 17       	cp	r24, r18
    30c0:	93 07       	cpc	r25, r19
    30c2:	08 f0       	brcs	.+2      	; 0x30c6 <pvPortMalloc+0x106>
    30c4:	4e c0       	rjmp	.+156    	; 0x3162 <pvPortMalloc+0x1a2>
    30c6:	29 81       	ldd	r18, Y+1	; 0x01
    30c8:	3a 81       	ldd	r19, Y+2	; 0x02
    30ca:	8d 85       	ldd	r24, Y+13	; 0x0d
    30cc:	9e 85       	ldd	r25, Y+14	; 0x0e
    30ce:	82 0f       	add	r24, r18
    30d0:	93 1f       	adc	r25, r19
    30d2:	9a 87       	std	Y+10, r25	; 0x0a
    30d4:	89 87       	std	Y+9, r24	; 0x09
    30d6:	89 81       	ldd	r24, Y+1	; 0x01
    30d8:	9a 81       	ldd	r25, Y+2	; 0x02
    30da:	fc 01       	movw	r30, r24
    30dc:	22 81       	ldd	r18, Z+2	; 0x02
    30de:	33 81       	ldd	r19, Z+3	; 0x03
    30e0:	8d 85       	ldd	r24, Y+13	; 0x0d
    30e2:	9e 85       	ldd	r25, Y+14	; 0x0e
    30e4:	28 1b       	sub	r18, r24
    30e6:	39 0b       	sbc	r19, r25
    30e8:	89 85       	ldd	r24, Y+9	; 0x09
    30ea:	9a 85       	ldd	r25, Y+10	; 0x0a
    30ec:	fc 01       	movw	r30, r24
    30ee:	33 83       	std	Z+3, r19	; 0x03
    30f0:	22 83       	std	Z+2, r18	; 0x02
    30f2:	89 81       	ldd	r24, Y+1	; 0x01
    30f4:	9a 81       	ldd	r25, Y+2	; 0x02
    30f6:	2d 85       	ldd	r18, Y+13	; 0x0d
    30f8:	3e 85       	ldd	r19, Y+14	; 0x0e
    30fa:	fc 01       	movw	r30, r24
    30fc:	33 83       	std	Z+3, r19	; 0x03
    30fe:	22 83       	std	Z+2, r18	; 0x02
    3100:	89 85       	ldd	r24, Y+9	; 0x09
    3102:	9a 85       	ldd	r25, Y+10	; 0x0a
    3104:	fc 01       	movw	r30, r24
    3106:	82 81       	ldd	r24, Z+2	; 0x02
    3108:	93 81       	ldd	r25, Z+3	; 0x03
    310a:	9c 87       	std	Y+12, r25	; 0x0c
    310c:	8b 87       	std	Y+11, r24	; 0x0b
    310e:	8d eb       	ldi	r24, 0xBD	; 189
    3110:	97 e0       	ldi	r25, 0x07	; 7
    3112:	98 87       	std	Y+8, r25	; 0x08
    3114:	8f 83       	std	Y+7, r24	; 0x07
    3116:	07 c0       	rjmp	.+14     	; 0x3126 <pvPortMalloc+0x166>
    3118:	8f 81       	ldd	r24, Y+7	; 0x07
    311a:	98 85       	ldd	r25, Y+8	; 0x08
    311c:	fc 01       	movw	r30, r24
    311e:	80 81       	ld	r24, Z
    3120:	91 81       	ldd	r25, Z+1	; 0x01
    3122:	98 87       	std	Y+8, r25	; 0x08
    3124:	8f 83       	std	Y+7, r24	; 0x07
    3126:	8f 81       	ldd	r24, Y+7	; 0x07
    3128:	98 85       	ldd	r25, Y+8	; 0x08
    312a:	fc 01       	movw	r30, r24
    312c:	80 81       	ld	r24, Z
    312e:	91 81       	ldd	r25, Z+1	; 0x01
    3130:	fc 01       	movw	r30, r24
    3132:	22 81       	ldd	r18, Z+2	; 0x02
    3134:	33 81       	ldd	r19, Z+3	; 0x03
    3136:	8b 85       	ldd	r24, Y+11	; 0x0b
    3138:	9c 85       	ldd	r25, Y+12	; 0x0c
    313a:	28 17       	cp	r18, r24
    313c:	39 07       	cpc	r19, r25
    313e:	60 f3       	brcs	.-40     	; 0x3118 <pvPortMalloc+0x158>
    3140:	8f 81       	ldd	r24, Y+7	; 0x07
    3142:	98 85       	ldd	r25, Y+8	; 0x08
    3144:	fc 01       	movw	r30, r24
    3146:	20 81       	ld	r18, Z
    3148:	31 81       	ldd	r19, Z+1	; 0x01
    314a:	89 85       	ldd	r24, Y+9	; 0x09
    314c:	9a 85       	ldd	r25, Y+10	; 0x0a
    314e:	fc 01       	movw	r30, r24
    3150:	31 83       	std	Z+1, r19	; 0x01
    3152:	20 83       	st	Z, r18
    3154:	8f 81       	ldd	r24, Y+7	; 0x07
    3156:	98 85       	ldd	r25, Y+8	; 0x08
    3158:	29 85       	ldd	r18, Y+9	; 0x09
    315a:	3a 85       	ldd	r19, Y+10	; 0x0a
    315c:	fc 01       	movw	r30, r24
    315e:	31 83       	std	Z+1, r19	; 0x01
    3160:	20 83       	st	Z, r18
    3162:	20 91 24 01 	lds	r18, 0x0124	; 0x800124 <xFreeBytesRemaining>
    3166:	30 91 25 01 	lds	r19, 0x0125	; 0x800125 <xFreeBytesRemaining+0x1>
    316a:	89 81       	ldd	r24, Y+1	; 0x01
    316c:	9a 81       	ldd	r25, Y+2	; 0x02
    316e:	fc 01       	movw	r30, r24
    3170:	82 81       	ldd	r24, Z+2	; 0x02
    3172:	93 81       	ldd	r25, Z+3	; 0x03
    3174:	a9 01       	movw	r20, r18
    3176:	48 1b       	sub	r20, r24
    3178:	59 0b       	sbc	r21, r25
    317a:	ca 01       	movw	r24, r20
    317c:	90 93 25 01 	sts	0x0125, r25	; 0x800125 <xFreeBytesRemaining+0x1>
    3180:	80 93 24 01 	sts	0x0124, r24	; 0x800124 <xFreeBytesRemaining>
    3184:	0e 94 4c 21 	call	0x4298	; 0x4298 <xTaskResumeAll>
    3188:	8d 81       	ldd	r24, Y+5	; 0x05
    318a:	9e 81       	ldd	r25, Y+6	; 0x06
    318c:	89 2b       	or	r24, r25
    318e:	11 f4       	brne	.+4      	; 0x3194 <pvPortMalloc+0x1d4>
    3190:	0e 94 cd 09 	call	0x139a	; 0x139a <vApplicationMallocFailedHook>
    3194:	8d 81       	ldd	r24, Y+5	; 0x05
    3196:	9e 81       	ldd	r25, Y+6	; 0x06
    3198:	2e 96       	adiw	r28, 0x0e	; 14
    319a:	0f b6       	in	r0, 0x3f	; 63
    319c:	f8 94       	cli
    319e:	de bf       	out	0x3e, r29	; 62
    31a0:	0f be       	out	0x3f, r0	; 63
    31a2:	cd bf       	out	0x3d, r28	; 61
    31a4:	df 91       	pop	r29
    31a6:	cf 91       	pop	r28
    31a8:	08 95       	ret

000031aa <vPortFree>:
    31aa:	cf 93       	push	r28
    31ac:	df 93       	push	r29
    31ae:	cd b7       	in	r28, 0x3d	; 61
    31b0:	de b7       	in	r29, 0x3e	; 62
    31b2:	2a 97       	sbiw	r28, 0x0a	; 10
    31b4:	0f b6       	in	r0, 0x3f	; 63
    31b6:	f8 94       	cli
    31b8:	de bf       	out	0x3e, r29	; 62
    31ba:	0f be       	out	0x3f, r0	; 63
    31bc:	cd bf       	out	0x3d, r28	; 61
    31be:	9a 87       	std	Y+10, r25	; 0x0a
    31c0:	89 87       	std	Y+9, r24	; 0x09
    31c2:	89 85       	ldd	r24, Y+9	; 0x09
    31c4:	9a 85       	ldd	r25, Y+10	; 0x0a
    31c6:	9c 83       	std	Y+4, r25	; 0x04
    31c8:	8b 83       	std	Y+3, r24	; 0x03
    31ca:	89 85       	ldd	r24, Y+9	; 0x09
    31cc:	9a 85       	ldd	r25, Y+10	; 0x0a
    31ce:	89 2b       	or	r24, r25
    31d0:	09 f4       	brne	.+2      	; 0x31d4 <vPortFree+0x2a>
    31d2:	53 c0       	rjmp	.+166    	; 0x327a <vPortFree+0xd0>
    31d4:	84 e0       	ldi	r24, 0x04	; 4
    31d6:	90 e0       	ldi	r25, 0x00	; 0
    31d8:	91 95       	neg	r25
    31da:	81 95       	neg	r24
    31dc:	91 09       	sbc	r25, r1
    31de:	2b 81       	ldd	r18, Y+3	; 0x03
    31e0:	3c 81       	ldd	r19, Y+4	; 0x04
    31e2:	82 0f       	add	r24, r18
    31e4:	93 1f       	adc	r25, r19
    31e6:	9c 83       	std	Y+4, r25	; 0x04
    31e8:	8b 83       	std	Y+3, r24	; 0x03
    31ea:	8b 81       	ldd	r24, Y+3	; 0x03
    31ec:	9c 81       	ldd	r25, Y+4	; 0x04
    31ee:	9e 83       	std	Y+6, r25	; 0x06
    31f0:	8d 83       	std	Y+5, r24	; 0x05
    31f2:	0e 94 3f 21 	call	0x427e	; 0x427e <vTaskSuspendAll>
    31f6:	8d 81       	ldd	r24, Y+5	; 0x05
    31f8:	9e 81       	ldd	r25, Y+6	; 0x06
    31fa:	fc 01       	movw	r30, r24
    31fc:	82 81       	ldd	r24, Z+2	; 0x02
    31fe:	93 81       	ldd	r25, Z+3	; 0x03
    3200:	98 87       	std	Y+8, r25	; 0x08
    3202:	8f 83       	std	Y+7, r24	; 0x07
    3204:	8d eb       	ldi	r24, 0xBD	; 189
    3206:	97 e0       	ldi	r25, 0x07	; 7
    3208:	9a 83       	std	Y+2, r25	; 0x02
    320a:	89 83       	std	Y+1, r24	; 0x01
    320c:	07 c0       	rjmp	.+14     	; 0x321c <vPortFree+0x72>
    320e:	89 81       	ldd	r24, Y+1	; 0x01
    3210:	9a 81       	ldd	r25, Y+2	; 0x02
    3212:	fc 01       	movw	r30, r24
    3214:	80 81       	ld	r24, Z
    3216:	91 81       	ldd	r25, Z+1	; 0x01
    3218:	9a 83       	std	Y+2, r25	; 0x02
    321a:	89 83       	std	Y+1, r24	; 0x01
    321c:	89 81       	ldd	r24, Y+1	; 0x01
    321e:	9a 81       	ldd	r25, Y+2	; 0x02
    3220:	fc 01       	movw	r30, r24
    3222:	80 81       	ld	r24, Z
    3224:	91 81       	ldd	r25, Z+1	; 0x01
    3226:	fc 01       	movw	r30, r24
    3228:	22 81       	ldd	r18, Z+2	; 0x02
    322a:	33 81       	ldd	r19, Z+3	; 0x03
    322c:	8f 81       	ldd	r24, Y+7	; 0x07
    322e:	98 85       	ldd	r25, Y+8	; 0x08
    3230:	28 17       	cp	r18, r24
    3232:	39 07       	cpc	r19, r25
    3234:	60 f3       	brcs	.-40     	; 0x320e <vPortFree+0x64>
    3236:	89 81       	ldd	r24, Y+1	; 0x01
    3238:	9a 81       	ldd	r25, Y+2	; 0x02
    323a:	fc 01       	movw	r30, r24
    323c:	20 81       	ld	r18, Z
    323e:	31 81       	ldd	r19, Z+1	; 0x01
    3240:	8d 81       	ldd	r24, Y+5	; 0x05
    3242:	9e 81       	ldd	r25, Y+6	; 0x06
    3244:	fc 01       	movw	r30, r24
    3246:	31 83       	std	Z+1, r19	; 0x01
    3248:	20 83       	st	Z, r18
    324a:	89 81       	ldd	r24, Y+1	; 0x01
    324c:	9a 81       	ldd	r25, Y+2	; 0x02
    324e:	2d 81       	ldd	r18, Y+5	; 0x05
    3250:	3e 81       	ldd	r19, Y+6	; 0x06
    3252:	fc 01       	movw	r30, r24
    3254:	31 83       	std	Z+1, r19	; 0x01
    3256:	20 83       	st	Z, r18
    3258:	8d 81       	ldd	r24, Y+5	; 0x05
    325a:	9e 81       	ldd	r25, Y+6	; 0x06
    325c:	fc 01       	movw	r30, r24
    325e:	22 81       	ldd	r18, Z+2	; 0x02
    3260:	33 81       	ldd	r19, Z+3	; 0x03
    3262:	80 91 24 01 	lds	r24, 0x0124	; 0x800124 <xFreeBytesRemaining>
    3266:	90 91 25 01 	lds	r25, 0x0125	; 0x800125 <xFreeBytesRemaining+0x1>
    326a:	82 0f       	add	r24, r18
    326c:	93 1f       	adc	r25, r19
    326e:	90 93 25 01 	sts	0x0125, r25	; 0x800125 <xFreeBytesRemaining+0x1>
    3272:	80 93 24 01 	sts	0x0124, r24	; 0x800124 <xFreeBytesRemaining>
    3276:	0e 94 4c 21 	call	0x4298	; 0x4298 <xTaskResumeAll>
    327a:	00 00       	nop
    327c:	2a 96       	adiw	r28, 0x0a	; 10
    327e:	0f b6       	in	r0, 0x3f	; 63
    3280:	f8 94       	cli
    3282:	de bf       	out	0x3e, r29	; 62
    3284:	0f be       	out	0x3f, r0	; 63
    3286:	cd bf       	out	0x3d, r28	; 61
    3288:	df 91       	pop	r29
    328a:	cf 91       	pop	r28
    328c:	08 95       	ret

0000328e <prvHeapInit>:
    328e:	cf 93       	push	r28
    3290:	df 93       	push	r29
    3292:	00 d0       	rcall	.+0      	; 0x3294 <prvHeapInit+0x6>
    3294:	00 d0       	rcall	.+0      	; 0x3296 <prvHeapInit+0x8>
    3296:	cd b7       	in	r28, 0x3d	; 61
    3298:	de b7       	in	r29, 0x3e	; 62
    329a:	86 e4       	ldi	r24, 0x46	; 70
    329c:	92 e0       	ldi	r25, 0x02	; 2
    329e:	9a 83       	std	Y+2, r25	; 0x02
    32a0:	89 83       	std	Y+1, r24	; 0x01
    32a2:	89 81       	ldd	r24, Y+1	; 0x01
    32a4:	9a 81       	ldd	r25, Y+2	; 0x02
    32a6:	90 93 be 07 	sts	0x07BE, r25	; 0x8007be <xStart+0x1>
    32aa:	80 93 bd 07 	sts	0x07BD, r24	; 0x8007bd <xStart>
    32ae:	10 92 c0 07 	sts	0x07C0, r1	; 0x8007c0 <xStart+0x3>
    32b2:	10 92 bf 07 	sts	0x07BF, r1	; 0x8007bf <xStart+0x2>
    32b6:	87 e7       	ldi	r24, 0x77	; 119
    32b8:	95 e0       	ldi	r25, 0x05	; 5
    32ba:	90 93 c4 07 	sts	0x07C4, r25	; 0x8007c4 <xEnd+0x3>
    32be:	80 93 c3 07 	sts	0x07C3, r24	; 0x8007c3 <xEnd+0x2>
    32c2:	10 92 c2 07 	sts	0x07C2, r1	; 0x8007c2 <xEnd+0x1>
    32c6:	10 92 c1 07 	sts	0x07C1, r1	; 0x8007c1 <xEnd>
    32ca:	89 81       	ldd	r24, Y+1	; 0x01
    32cc:	9a 81       	ldd	r25, Y+2	; 0x02
    32ce:	9c 83       	std	Y+4, r25	; 0x04
    32d0:	8b 83       	std	Y+3, r24	; 0x03
    32d2:	8b 81       	ldd	r24, Y+3	; 0x03
    32d4:	9c 81       	ldd	r25, Y+4	; 0x04
    32d6:	27 e7       	ldi	r18, 0x77	; 119
    32d8:	35 e0       	ldi	r19, 0x05	; 5
    32da:	fc 01       	movw	r30, r24
    32dc:	33 83       	std	Z+3, r19	; 0x03
    32de:	22 83       	std	Z+2, r18	; 0x02
    32e0:	8b 81       	ldd	r24, Y+3	; 0x03
    32e2:	9c 81       	ldd	r25, Y+4	; 0x04
    32e4:	21 ec       	ldi	r18, 0xC1	; 193
    32e6:	37 e0       	ldi	r19, 0x07	; 7
    32e8:	fc 01       	movw	r30, r24
    32ea:	31 83       	std	Z+1, r19	; 0x01
    32ec:	20 83       	st	Z, r18
    32ee:	00 00       	nop
    32f0:	0f 90       	pop	r0
    32f2:	0f 90       	pop	r0
    32f4:	0f 90       	pop	r0
    32f6:	0f 90       	pop	r0
    32f8:	df 91       	pop	r29
    32fa:	cf 91       	pop	r28
    32fc:	08 95       	ret

000032fe <xQueueGenericReset>:
    32fe:	cf 93       	push	r28
    3300:	df 93       	push	r29
    3302:	00 d0       	rcall	.+0      	; 0x3304 <xQueueGenericReset+0x6>
    3304:	00 d0       	rcall	.+0      	; 0x3306 <xQueueGenericReset+0x8>
    3306:	1f 92       	push	r1
    3308:	cd b7       	in	r28, 0x3d	; 61
    330a:	de b7       	in	r29, 0x3e	; 62
    330c:	9c 83       	std	Y+4, r25	; 0x04
    330e:	8b 83       	std	Y+3, r24	; 0x03
    3310:	6d 83       	std	Y+5, r22	; 0x05
    3312:	8b 81       	ldd	r24, Y+3	; 0x03
    3314:	9c 81       	ldd	r25, Y+4	; 0x04
    3316:	9a 83       	std	Y+2, r25	; 0x02
    3318:	89 83       	std	Y+1, r24	; 0x01
    331a:	0f b6       	in	r0, 0x3f	; 63
    331c:	f8 94       	cli
    331e:	0f 92       	push	r0
    3320:	89 81       	ldd	r24, Y+1	; 0x01
    3322:	9a 81       	ldd	r25, Y+2	; 0x02
    3324:	fc 01       	movw	r30, r24
    3326:	80 81       	ld	r24, Z
    3328:	91 81       	ldd	r25, Z+1	; 0x01
    332a:	29 81       	ldd	r18, Y+1	; 0x01
    332c:	3a 81       	ldd	r19, Y+2	; 0x02
    332e:	f9 01       	movw	r30, r18
    3330:	23 8d       	ldd	r18, Z+27	; 0x1b
    3332:	42 2f       	mov	r20, r18
    3334:	50 e0       	ldi	r21, 0x00	; 0
    3336:	29 81       	ldd	r18, Y+1	; 0x01
    3338:	3a 81       	ldd	r19, Y+2	; 0x02
    333a:	f9 01       	movw	r30, r18
    333c:	24 8d       	ldd	r18, Z+28	; 0x1c
    333e:	22 2f       	mov	r18, r18
    3340:	30 e0       	ldi	r19, 0x00	; 0
    3342:	42 9f       	mul	r20, r18
    3344:	b0 01       	movw	r22, r0
    3346:	43 9f       	mul	r20, r19
    3348:	70 0d       	add	r23, r0
    334a:	52 9f       	mul	r21, r18
    334c:	70 0d       	add	r23, r0
    334e:	11 24       	eor	r1, r1
    3350:	9b 01       	movw	r18, r22
    3352:	28 0f       	add	r18, r24
    3354:	39 1f       	adc	r19, r25
    3356:	89 81       	ldd	r24, Y+1	; 0x01
    3358:	9a 81       	ldd	r25, Y+2	; 0x02
    335a:	fc 01       	movw	r30, r24
    335c:	33 83       	std	Z+3, r19	; 0x03
    335e:	22 83       	std	Z+2, r18	; 0x02
    3360:	89 81       	ldd	r24, Y+1	; 0x01
    3362:	9a 81       	ldd	r25, Y+2	; 0x02
    3364:	fc 01       	movw	r30, r24
    3366:	12 8e       	std	Z+26, r1	; 0x1a
    3368:	89 81       	ldd	r24, Y+1	; 0x01
    336a:	9a 81       	ldd	r25, Y+2	; 0x02
    336c:	fc 01       	movw	r30, r24
    336e:	20 81       	ld	r18, Z
    3370:	31 81       	ldd	r19, Z+1	; 0x01
    3372:	89 81       	ldd	r24, Y+1	; 0x01
    3374:	9a 81       	ldd	r25, Y+2	; 0x02
    3376:	fc 01       	movw	r30, r24
    3378:	35 83       	std	Z+5, r19	; 0x05
    337a:	24 83       	std	Z+4, r18	; 0x04
    337c:	89 81       	ldd	r24, Y+1	; 0x01
    337e:	9a 81       	ldd	r25, Y+2	; 0x02
    3380:	fc 01       	movw	r30, r24
    3382:	80 81       	ld	r24, Z
    3384:	91 81       	ldd	r25, Z+1	; 0x01
    3386:	29 81       	ldd	r18, Y+1	; 0x01
    3388:	3a 81       	ldd	r19, Y+2	; 0x02
    338a:	f9 01       	movw	r30, r18
    338c:	23 8d       	ldd	r18, Z+27	; 0x1b
    338e:	22 2f       	mov	r18, r18
    3390:	30 e0       	ldi	r19, 0x00	; 0
    3392:	a9 01       	movw	r20, r18
    3394:	41 50       	subi	r20, 0x01	; 1
    3396:	51 09       	sbc	r21, r1
    3398:	29 81       	ldd	r18, Y+1	; 0x01
    339a:	3a 81       	ldd	r19, Y+2	; 0x02
    339c:	f9 01       	movw	r30, r18
    339e:	24 8d       	ldd	r18, Z+28	; 0x1c
    33a0:	22 2f       	mov	r18, r18
    33a2:	30 e0       	ldi	r19, 0x00	; 0
    33a4:	42 9f       	mul	r20, r18
    33a6:	b0 01       	movw	r22, r0
    33a8:	43 9f       	mul	r20, r19
    33aa:	70 0d       	add	r23, r0
    33ac:	52 9f       	mul	r21, r18
    33ae:	70 0d       	add	r23, r0
    33b0:	11 24       	eor	r1, r1
    33b2:	9b 01       	movw	r18, r22
    33b4:	28 0f       	add	r18, r24
    33b6:	39 1f       	adc	r19, r25
    33b8:	89 81       	ldd	r24, Y+1	; 0x01
    33ba:	9a 81       	ldd	r25, Y+2	; 0x02
    33bc:	fc 01       	movw	r30, r24
    33be:	37 83       	std	Z+7, r19	; 0x07
    33c0:	26 83       	std	Z+6, r18	; 0x06
    33c2:	89 81       	ldd	r24, Y+1	; 0x01
    33c4:	9a 81       	ldd	r25, Y+2	; 0x02
    33c6:	2f ef       	ldi	r18, 0xFF	; 255
    33c8:	fc 01       	movw	r30, r24
    33ca:	25 8f       	std	Z+29, r18	; 0x1d
    33cc:	89 81       	ldd	r24, Y+1	; 0x01
    33ce:	9a 81       	ldd	r25, Y+2	; 0x02
    33d0:	2f ef       	ldi	r18, 0xFF	; 255
    33d2:	fc 01       	movw	r30, r24
    33d4:	26 8f       	std	Z+30, r18	; 0x1e
    33d6:	8d 81       	ldd	r24, Y+5	; 0x05
    33d8:	88 23       	and	r24, r24
    33da:	81 f4       	brne	.+32     	; 0x33fc <xQueueGenericReset+0xfe>
    33dc:	89 81       	ldd	r24, Y+1	; 0x01
    33de:	9a 81       	ldd	r25, Y+2	; 0x02
    33e0:	fc 01       	movw	r30, r24
    33e2:	80 85       	ldd	r24, Z+8	; 0x08
    33e4:	88 23       	and	r24, r24
    33e6:	a1 f0       	breq	.+40     	; 0x3410 <xQueueGenericReset+0x112>
    33e8:	89 81       	ldd	r24, Y+1	; 0x01
    33ea:	9a 81       	ldd	r25, Y+2	; 0x02
    33ec:	08 96       	adiw	r24, 0x08	; 8
    33ee:	0e 94 af 23 	call	0x475e	; 0x475e <xTaskRemoveFromEventList>
    33f2:	88 23       	and	r24, r24
    33f4:	69 f0       	breq	.+26     	; 0x3410 <xQueueGenericReset+0x112>
    33f6:	0e 94 56 14 	call	0x28ac	; 0x28ac <vPortYield>
    33fa:	0a c0       	rjmp	.+20     	; 0x3410 <xQueueGenericReset+0x112>
    33fc:	89 81       	ldd	r24, Y+1	; 0x01
    33fe:	9a 81       	ldd	r25, Y+2	; 0x02
    3400:	08 96       	adiw	r24, 0x08	; 8
    3402:	0e 94 12 11 	call	0x2224	; 0x2224 <vListInitialise>
    3406:	89 81       	ldd	r24, Y+1	; 0x01
    3408:	9a 81       	ldd	r25, Y+2	; 0x02
    340a:	41 96       	adiw	r24, 0x11	; 17
    340c:	0e 94 12 11 	call	0x2224	; 0x2224 <vListInitialise>
    3410:	0f 90       	pop	r0
    3412:	0f be       	out	0x3f, r0	; 63
    3414:	81 e0       	ldi	r24, 0x01	; 1
    3416:	0f 90       	pop	r0
    3418:	0f 90       	pop	r0
    341a:	0f 90       	pop	r0
    341c:	0f 90       	pop	r0
    341e:	0f 90       	pop	r0
    3420:	df 91       	pop	r29
    3422:	cf 91       	pop	r28
    3424:	08 95       	ret

00003426 <xQueueGenericCreate>:
    3426:	0f 93       	push	r16
    3428:	1f 93       	push	r17
    342a:	cf 93       	push	r28
    342c:	df 93       	push	r29
    342e:	cd b7       	in	r28, 0x3d	; 61
    3430:	de b7       	in	r29, 0x3e	; 62
    3432:	29 97       	sbiw	r28, 0x09	; 9
    3434:	0f b6       	in	r0, 0x3f	; 63
    3436:	f8 94       	cli
    3438:	de bf       	out	0x3e, r29	; 62
    343a:	0f be       	out	0x3f, r0	; 63
    343c:	cd bf       	out	0x3d, r28	; 61
    343e:	8f 83       	std	Y+7, r24	; 0x07
    3440:	68 87       	std	Y+8, r22	; 0x08
    3442:	49 87       	std	Y+9, r20	; 0x09
    3444:	88 85       	ldd	r24, Y+8	; 0x08
    3446:	88 23       	and	r24, r24
    3448:	19 f4       	brne	.+6      	; 0x3450 <xQueueGenericCreate+0x2a>
    344a:	1a 82       	std	Y+2, r1	; 0x02
    344c:	19 82       	std	Y+1, r1	; 0x01
    344e:	0f c0       	rjmp	.+30     	; 0x346e <xQueueGenericCreate+0x48>
    3450:	8f 81       	ldd	r24, Y+7	; 0x07
    3452:	48 2f       	mov	r20, r24
    3454:	50 e0       	ldi	r21, 0x00	; 0
    3456:	88 85       	ldd	r24, Y+8	; 0x08
    3458:	28 2f       	mov	r18, r24
    345a:	30 e0       	ldi	r19, 0x00	; 0
    345c:	42 9f       	mul	r20, r18
    345e:	c0 01       	movw	r24, r0
    3460:	43 9f       	mul	r20, r19
    3462:	90 0d       	add	r25, r0
    3464:	52 9f       	mul	r21, r18
    3466:	90 0d       	add	r25, r0
    3468:	11 24       	eor	r1, r1
    346a:	9a 83       	std	Y+2, r25	; 0x02
    346c:	89 83       	std	Y+1, r24	; 0x01
    346e:	89 81       	ldd	r24, Y+1	; 0x01
    3470:	9a 81       	ldd	r25, Y+2	; 0x02
    3472:	81 96       	adiw	r24, 0x21	; 33
    3474:	0e 94 e0 17 	call	0x2fc0	; 0x2fc0 <pvPortMalloc>
    3478:	9c 83       	std	Y+4, r25	; 0x04
    347a:	8b 83       	std	Y+3, r24	; 0x03
    347c:	8b 81       	ldd	r24, Y+3	; 0x03
    347e:	9c 81       	ldd	r25, Y+4	; 0x04
    3480:	89 2b       	or	r24, r25
    3482:	81 f0       	breq	.+32     	; 0x34a4 <xQueueGenericCreate+0x7e>
    3484:	8b 81       	ldd	r24, Y+3	; 0x03
    3486:	9c 81       	ldd	r25, Y+4	; 0x04
    3488:	81 96       	adiw	r24, 0x21	; 33
    348a:	9e 83       	std	Y+6, r25	; 0x06
    348c:	8d 83       	std	Y+5, r24	; 0x05
    348e:	2b 81       	ldd	r18, Y+3	; 0x03
    3490:	3c 81       	ldd	r19, Y+4	; 0x04
    3492:	8d 81       	ldd	r24, Y+5	; 0x05
    3494:	9e 81       	ldd	r25, Y+6	; 0x06
    3496:	89 01       	movw	r16, r18
    3498:	29 85       	ldd	r18, Y+9	; 0x09
    349a:	ac 01       	movw	r20, r24
    349c:	68 85       	ldd	r22, Y+8	; 0x08
    349e:	8f 81       	ldd	r24, Y+7	; 0x07
    34a0:	0e 94 5f 1a 	call	0x34be	; 0x34be <prvInitialiseNewQueue>
    34a4:	8b 81       	ldd	r24, Y+3	; 0x03
    34a6:	9c 81       	ldd	r25, Y+4	; 0x04
    34a8:	29 96       	adiw	r28, 0x09	; 9
    34aa:	0f b6       	in	r0, 0x3f	; 63
    34ac:	f8 94       	cli
    34ae:	de bf       	out	0x3e, r29	; 62
    34b0:	0f be       	out	0x3f, r0	; 63
    34b2:	cd bf       	out	0x3d, r28	; 61
    34b4:	df 91       	pop	r29
    34b6:	cf 91       	pop	r28
    34b8:	1f 91       	pop	r17
    34ba:	0f 91       	pop	r16
    34bc:	08 95       	ret

000034be <prvInitialiseNewQueue>:
    34be:	0f 93       	push	r16
    34c0:	1f 93       	push	r17
    34c2:	cf 93       	push	r28
    34c4:	df 93       	push	r29
    34c6:	cd b7       	in	r28, 0x3d	; 61
    34c8:	de b7       	in	r29, 0x3e	; 62
    34ca:	27 97       	sbiw	r28, 0x07	; 7
    34cc:	0f b6       	in	r0, 0x3f	; 63
    34ce:	f8 94       	cli
    34d0:	de bf       	out	0x3e, r29	; 62
    34d2:	0f be       	out	0x3f, r0	; 63
    34d4:	cd bf       	out	0x3d, r28	; 61
    34d6:	89 83       	std	Y+1, r24	; 0x01
    34d8:	6a 83       	std	Y+2, r22	; 0x02
    34da:	5c 83       	std	Y+4, r21	; 0x04
    34dc:	4b 83       	std	Y+3, r20	; 0x03
    34de:	2d 83       	std	Y+5, r18	; 0x05
    34e0:	1f 83       	std	Y+7, r17	; 0x07
    34e2:	0e 83       	std	Y+6, r16	; 0x06
    34e4:	8a 81       	ldd	r24, Y+2	; 0x02
    34e6:	88 23       	and	r24, r24
    34e8:	41 f4       	brne	.+16     	; 0x34fa <prvInitialiseNewQueue+0x3c>
    34ea:	8e 81       	ldd	r24, Y+6	; 0x06
    34ec:	9f 81       	ldd	r25, Y+7	; 0x07
    34ee:	2e 81       	ldd	r18, Y+6	; 0x06
    34f0:	3f 81       	ldd	r19, Y+7	; 0x07
    34f2:	fc 01       	movw	r30, r24
    34f4:	31 83       	std	Z+1, r19	; 0x01
    34f6:	20 83       	st	Z, r18
    34f8:	07 c0       	rjmp	.+14     	; 0x3508 <prvInitialiseNewQueue+0x4a>
    34fa:	8e 81       	ldd	r24, Y+6	; 0x06
    34fc:	9f 81       	ldd	r25, Y+7	; 0x07
    34fe:	2b 81       	ldd	r18, Y+3	; 0x03
    3500:	3c 81       	ldd	r19, Y+4	; 0x04
    3502:	fc 01       	movw	r30, r24
    3504:	31 83       	std	Z+1, r19	; 0x01
    3506:	20 83       	st	Z, r18
    3508:	8e 81       	ldd	r24, Y+6	; 0x06
    350a:	9f 81       	ldd	r25, Y+7	; 0x07
    350c:	29 81       	ldd	r18, Y+1	; 0x01
    350e:	fc 01       	movw	r30, r24
    3510:	23 8f       	std	Z+27, r18	; 0x1b
    3512:	8e 81       	ldd	r24, Y+6	; 0x06
    3514:	9f 81       	ldd	r25, Y+7	; 0x07
    3516:	2a 81       	ldd	r18, Y+2	; 0x02
    3518:	fc 01       	movw	r30, r24
    351a:	24 8f       	std	Z+28, r18	; 0x1c
    351c:	8e 81       	ldd	r24, Y+6	; 0x06
    351e:	9f 81       	ldd	r25, Y+7	; 0x07
    3520:	61 e0       	ldi	r22, 0x01	; 1
    3522:	0e 94 7f 19 	call	0x32fe	; 0x32fe <xQueueGenericReset>
    3526:	8e 81       	ldd	r24, Y+6	; 0x06
    3528:	9f 81       	ldd	r25, Y+7	; 0x07
    352a:	2d 81       	ldd	r18, Y+5	; 0x05
    352c:	fc 01       	movw	r30, r24
    352e:	20 a3       	std	Z+32, r18	; 0x20
    3530:	00 00       	nop
    3532:	27 96       	adiw	r28, 0x07	; 7
    3534:	0f b6       	in	r0, 0x3f	; 63
    3536:	f8 94       	cli
    3538:	de bf       	out	0x3e, r29	; 62
    353a:	0f be       	out	0x3f, r0	; 63
    353c:	cd bf       	out	0x3d, r28	; 61
    353e:	df 91       	pop	r29
    3540:	cf 91       	pop	r28
    3542:	1f 91       	pop	r17
    3544:	0f 91       	pop	r16
    3546:	08 95       	ret

00003548 <xQueueGenericSend>:
    3548:	cf 93       	push	r28
    354a:	df 93       	push	r29
    354c:	cd b7       	in	r28, 0x3d	; 61
    354e:	de b7       	in	r29, 0x3e	; 62
    3550:	2e 97       	sbiw	r28, 0x0e	; 14
    3552:	0f b6       	in	r0, 0x3f	; 63
    3554:	f8 94       	cli
    3556:	de bf       	out	0x3e, r29	; 62
    3558:	0f be       	out	0x3f, r0	; 63
    355a:	cd bf       	out	0x3d, r28	; 61
    355c:	99 87       	std	Y+9, r25	; 0x09
    355e:	88 87       	std	Y+8, r24	; 0x08
    3560:	7b 87       	std	Y+11, r23	; 0x0b
    3562:	6a 87       	std	Y+10, r22	; 0x0a
    3564:	5d 87       	std	Y+13, r21	; 0x0d
    3566:	4c 87       	std	Y+12, r20	; 0x0c
    3568:	2e 87       	std	Y+14, r18	; 0x0e
    356a:	19 82       	std	Y+1, r1	; 0x01
    356c:	88 85       	ldd	r24, Y+8	; 0x08
    356e:	99 85       	ldd	r25, Y+9	; 0x09
    3570:	9b 83       	std	Y+3, r25	; 0x03
    3572:	8a 83       	std	Y+2, r24	; 0x02
    3574:	0f b6       	in	r0, 0x3f	; 63
    3576:	f8 94       	cli
    3578:	0f 92       	push	r0
    357a:	8a 81       	ldd	r24, Y+2	; 0x02
    357c:	9b 81       	ldd	r25, Y+3	; 0x03
    357e:	fc 01       	movw	r30, r24
    3580:	22 8d       	ldd	r18, Z+26	; 0x1a
    3582:	8a 81       	ldd	r24, Y+2	; 0x02
    3584:	9b 81       	ldd	r25, Y+3	; 0x03
    3586:	fc 01       	movw	r30, r24
    3588:	83 8d       	ldd	r24, Z+27	; 0x1b
    358a:	28 17       	cp	r18, r24
    358c:	18 f0       	brcs	.+6      	; 0x3594 <xQueueGenericSend+0x4c>
    358e:	8e 85       	ldd	r24, Y+14	; 0x0e
    3590:	82 30       	cpi	r24, 0x02	; 2
    3592:	11 f5       	brne	.+68     	; 0x35d8 <xQueueGenericSend+0x90>
    3594:	2a 85       	ldd	r18, Y+10	; 0x0a
    3596:	3b 85       	ldd	r19, Y+11	; 0x0b
    3598:	8a 81       	ldd	r24, Y+2	; 0x02
    359a:	9b 81       	ldd	r25, Y+3	; 0x03
    359c:	4e 85       	ldd	r20, Y+14	; 0x0e
    359e:	b9 01       	movw	r22, r18
    35a0:	0e 94 d1 1c 	call	0x39a2	; 0x39a2 <prvCopyDataToQueue>
    35a4:	8c 83       	std	Y+4, r24	; 0x04
    35a6:	8a 81       	ldd	r24, Y+2	; 0x02
    35a8:	9b 81       	ldd	r25, Y+3	; 0x03
    35aa:	fc 01       	movw	r30, r24
    35ac:	81 89       	ldd	r24, Z+17	; 0x11
    35ae:	88 23       	and	r24, r24
    35b0:	51 f0       	breq	.+20     	; 0x35c6 <xQueueGenericSend+0x7e>
    35b2:	8a 81       	ldd	r24, Y+2	; 0x02
    35b4:	9b 81       	ldd	r25, Y+3	; 0x03
    35b6:	41 96       	adiw	r24, 0x11	; 17
    35b8:	0e 94 af 23 	call	0x475e	; 0x475e <xTaskRemoveFromEventList>
    35bc:	88 23       	and	r24, r24
    35be:	41 f0       	breq	.+16     	; 0x35d0 <xQueueGenericSend+0x88>
    35c0:	0e 94 56 14 	call	0x28ac	; 0x28ac <vPortYield>
    35c4:	05 c0       	rjmp	.+10     	; 0x35d0 <xQueueGenericSend+0x88>
    35c6:	8c 81       	ldd	r24, Y+4	; 0x04
    35c8:	88 23       	and	r24, r24
    35ca:	11 f0       	breq	.+4      	; 0x35d0 <xQueueGenericSend+0x88>
    35cc:	0e 94 56 14 	call	0x28ac	; 0x28ac <vPortYield>
    35d0:	0f 90       	pop	r0
    35d2:	0f be       	out	0x3f, r0	; 63
    35d4:	81 e0       	ldi	r24, 0x01	; 1
    35d6:	60 c0       	rjmp	.+192    	; 0x3698 <xQueueGenericSend+0x150>
    35d8:	8c 85       	ldd	r24, Y+12	; 0x0c
    35da:	9d 85       	ldd	r25, Y+13	; 0x0d
    35dc:	89 2b       	or	r24, r25
    35de:	21 f4       	brne	.+8      	; 0x35e8 <xQueueGenericSend+0xa0>
    35e0:	0f 90       	pop	r0
    35e2:	0f be       	out	0x3f, r0	; 63
    35e4:	80 e0       	ldi	r24, 0x00	; 0
    35e6:	58 c0       	rjmp	.+176    	; 0x3698 <xQueueGenericSend+0x150>
    35e8:	89 81       	ldd	r24, Y+1	; 0x01
    35ea:	88 23       	and	r24, r24
    35ec:	31 f4       	brne	.+12     	; 0x35fa <xQueueGenericSend+0xb2>
    35ee:	ce 01       	movw	r24, r28
    35f0:	05 96       	adiw	r24, 0x05	; 5
    35f2:	0e 94 1c 24 	call	0x4838	; 0x4838 <vTaskSetTimeOutState>
    35f6:	81 e0       	ldi	r24, 0x01	; 1
    35f8:	89 83       	std	Y+1, r24	; 0x01
    35fa:	0f 90       	pop	r0
    35fc:	0f be       	out	0x3f, r0	; 63
    35fe:	0e 94 3f 21 	call	0x427e	; 0x427e <vTaskSuspendAll>
    3602:	0f b6       	in	r0, 0x3f	; 63
    3604:	f8 94       	cli
    3606:	0f 92       	push	r0
    3608:	8a 81       	ldd	r24, Y+2	; 0x02
    360a:	9b 81       	ldd	r25, Y+3	; 0x03
    360c:	fc 01       	movw	r30, r24
    360e:	85 8d       	ldd	r24, Z+29	; 0x1d
    3610:	8f 3f       	cpi	r24, 0xFF	; 255
    3612:	21 f4       	brne	.+8      	; 0x361c <xQueueGenericSend+0xd4>
    3614:	8a 81       	ldd	r24, Y+2	; 0x02
    3616:	9b 81       	ldd	r25, Y+3	; 0x03
    3618:	fc 01       	movw	r30, r24
    361a:	15 8e       	std	Z+29, r1	; 0x1d
    361c:	8a 81       	ldd	r24, Y+2	; 0x02
    361e:	9b 81       	ldd	r25, Y+3	; 0x03
    3620:	fc 01       	movw	r30, r24
    3622:	86 8d       	ldd	r24, Z+30	; 0x1e
    3624:	8f 3f       	cpi	r24, 0xFF	; 255
    3626:	21 f4       	brne	.+8      	; 0x3630 <xQueueGenericSend+0xe8>
    3628:	8a 81       	ldd	r24, Y+2	; 0x02
    362a:	9b 81       	ldd	r25, Y+3	; 0x03
    362c:	fc 01       	movw	r30, r24
    362e:	16 8e       	std	Z+30, r1	; 0x1e
    3630:	0f 90       	pop	r0
    3632:	0f be       	out	0x3f, r0	; 63
    3634:	9e 01       	movw	r18, r28
    3636:	24 5f       	subi	r18, 0xF4	; 244
    3638:	3f 4f       	sbci	r19, 0xFF	; 255
    363a:	ce 01       	movw	r24, r28
    363c:	05 96       	adiw	r24, 0x05	; 5
    363e:	b9 01       	movw	r22, r18
    3640:	0e 94 38 24 	call	0x4870	; 0x4870 <xTaskCheckForTimeOut>
    3644:	88 23       	and	r24, r24
    3646:	09 f5       	brne	.+66     	; 0x368a <xQueueGenericSend+0x142>
    3648:	8a 81       	ldd	r24, Y+2	; 0x02
    364a:	9b 81       	ldd	r25, Y+3	; 0x03
    364c:	0e 94 6e 1e 	call	0x3cdc	; 0x3cdc <prvIsQueueFull>
    3650:	88 23       	and	r24, r24
    3652:	a1 f0       	breq	.+40     	; 0x367c <xQueueGenericSend+0x134>
    3654:	2c 85       	ldd	r18, Y+12	; 0x0c
    3656:	3d 85       	ldd	r19, Y+13	; 0x0d
    3658:	8a 81       	ldd	r24, Y+2	; 0x02
    365a:	9b 81       	ldd	r25, Y+3	; 0x03
    365c:	08 96       	adiw	r24, 0x08	; 8
    365e:	b9 01       	movw	r22, r18
    3660:	0e 94 8c 23 	call	0x4718	; 0x4718 <vTaskPlaceOnEventList>
    3664:	8a 81       	ldd	r24, Y+2	; 0x02
    3666:	9b 81       	ldd	r25, Y+3	; 0x03
    3668:	0e 94 f2 1d 	call	0x3be4	; 0x3be4 <prvUnlockQueue>
    366c:	0e 94 4c 21 	call	0x4298	; 0x4298 <xTaskResumeAll>
    3670:	88 23       	and	r24, r24
    3672:	09 f0       	breq	.+2      	; 0x3676 <xQueueGenericSend+0x12e>
    3674:	7f cf       	rjmp	.-258    	; 0x3574 <xQueueGenericSend+0x2c>
    3676:	0e 94 56 14 	call	0x28ac	; 0x28ac <vPortYield>
    367a:	7c cf       	rjmp	.-264    	; 0x3574 <xQueueGenericSend+0x2c>
    367c:	8a 81       	ldd	r24, Y+2	; 0x02
    367e:	9b 81       	ldd	r25, Y+3	; 0x03
    3680:	0e 94 f2 1d 	call	0x3be4	; 0x3be4 <prvUnlockQueue>
    3684:	0e 94 4c 21 	call	0x4298	; 0x4298 <xTaskResumeAll>
    3688:	75 cf       	rjmp	.-278    	; 0x3574 <xQueueGenericSend+0x2c>
    368a:	8a 81       	ldd	r24, Y+2	; 0x02
    368c:	9b 81       	ldd	r25, Y+3	; 0x03
    368e:	0e 94 f2 1d 	call	0x3be4	; 0x3be4 <prvUnlockQueue>
    3692:	0e 94 4c 21 	call	0x4298	; 0x4298 <xTaskResumeAll>
    3696:	80 e0       	ldi	r24, 0x00	; 0
    3698:	2e 96       	adiw	r28, 0x0e	; 14
    369a:	0f b6       	in	r0, 0x3f	; 63
    369c:	f8 94       	cli
    369e:	de bf       	out	0x3e, r29	; 62
    36a0:	0f be       	out	0x3f, r0	; 63
    36a2:	cd bf       	out	0x3d, r28	; 61
    36a4:	df 91       	pop	r29
    36a6:	cf 91       	pop	r28
    36a8:	08 95       	ret

000036aa <xQueueGenericSendFromISR>:
    36aa:	cf 93       	push	r28
    36ac:	df 93       	push	r29
    36ae:	cd b7       	in	r28, 0x3d	; 61
    36b0:	de b7       	in	r29, 0x3e	; 62
    36b2:	2c 97       	sbiw	r28, 0x0c	; 12
    36b4:	0f b6       	in	r0, 0x3f	; 63
    36b6:	f8 94       	cli
    36b8:	de bf       	out	0x3e, r29	; 62
    36ba:	0f be       	out	0x3f, r0	; 63
    36bc:	cd bf       	out	0x3d, r28	; 61
    36be:	9f 83       	std	Y+7, r25	; 0x07
    36c0:	8e 83       	std	Y+6, r24	; 0x06
    36c2:	79 87       	std	Y+9, r23	; 0x09
    36c4:	68 87       	std	Y+8, r22	; 0x08
    36c6:	5b 87       	std	Y+11, r21	; 0x0b
    36c8:	4a 87       	std	Y+10, r20	; 0x0a
    36ca:	2c 87       	std	Y+12, r18	; 0x0c
    36cc:	8e 81       	ldd	r24, Y+6	; 0x06
    36ce:	9f 81       	ldd	r25, Y+7	; 0x07
    36d0:	9b 83       	std	Y+3, r25	; 0x03
    36d2:	8a 83       	std	Y+2, r24	; 0x02
    36d4:	1c 82       	std	Y+4, r1	; 0x04
    36d6:	8a 81       	ldd	r24, Y+2	; 0x02
    36d8:	9b 81       	ldd	r25, Y+3	; 0x03
    36da:	fc 01       	movw	r30, r24
    36dc:	22 8d       	ldd	r18, Z+26	; 0x1a
    36de:	8a 81       	ldd	r24, Y+2	; 0x02
    36e0:	9b 81       	ldd	r25, Y+3	; 0x03
    36e2:	fc 01       	movw	r30, r24
    36e4:	83 8d       	ldd	r24, Z+27	; 0x1b
    36e6:	28 17       	cp	r18, r24
    36e8:	18 f0       	brcs	.+6      	; 0x36f0 <xQueueGenericSendFromISR+0x46>
    36ea:	8c 85       	ldd	r24, Y+12	; 0x0c
    36ec:	82 30       	cpi	r24, 0x02	; 2
    36ee:	89 f5       	brne	.+98     	; 0x3752 <xQueueGenericSendFromISR+0xa8>
    36f0:	8a 81       	ldd	r24, Y+2	; 0x02
    36f2:	9b 81       	ldd	r25, Y+3	; 0x03
    36f4:	fc 01       	movw	r30, r24
    36f6:	86 8d       	ldd	r24, Z+30	; 0x1e
    36f8:	8d 83       	std	Y+5, r24	; 0x05
    36fa:	28 85       	ldd	r18, Y+8	; 0x08
    36fc:	39 85       	ldd	r19, Y+9	; 0x09
    36fe:	8a 81       	ldd	r24, Y+2	; 0x02
    3700:	9b 81       	ldd	r25, Y+3	; 0x03
    3702:	4c 85       	ldd	r20, Y+12	; 0x0c
    3704:	b9 01       	movw	r22, r18
    3706:	0e 94 d1 1c 	call	0x39a2	; 0x39a2 <prvCopyDataToQueue>
    370a:	8d 81       	ldd	r24, Y+5	; 0x05
    370c:	8f 3f       	cpi	r24, 0xFF	; 255
    370e:	b9 f4       	brne	.+46     	; 0x373e <xQueueGenericSendFromISR+0x94>
    3710:	8a 81       	ldd	r24, Y+2	; 0x02
    3712:	9b 81       	ldd	r25, Y+3	; 0x03
    3714:	fc 01       	movw	r30, r24
    3716:	81 89       	ldd	r24, Z+17	; 0x11
    3718:	88 23       	and	r24, r24
    371a:	c1 f0       	breq	.+48     	; 0x374c <xQueueGenericSendFromISR+0xa2>
    371c:	8a 81       	ldd	r24, Y+2	; 0x02
    371e:	9b 81       	ldd	r25, Y+3	; 0x03
    3720:	41 96       	adiw	r24, 0x11	; 17
    3722:	0e 94 af 23 	call	0x475e	; 0x475e <xTaskRemoveFromEventList>
    3726:	88 23       	and	r24, r24
    3728:	89 f0       	breq	.+34     	; 0x374c <xQueueGenericSendFromISR+0xa2>
    372a:	8a 85       	ldd	r24, Y+10	; 0x0a
    372c:	9b 85       	ldd	r25, Y+11	; 0x0b
    372e:	89 2b       	or	r24, r25
    3730:	69 f0       	breq	.+26     	; 0x374c <xQueueGenericSendFromISR+0xa2>
    3732:	8a 85       	ldd	r24, Y+10	; 0x0a
    3734:	9b 85       	ldd	r25, Y+11	; 0x0b
    3736:	21 e0       	ldi	r18, 0x01	; 1
    3738:	fc 01       	movw	r30, r24
    373a:	20 83       	st	Z, r18
    373c:	07 c0       	rjmp	.+14     	; 0x374c <xQueueGenericSendFromISR+0xa2>
    373e:	8d 81       	ldd	r24, Y+5	; 0x05
    3740:	8f 5f       	subi	r24, 0xFF	; 255
    3742:	28 2f       	mov	r18, r24
    3744:	8a 81       	ldd	r24, Y+2	; 0x02
    3746:	9b 81       	ldd	r25, Y+3	; 0x03
    3748:	fc 01       	movw	r30, r24
    374a:	26 8f       	std	Z+30, r18	; 0x1e
    374c:	81 e0       	ldi	r24, 0x01	; 1
    374e:	89 83       	std	Y+1, r24	; 0x01
    3750:	01 c0       	rjmp	.+2      	; 0x3754 <xQueueGenericSendFromISR+0xaa>
    3752:	19 82       	std	Y+1, r1	; 0x01
    3754:	89 81       	ldd	r24, Y+1	; 0x01
    3756:	2c 96       	adiw	r28, 0x0c	; 12
    3758:	0f b6       	in	r0, 0x3f	; 63
    375a:	f8 94       	cli
    375c:	de bf       	out	0x3e, r29	; 62
    375e:	0f be       	out	0x3f, r0	; 63
    3760:	cd bf       	out	0x3d, r28	; 61
    3762:	df 91       	pop	r29
    3764:	cf 91       	pop	r28
    3766:	08 95       	ret

00003768 <xQueueGenericReceive>:
    3768:	cf 93       	push	r28
    376a:	df 93       	push	r29
    376c:	cd b7       	in	r28, 0x3d	; 61
    376e:	de b7       	in	r29, 0x3e	; 62
    3770:	60 97       	sbiw	r28, 0x10	; 16
    3772:	0f b6       	in	r0, 0x3f	; 63
    3774:	f8 94       	cli
    3776:	de bf       	out	0x3e, r29	; 62
    3778:	0f be       	out	0x3f, r0	; 63
    377a:	cd bf       	out	0x3d, r28	; 61
    377c:	9b 87       	std	Y+11, r25	; 0x0b
    377e:	8a 87       	std	Y+10, r24	; 0x0a
    3780:	7d 87       	std	Y+13, r23	; 0x0d
    3782:	6c 87       	std	Y+12, r22	; 0x0c
    3784:	5f 87       	std	Y+15, r21	; 0x0f
    3786:	4e 87       	std	Y+14, r20	; 0x0e
    3788:	28 8b       	std	Y+16, r18	; 0x10
    378a:	19 82       	std	Y+1, r1	; 0x01
    378c:	8a 85       	ldd	r24, Y+10	; 0x0a
    378e:	9b 85       	ldd	r25, Y+11	; 0x0b
    3790:	9b 83       	std	Y+3, r25	; 0x03
    3792:	8a 83       	std	Y+2, r24	; 0x02
    3794:	0f b6       	in	r0, 0x3f	; 63
    3796:	f8 94       	cli
    3798:	0f 92       	push	r0
    379a:	8a 81       	ldd	r24, Y+2	; 0x02
    379c:	9b 81       	ldd	r25, Y+3	; 0x03
    379e:	fc 01       	movw	r30, r24
    37a0:	82 8d       	ldd	r24, Z+26	; 0x1a
    37a2:	8c 83       	std	Y+4, r24	; 0x04
    37a4:	8c 81       	ldd	r24, Y+4	; 0x04
    37a6:	88 23       	and	r24, r24
    37a8:	09 f4       	brne	.+2      	; 0x37ac <xQueueGenericReceive+0x44>
    37aa:	51 c0       	rjmp	.+162    	; 0x384e <xQueueGenericReceive+0xe6>
    37ac:	8a 81       	ldd	r24, Y+2	; 0x02
    37ae:	9b 81       	ldd	r25, Y+3	; 0x03
    37b0:	fc 01       	movw	r30, r24
    37b2:	86 81       	ldd	r24, Z+6	; 0x06
    37b4:	97 81       	ldd	r25, Z+7	; 0x07
    37b6:	9e 83       	std	Y+6, r25	; 0x06
    37b8:	8d 83       	std	Y+5, r24	; 0x05
    37ba:	2c 85       	ldd	r18, Y+12	; 0x0c
    37bc:	3d 85       	ldd	r19, Y+13	; 0x0d
    37be:	8a 81       	ldd	r24, Y+2	; 0x02
    37c0:	9b 81       	ldd	r25, Y+3	; 0x03
    37c2:	b9 01       	movw	r22, r18
    37c4:	0e 94 a1 1d 	call	0x3b42	; 0x3b42 <prvCopyDataFromQueue>
    37c8:	88 89       	ldd	r24, Y+16	; 0x10
    37ca:	88 23       	and	r24, r24
    37cc:	31 f5       	brne	.+76     	; 0x381a <xQueueGenericReceive+0xb2>
    37ce:	8c 81       	ldd	r24, Y+4	; 0x04
    37d0:	2f ef       	ldi	r18, 0xFF	; 255
    37d2:	28 0f       	add	r18, r24
    37d4:	8a 81       	ldd	r24, Y+2	; 0x02
    37d6:	9b 81       	ldd	r25, Y+3	; 0x03
    37d8:	fc 01       	movw	r30, r24
    37da:	22 8f       	std	Z+26, r18	; 0x1a
    37dc:	8a 81       	ldd	r24, Y+2	; 0x02
    37de:	9b 81       	ldd	r25, Y+3	; 0x03
    37e0:	fc 01       	movw	r30, r24
    37e2:	80 81       	ld	r24, Z
    37e4:	91 81       	ldd	r25, Z+1	; 0x01
    37e6:	89 2b       	or	r24, r25
    37e8:	41 f4       	brne	.+16     	; 0x37fa <xQueueGenericReceive+0x92>
    37ea:	0e 94 f6 26 	call	0x4dec	; 0x4dec <pvTaskIncrementMutexHeldCount>
    37ee:	9c 01       	movw	r18, r24
    37f0:	8a 81       	ldd	r24, Y+2	; 0x02
    37f2:	9b 81       	ldd	r25, Y+3	; 0x03
    37f4:	fc 01       	movw	r30, r24
    37f6:	33 83       	std	Z+3, r19	; 0x03
    37f8:	22 83       	std	Z+2, r18	; 0x02
    37fa:	8a 81       	ldd	r24, Y+2	; 0x02
    37fc:	9b 81       	ldd	r25, Y+3	; 0x03
    37fe:	fc 01       	movw	r30, r24
    3800:	80 85       	ldd	r24, Z+8	; 0x08
    3802:	88 23       	and	r24, r24
    3804:	01 f1       	breq	.+64     	; 0x3846 <xQueueGenericReceive+0xde>
    3806:	8a 81       	ldd	r24, Y+2	; 0x02
    3808:	9b 81       	ldd	r25, Y+3	; 0x03
    380a:	08 96       	adiw	r24, 0x08	; 8
    380c:	0e 94 af 23 	call	0x475e	; 0x475e <xTaskRemoveFromEventList>
    3810:	88 23       	and	r24, r24
    3812:	c9 f0       	breq	.+50     	; 0x3846 <xQueueGenericReceive+0xde>
    3814:	0e 94 56 14 	call	0x28ac	; 0x28ac <vPortYield>
    3818:	16 c0       	rjmp	.+44     	; 0x3846 <xQueueGenericReceive+0xde>
    381a:	8a 81       	ldd	r24, Y+2	; 0x02
    381c:	9b 81       	ldd	r25, Y+3	; 0x03
    381e:	2d 81       	ldd	r18, Y+5	; 0x05
    3820:	3e 81       	ldd	r19, Y+6	; 0x06
    3822:	fc 01       	movw	r30, r24
    3824:	37 83       	std	Z+7, r19	; 0x07
    3826:	26 83       	std	Z+6, r18	; 0x06
    3828:	8a 81       	ldd	r24, Y+2	; 0x02
    382a:	9b 81       	ldd	r25, Y+3	; 0x03
    382c:	fc 01       	movw	r30, r24
    382e:	81 89       	ldd	r24, Z+17	; 0x11
    3830:	88 23       	and	r24, r24
    3832:	49 f0       	breq	.+18     	; 0x3846 <xQueueGenericReceive+0xde>
    3834:	8a 81       	ldd	r24, Y+2	; 0x02
    3836:	9b 81       	ldd	r25, Y+3	; 0x03
    3838:	41 96       	adiw	r24, 0x11	; 17
    383a:	0e 94 af 23 	call	0x475e	; 0x475e <xTaskRemoveFromEventList>
    383e:	88 23       	and	r24, r24
    3840:	11 f0       	breq	.+4      	; 0x3846 <xQueueGenericReceive+0xde>
    3842:	0e 94 56 14 	call	0x28ac	; 0x28ac <vPortYield>
    3846:	0f 90       	pop	r0
    3848:	0f be       	out	0x3f, r0	; 63
    384a:	81 e0       	ldi	r24, 0x01	; 1
    384c:	7a c0       	rjmp	.+244    	; 0x3942 <xQueueGenericReceive+0x1da>
    384e:	8e 85       	ldd	r24, Y+14	; 0x0e
    3850:	9f 85       	ldd	r25, Y+15	; 0x0f
    3852:	89 2b       	or	r24, r25
    3854:	21 f4       	brne	.+8      	; 0x385e <xQueueGenericReceive+0xf6>
    3856:	0f 90       	pop	r0
    3858:	0f be       	out	0x3f, r0	; 63
    385a:	80 e0       	ldi	r24, 0x00	; 0
    385c:	72 c0       	rjmp	.+228    	; 0x3942 <xQueueGenericReceive+0x1da>
    385e:	89 81       	ldd	r24, Y+1	; 0x01
    3860:	88 23       	and	r24, r24
    3862:	31 f4       	brne	.+12     	; 0x3870 <xQueueGenericReceive+0x108>
    3864:	ce 01       	movw	r24, r28
    3866:	07 96       	adiw	r24, 0x07	; 7
    3868:	0e 94 1c 24 	call	0x4838	; 0x4838 <vTaskSetTimeOutState>
    386c:	81 e0       	ldi	r24, 0x01	; 1
    386e:	89 83       	std	Y+1, r24	; 0x01
    3870:	0f 90       	pop	r0
    3872:	0f be       	out	0x3f, r0	; 63
    3874:	0e 94 3f 21 	call	0x427e	; 0x427e <vTaskSuspendAll>
    3878:	0f b6       	in	r0, 0x3f	; 63
    387a:	f8 94       	cli
    387c:	0f 92       	push	r0
    387e:	8a 81       	ldd	r24, Y+2	; 0x02
    3880:	9b 81       	ldd	r25, Y+3	; 0x03
    3882:	fc 01       	movw	r30, r24
    3884:	85 8d       	ldd	r24, Z+29	; 0x1d
    3886:	8f 3f       	cpi	r24, 0xFF	; 255
    3888:	21 f4       	brne	.+8      	; 0x3892 <xQueueGenericReceive+0x12a>
    388a:	8a 81       	ldd	r24, Y+2	; 0x02
    388c:	9b 81       	ldd	r25, Y+3	; 0x03
    388e:	fc 01       	movw	r30, r24
    3890:	15 8e       	std	Z+29, r1	; 0x1d
    3892:	8a 81       	ldd	r24, Y+2	; 0x02
    3894:	9b 81       	ldd	r25, Y+3	; 0x03
    3896:	fc 01       	movw	r30, r24
    3898:	86 8d       	ldd	r24, Z+30	; 0x1e
    389a:	8f 3f       	cpi	r24, 0xFF	; 255
    389c:	21 f4       	brne	.+8      	; 0x38a6 <xQueueGenericReceive+0x13e>
    389e:	8a 81       	ldd	r24, Y+2	; 0x02
    38a0:	9b 81       	ldd	r25, Y+3	; 0x03
    38a2:	fc 01       	movw	r30, r24
    38a4:	16 8e       	std	Z+30, r1	; 0x1e
    38a6:	0f 90       	pop	r0
    38a8:	0f be       	out	0x3f, r0	; 63
    38aa:	9e 01       	movw	r18, r28
    38ac:	22 5f       	subi	r18, 0xF2	; 242
    38ae:	3f 4f       	sbci	r19, 0xFF	; 255
    38b0:	ce 01       	movw	r24, r28
    38b2:	07 96       	adiw	r24, 0x07	; 7
    38b4:	b9 01       	movw	r22, r18
    38b6:	0e 94 38 24 	call	0x4870	; 0x4870 <xTaskCheckForTimeOut>
    38ba:	88 23       	and	r24, r24
    38bc:	a1 f5       	brne	.+104    	; 0x3926 <xQueueGenericReceive+0x1be>
    38be:	8a 81       	ldd	r24, Y+2	; 0x02
    38c0:	9b 81       	ldd	r25, Y+3	; 0x03
    38c2:	0e 94 50 1e 	call	0x3ca0	; 0x3ca0 <prvIsQueueEmpty>
    38c6:	88 23       	and	r24, r24
    38c8:	39 f1       	breq	.+78     	; 0x3918 <xQueueGenericReceive+0x1b0>
    38ca:	8a 81       	ldd	r24, Y+2	; 0x02
    38cc:	9b 81       	ldd	r25, Y+3	; 0x03
    38ce:	fc 01       	movw	r30, r24
    38d0:	80 81       	ld	r24, Z
    38d2:	91 81       	ldd	r25, Z+1	; 0x01
    38d4:	89 2b       	or	r24, r25
    38d6:	61 f4       	brne	.+24     	; 0x38f0 <xQueueGenericReceive+0x188>
    38d8:	0f b6       	in	r0, 0x3f	; 63
    38da:	f8 94       	cli
    38dc:	0f 92       	push	r0
    38de:	8a 81       	ldd	r24, Y+2	; 0x02
    38e0:	9b 81       	ldd	r25, Y+3	; 0x03
    38e2:	fc 01       	movw	r30, r24
    38e4:	82 81       	ldd	r24, Z+2	; 0x02
    38e6:	93 81       	ldd	r25, Z+3	; 0x03
    38e8:	0e 94 e1 25 	call	0x4bc2	; 0x4bc2 <vTaskPriorityInherit>
    38ec:	0f 90       	pop	r0
    38ee:	0f be       	out	0x3f, r0	; 63
    38f0:	2e 85       	ldd	r18, Y+14	; 0x0e
    38f2:	3f 85       	ldd	r19, Y+15	; 0x0f
    38f4:	8a 81       	ldd	r24, Y+2	; 0x02
    38f6:	9b 81       	ldd	r25, Y+3	; 0x03
    38f8:	41 96       	adiw	r24, 0x11	; 17
    38fa:	b9 01       	movw	r22, r18
    38fc:	0e 94 8c 23 	call	0x4718	; 0x4718 <vTaskPlaceOnEventList>
    3900:	8a 81       	ldd	r24, Y+2	; 0x02
    3902:	9b 81       	ldd	r25, Y+3	; 0x03
    3904:	0e 94 f2 1d 	call	0x3be4	; 0x3be4 <prvUnlockQueue>
    3908:	0e 94 4c 21 	call	0x4298	; 0x4298 <xTaskResumeAll>
    390c:	88 23       	and	r24, r24
    390e:	09 f0       	breq	.+2      	; 0x3912 <xQueueGenericReceive+0x1aa>
    3910:	41 cf       	rjmp	.-382    	; 0x3794 <xQueueGenericReceive+0x2c>
    3912:	0e 94 56 14 	call	0x28ac	; 0x28ac <vPortYield>
    3916:	3e cf       	rjmp	.-388    	; 0x3794 <xQueueGenericReceive+0x2c>
    3918:	8a 81       	ldd	r24, Y+2	; 0x02
    391a:	9b 81       	ldd	r25, Y+3	; 0x03
    391c:	0e 94 f2 1d 	call	0x3be4	; 0x3be4 <prvUnlockQueue>
    3920:	0e 94 4c 21 	call	0x4298	; 0x4298 <xTaskResumeAll>
    3924:	37 cf       	rjmp	.-402    	; 0x3794 <xQueueGenericReceive+0x2c>
    3926:	8a 81       	ldd	r24, Y+2	; 0x02
    3928:	9b 81       	ldd	r25, Y+3	; 0x03
    392a:	0e 94 f2 1d 	call	0x3be4	; 0x3be4 <prvUnlockQueue>
    392e:	0e 94 4c 21 	call	0x4298	; 0x4298 <xTaskResumeAll>
    3932:	8a 81       	ldd	r24, Y+2	; 0x02
    3934:	9b 81       	ldd	r25, Y+3	; 0x03
    3936:	0e 94 50 1e 	call	0x3ca0	; 0x3ca0 <prvIsQueueEmpty>
    393a:	88 23       	and	r24, r24
    393c:	09 f4       	brne	.+2      	; 0x3940 <xQueueGenericReceive+0x1d8>
    393e:	2a cf       	rjmp	.-428    	; 0x3794 <xQueueGenericReceive+0x2c>
    3940:	80 e0       	ldi	r24, 0x00	; 0
    3942:	60 96       	adiw	r28, 0x10	; 16
    3944:	0f b6       	in	r0, 0x3f	; 63
    3946:	f8 94       	cli
    3948:	de bf       	out	0x3e, r29	; 62
    394a:	0f be       	out	0x3f, r0	; 63
    394c:	cd bf       	out	0x3d, r28	; 61
    394e:	df 91       	pop	r29
    3950:	cf 91       	pop	r28
    3952:	08 95       	ret

00003954 <uxQueueSpacesAvailable>:
    3954:	cf 93       	push	r28
    3956:	df 93       	push	r29
    3958:	00 d0       	rcall	.+0      	; 0x395a <uxQueueSpacesAvailable+0x6>
    395a:	00 d0       	rcall	.+0      	; 0x395c <uxQueueSpacesAvailable+0x8>
    395c:	1f 92       	push	r1
    395e:	cd b7       	in	r28, 0x3d	; 61
    3960:	de b7       	in	r29, 0x3e	; 62
    3962:	9d 83       	std	Y+5, r25	; 0x05
    3964:	8c 83       	std	Y+4, r24	; 0x04
    3966:	8c 81       	ldd	r24, Y+4	; 0x04
    3968:	9d 81       	ldd	r25, Y+5	; 0x05
    396a:	9a 83       	std	Y+2, r25	; 0x02
    396c:	89 83       	std	Y+1, r24	; 0x01
    396e:	0f b6       	in	r0, 0x3f	; 63
    3970:	f8 94       	cli
    3972:	0f 92       	push	r0
    3974:	89 81       	ldd	r24, Y+1	; 0x01
    3976:	9a 81       	ldd	r25, Y+2	; 0x02
    3978:	fc 01       	movw	r30, r24
    397a:	23 8d       	ldd	r18, Z+27	; 0x1b
    397c:	89 81       	ldd	r24, Y+1	; 0x01
    397e:	9a 81       	ldd	r25, Y+2	; 0x02
    3980:	fc 01       	movw	r30, r24
    3982:	82 8d       	ldd	r24, Z+26	; 0x1a
    3984:	f2 2f       	mov	r31, r18
    3986:	f8 1b       	sub	r31, r24
    3988:	8f 2f       	mov	r24, r31
    398a:	8b 83       	std	Y+3, r24	; 0x03
    398c:	0f 90       	pop	r0
    398e:	0f be       	out	0x3f, r0	; 63
    3990:	8b 81       	ldd	r24, Y+3	; 0x03
    3992:	0f 90       	pop	r0
    3994:	0f 90       	pop	r0
    3996:	0f 90       	pop	r0
    3998:	0f 90       	pop	r0
    399a:	0f 90       	pop	r0
    399c:	df 91       	pop	r29
    399e:	cf 91       	pop	r28
    39a0:	08 95       	ret

000039a2 <prvCopyDataToQueue>:
    39a2:	cf 93       	push	r28
    39a4:	df 93       	push	r29
    39a6:	cd b7       	in	r28, 0x3d	; 61
    39a8:	de b7       	in	r29, 0x3e	; 62
    39aa:	27 97       	sbiw	r28, 0x07	; 7
    39ac:	0f b6       	in	r0, 0x3f	; 63
    39ae:	f8 94       	cli
    39b0:	de bf       	out	0x3e, r29	; 62
    39b2:	0f be       	out	0x3f, r0	; 63
    39b4:	cd bf       	out	0x3d, r28	; 61
    39b6:	9c 83       	std	Y+4, r25	; 0x04
    39b8:	8b 83       	std	Y+3, r24	; 0x03
    39ba:	7e 83       	std	Y+6, r23	; 0x06
    39bc:	6d 83       	std	Y+5, r22	; 0x05
    39be:	4f 83       	std	Y+7, r20	; 0x07
    39c0:	19 82       	std	Y+1, r1	; 0x01
    39c2:	8b 81       	ldd	r24, Y+3	; 0x03
    39c4:	9c 81       	ldd	r25, Y+4	; 0x04
    39c6:	fc 01       	movw	r30, r24
    39c8:	82 8d       	ldd	r24, Z+26	; 0x1a
    39ca:	8a 83       	std	Y+2, r24	; 0x02
    39cc:	8b 81       	ldd	r24, Y+3	; 0x03
    39ce:	9c 81       	ldd	r25, Y+4	; 0x04
    39d0:	fc 01       	movw	r30, r24
    39d2:	84 8d       	ldd	r24, Z+28	; 0x1c
    39d4:	88 23       	and	r24, r24
    39d6:	b1 f4       	brne	.+44     	; 0x3a04 <prvCopyDataToQueue+0x62>
    39d8:	8b 81       	ldd	r24, Y+3	; 0x03
    39da:	9c 81       	ldd	r25, Y+4	; 0x04
    39dc:	fc 01       	movw	r30, r24
    39de:	80 81       	ld	r24, Z
    39e0:	91 81       	ldd	r25, Z+1	; 0x01
    39e2:	89 2b       	or	r24, r25
    39e4:	09 f0       	breq	.+2      	; 0x39e8 <prvCopyDataToQueue+0x46>
    39e6:	9c c0       	rjmp	.+312    	; 0x3b20 <prvCopyDataToQueue+0x17e>
    39e8:	8b 81       	ldd	r24, Y+3	; 0x03
    39ea:	9c 81       	ldd	r25, Y+4	; 0x04
    39ec:	fc 01       	movw	r30, r24
    39ee:	82 81       	ldd	r24, Z+2	; 0x02
    39f0:	93 81       	ldd	r25, Z+3	; 0x03
    39f2:	0e 94 79 26 	call	0x4cf2	; 0x4cf2 <xTaskPriorityDisinherit>
    39f6:	89 83       	std	Y+1, r24	; 0x01
    39f8:	8b 81       	ldd	r24, Y+3	; 0x03
    39fa:	9c 81       	ldd	r25, Y+4	; 0x04
    39fc:	fc 01       	movw	r30, r24
    39fe:	13 82       	std	Z+3, r1	; 0x03
    3a00:	12 82       	std	Z+2, r1	; 0x02
    3a02:	8e c0       	rjmp	.+284    	; 0x3b20 <prvCopyDataToQueue+0x17e>
    3a04:	8f 81       	ldd	r24, Y+7	; 0x07
    3a06:	88 23       	and	r24, r24
    3a08:	d9 f5       	brne	.+118    	; 0x3a80 <prvCopyDataToQueue+0xde>
    3a0a:	8b 81       	ldd	r24, Y+3	; 0x03
    3a0c:	9c 81       	ldd	r25, Y+4	; 0x04
    3a0e:	fc 01       	movw	r30, r24
    3a10:	84 8d       	ldd	r24, Z+28	; 0x1c
    3a12:	48 2f       	mov	r20, r24
    3a14:	50 e0       	ldi	r21, 0x00	; 0
    3a16:	8b 81       	ldd	r24, Y+3	; 0x03
    3a18:	9c 81       	ldd	r25, Y+4	; 0x04
    3a1a:	fc 01       	movw	r30, r24
    3a1c:	84 81       	ldd	r24, Z+4	; 0x04
    3a1e:	95 81       	ldd	r25, Z+5	; 0x05
    3a20:	2d 81       	ldd	r18, Y+5	; 0x05
    3a22:	3e 81       	ldd	r19, Y+6	; 0x06
    3a24:	b9 01       	movw	r22, r18
    3a26:	0e 94 c2 27 	call	0x4f84	; 0x4f84 <memcpy>
    3a2a:	8b 81       	ldd	r24, Y+3	; 0x03
    3a2c:	9c 81       	ldd	r25, Y+4	; 0x04
    3a2e:	fc 01       	movw	r30, r24
    3a30:	24 81       	ldd	r18, Z+4	; 0x04
    3a32:	35 81       	ldd	r19, Z+5	; 0x05
    3a34:	8b 81       	ldd	r24, Y+3	; 0x03
    3a36:	9c 81       	ldd	r25, Y+4	; 0x04
    3a38:	fc 01       	movw	r30, r24
    3a3a:	84 8d       	ldd	r24, Z+28	; 0x1c
    3a3c:	88 2f       	mov	r24, r24
    3a3e:	90 e0       	ldi	r25, 0x00	; 0
    3a40:	28 0f       	add	r18, r24
    3a42:	39 1f       	adc	r19, r25
    3a44:	8b 81       	ldd	r24, Y+3	; 0x03
    3a46:	9c 81       	ldd	r25, Y+4	; 0x04
    3a48:	fc 01       	movw	r30, r24
    3a4a:	35 83       	std	Z+5, r19	; 0x05
    3a4c:	24 83       	std	Z+4, r18	; 0x04
    3a4e:	8b 81       	ldd	r24, Y+3	; 0x03
    3a50:	9c 81       	ldd	r25, Y+4	; 0x04
    3a52:	fc 01       	movw	r30, r24
    3a54:	24 81       	ldd	r18, Z+4	; 0x04
    3a56:	35 81       	ldd	r19, Z+5	; 0x05
    3a58:	8b 81       	ldd	r24, Y+3	; 0x03
    3a5a:	9c 81       	ldd	r25, Y+4	; 0x04
    3a5c:	fc 01       	movw	r30, r24
    3a5e:	82 81       	ldd	r24, Z+2	; 0x02
    3a60:	93 81       	ldd	r25, Z+3	; 0x03
    3a62:	28 17       	cp	r18, r24
    3a64:	39 07       	cpc	r19, r25
    3a66:	08 f4       	brcc	.+2      	; 0x3a6a <prvCopyDataToQueue+0xc8>
    3a68:	5b c0       	rjmp	.+182    	; 0x3b20 <prvCopyDataToQueue+0x17e>
    3a6a:	8b 81       	ldd	r24, Y+3	; 0x03
    3a6c:	9c 81       	ldd	r25, Y+4	; 0x04
    3a6e:	fc 01       	movw	r30, r24
    3a70:	20 81       	ld	r18, Z
    3a72:	31 81       	ldd	r19, Z+1	; 0x01
    3a74:	8b 81       	ldd	r24, Y+3	; 0x03
    3a76:	9c 81       	ldd	r25, Y+4	; 0x04
    3a78:	fc 01       	movw	r30, r24
    3a7a:	35 83       	std	Z+5, r19	; 0x05
    3a7c:	24 83       	std	Z+4, r18	; 0x04
    3a7e:	50 c0       	rjmp	.+160    	; 0x3b20 <prvCopyDataToQueue+0x17e>
    3a80:	8b 81       	ldd	r24, Y+3	; 0x03
    3a82:	9c 81       	ldd	r25, Y+4	; 0x04
    3a84:	fc 01       	movw	r30, r24
    3a86:	84 8d       	ldd	r24, Z+28	; 0x1c
    3a88:	48 2f       	mov	r20, r24
    3a8a:	50 e0       	ldi	r21, 0x00	; 0
    3a8c:	8b 81       	ldd	r24, Y+3	; 0x03
    3a8e:	9c 81       	ldd	r25, Y+4	; 0x04
    3a90:	fc 01       	movw	r30, r24
    3a92:	86 81       	ldd	r24, Z+6	; 0x06
    3a94:	97 81       	ldd	r25, Z+7	; 0x07
    3a96:	2d 81       	ldd	r18, Y+5	; 0x05
    3a98:	3e 81       	ldd	r19, Y+6	; 0x06
    3a9a:	b9 01       	movw	r22, r18
    3a9c:	0e 94 c2 27 	call	0x4f84	; 0x4f84 <memcpy>
    3aa0:	8b 81       	ldd	r24, Y+3	; 0x03
    3aa2:	9c 81       	ldd	r25, Y+4	; 0x04
    3aa4:	fc 01       	movw	r30, r24
    3aa6:	26 81       	ldd	r18, Z+6	; 0x06
    3aa8:	37 81       	ldd	r19, Z+7	; 0x07
    3aaa:	8b 81       	ldd	r24, Y+3	; 0x03
    3aac:	9c 81       	ldd	r25, Y+4	; 0x04
    3aae:	fc 01       	movw	r30, r24
    3ab0:	84 8d       	ldd	r24, Z+28	; 0x1c
    3ab2:	88 2f       	mov	r24, r24
    3ab4:	90 e0       	ldi	r25, 0x00	; 0
    3ab6:	91 95       	neg	r25
    3ab8:	81 95       	neg	r24
    3aba:	91 09       	sbc	r25, r1
    3abc:	28 0f       	add	r18, r24
    3abe:	39 1f       	adc	r19, r25
    3ac0:	8b 81       	ldd	r24, Y+3	; 0x03
    3ac2:	9c 81       	ldd	r25, Y+4	; 0x04
    3ac4:	fc 01       	movw	r30, r24
    3ac6:	37 83       	std	Z+7, r19	; 0x07
    3ac8:	26 83       	std	Z+6, r18	; 0x06
    3aca:	8b 81       	ldd	r24, Y+3	; 0x03
    3acc:	9c 81       	ldd	r25, Y+4	; 0x04
    3ace:	fc 01       	movw	r30, r24
    3ad0:	26 81       	ldd	r18, Z+6	; 0x06
    3ad2:	37 81       	ldd	r19, Z+7	; 0x07
    3ad4:	8b 81       	ldd	r24, Y+3	; 0x03
    3ad6:	9c 81       	ldd	r25, Y+4	; 0x04
    3ad8:	fc 01       	movw	r30, r24
    3ada:	80 81       	ld	r24, Z
    3adc:	91 81       	ldd	r25, Z+1	; 0x01
    3ade:	28 17       	cp	r18, r24
    3ae0:	39 07       	cpc	r19, r25
    3ae2:	a8 f4       	brcc	.+42     	; 0x3b0e <prvCopyDataToQueue+0x16c>
    3ae4:	8b 81       	ldd	r24, Y+3	; 0x03
    3ae6:	9c 81       	ldd	r25, Y+4	; 0x04
    3ae8:	fc 01       	movw	r30, r24
    3aea:	22 81       	ldd	r18, Z+2	; 0x02
    3aec:	33 81       	ldd	r19, Z+3	; 0x03
    3aee:	8b 81       	ldd	r24, Y+3	; 0x03
    3af0:	9c 81       	ldd	r25, Y+4	; 0x04
    3af2:	fc 01       	movw	r30, r24
    3af4:	84 8d       	ldd	r24, Z+28	; 0x1c
    3af6:	88 2f       	mov	r24, r24
    3af8:	90 e0       	ldi	r25, 0x00	; 0
    3afa:	91 95       	neg	r25
    3afc:	81 95       	neg	r24
    3afe:	91 09       	sbc	r25, r1
    3b00:	28 0f       	add	r18, r24
    3b02:	39 1f       	adc	r19, r25
    3b04:	8b 81       	ldd	r24, Y+3	; 0x03
    3b06:	9c 81       	ldd	r25, Y+4	; 0x04
    3b08:	fc 01       	movw	r30, r24
    3b0a:	37 83       	std	Z+7, r19	; 0x07
    3b0c:	26 83       	std	Z+6, r18	; 0x06
    3b0e:	8f 81       	ldd	r24, Y+7	; 0x07
    3b10:	82 30       	cpi	r24, 0x02	; 2
    3b12:	31 f4       	brne	.+12     	; 0x3b20 <prvCopyDataToQueue+0x17e>
    3b14:	8a 81       	ldd	r24, Y+2	; 0x02
    3b16:	88 23       	and	r24, r24
    3b18:	19 f0       	breq	.+6      	; 0x3b20 <prvCopyDataToQueue+0x17e>
    3b1a:	8a 81       	ldd	r24, Y+2	; 0x02
    3b1c:	81 50       	subi	r24, 0x01	; 1
    3b1e:	8a 83       	std	Y+2, r24	; 0x02
    3b20:	8a 81       	ldd	r24, Y+2	; 0x02
    3b22:	21 e0       	ldi	r18, 0x01	; 1
    3b24:	28 0f       	add	r18, r24
    3b26:	8b 81       	ldd	r24, Y+3	; 0x03
    3b28:	9c 81       	ldd	r25, Y+4	; 0x04
    3b2a:	fc 01       	movw	r30, r24
    3b2c:	22 8f       	std	Z+26, r18	; 0x1a
    3b2e:	89 81       	ldd	r24, Y+1	; 0x01
    3b30:	27 96       	adiw	r28, 0x07	; 7
    3b32:	0f b6       	in	r0, 0x3f	; 63
    3b34:	f8 94       	cli
    3b36:	de bf       	out	0x3e, r29	; 62
    3b38:	0f be       	out	0x3f, r0	; 63
    3b3a:	cd bf       	out	0x3d, r28	; 61
    3b3c:	df 91       	pop	r29
    3b3e:	cf 91       	pop	r28
    3b40:	08 95       	ret

00003b42 <prvCopyDataFromQueue>:
    3b42:	cf 93       	push	r28
    3b44:	df 93       	push	r29
    3b46:	00 d0       	rcall	.+0      	; 0x3b48 <prvCopyDataFromQueue+0x6>
    3b48:	00 d0       	rcall	.+0      	; 0x3b4a <prvCopyDataFromQueue+0x8>
    3b4a:	cd b7       	in	r28, 0x3d	; 61
    3b4c:	de b7       	in	r29, 0x3e	; 62
    3b4e:	9a 83       	std	Y+2, r25	; 0x02
    3b50:	89 83       	std	Y+1, r24	; 0x01
    3b52:	7c 83       	std	Y+4, r23	; 0x04
    3b54:	6b 83       	std	Y+3, r22	; 0x03
    3b56:	89 81       	ldd	r24, Y+1	; 0x01
    3b58:	9a 81       	ldd	r25, Y+2	; 0x02
    3b5a:	fc 01       	movw	r30, r24
    3b5c:	84 8d       	ldd	r24, Z+28	; 0x1c
    3b5e:	88 23       	and	r24, r24
    3b60:	c9 f1       	breq	.+114    	; 0x3bd4 <prvCopyDataFromQueue+0x92>
    3b62:	89 81       	ldd	r24, Y+1	; 0x01
    3b64:	9a 81       	ldd	r25, Y+2	; 0x02
    3b66:	fc 01       	movw	r30, r24
    3b68:	26 81       	ldd	r18, Z+6	; 0x06
    3b6a:	37 81       	ldd	r19, Z+7	; 0x07
    3b6c:	89 81       	ldd	r24, Y+1	; 0x01
    3b6e:	9a 81       	ldd	r25, Y+2	; 0x02
    3b70:	fc 01       	movw	r30, r24
    3b72:	84 8d       	ldd	r24, Z+28	; 0x1c
    3b74:	88 2f       	mov	r24, r24
    3b76:	90 e0       	ldi	r25, 0x00	; 0
    3b78:	28 0f       	add	r18, r24
    3b7a:	39 1f       	adc	r19, r25
    3b7c:	89 81       	ldd	r24, Y+1	; 0x01
    3b7e:	9a 81       	ldd	r25, Y+2	; 0x02
    3b80:	fc 01       	movw	r30, r24
    3b82:	37 83       	std	Z+7, r19	; 0x07
    3b84:	26 83       	std	Z+6, r18	; 0x06
    3b86:	89 81       	ldd	r24, Y+1	; 0x01
    3b88:	9a 81       	ldd	r25, Y+2	; 0x02
    3b8a:	fc 01       	movw	r30, r24
    3b8c:	26 81       	ldd	r18, Z+6	; 0x06
    3b8e:	37 81       	ldd	r19, Z+7	; 0x07
    3b90:	89 81       	ldd	r24, Y+1	; 0x01
    3b92:	9a 81       	ldd	r25, Y+2	; 0x02
    3b94:	fc 01       	movw	r30, r24
    3b96:	82 81       	ldd	r24, Z+2	; 0x02
    3b98:	93 81       	ldd	r25, Z+3	; 0x03
    3b9a:	28 17       	cp	r18, r24
    3b9c:	39 07       	cpc	r19, r25
    3b9e:	50 f0       	brcs	.+20     	; 0x3bb4 <prvCopyDataFromQueue+0x72>
    3ba0:	89 81       	ldd	r24, Y+1	; 0x01
    3ba2:	9a 81       	ldd	r25, Y+2	; 0x02
    3ba4:	fc 01       	movw	r30, r24
    3ba6:	20 81       	ld	r18, Z
    3ba8:	31 81       	ldd	r19, Z+1	; 0x01
    3baa:	89 81       	ldd	r24, Y+1	; 0x01
    3bac:	9a 81       	ldd	r25, Y+2	; 0x02
    3bae:	fc 01       	movw	r30, r24
    3bb0:	37 83       	std	Z+7, r19	; 0x07
    3bb2:	26 83       	std	Z+6, r18	; 0x06
    3bb4:	89 81       	ldd	r24, Y+1	; 0x01
    3bb6:	9a 81       	ldd	r25, Y+2	; 0x02
    3bb8:	fc 01       	movw	r30, r24
    3bba:	84 8d       	ldd	r24, Z+28	; 0x1c
    3bbc:	48 2f       	mov	r20, r24
    3bbe:	50 e0       	ldi	r21, 0x00	; 0
    3bc0:	89 81       	ldd	r24, Y+1	; 0x01
    3bc2:	9a 81       	ldd	r25, Y+2	; 0x02
    3bc4:	fc 01       	movw	r30, r24
    3bc6:	26 81       	ldd	r18, Z+6	; 0x06
    3bc8:	37 81       	ldd	r19, Z+7	; 0x07
    3bca:	8b 81       	ldd	r24, Y+3	; 0x03
    3bcc:	9c 81       	ldd	r25, Y+4	; 0x04
    3bce:	b9 01       	movw	r22, r18
    3bd0:	0e 94 c2 27 	call	0x4f84	; 0x4f84 <memcpy>
    3bd4:	00 00       	nop
    3bd6:	0f 90       	pop	r0
    3bd8:	0f 90       	pop	r0
    3bda:	0f 90       	pop	r0
    3bdc:	0f 90       	pop	r0
    3bde:	df 91       	pop	r29
    3be0:	cf 91       	pop	r28
    3be2:	08 95       	ret

00003be4 <prvUnlockQueue>:
    3be4:	cf 93       	push	r28
    3be6:	df 93       	push	r29
    3be8:	00 d0       	rcall	.+0      	; 0x3bea <prvUnlockQueue+0x6>
    3bea:	00 d0       	rcall	.+0      	; 0x3bec <prvUnlockQueue+0x8>
    3bec:	cd b7       	in	r28, 0x3d	; 61
    3bee:	de b7       	in	r29, 0x3e	; 62
    3bf0:	9c 83       	std	Y+4, r25	; 0x04
    3bf2:	8b 83       	std	Y+3, r24	; 0x03
    3bf4:	0f b6       	in	r0, 0x3f	; 63
    3bf6:	f8 94       	cli
    3bf8:	0f 92       	push	r0
    3bfa:	8b 81       	ldd	r24, Y+3	; 0x03
    3bfc:	9c 81       	ldd	r25, Y+4	; 0x04
    3bfe:	fc 01       	movw	r30, r24
    3c00:	86 8d       	ldd	r24, Z+30	; 0x1e
    3c02:	89 83       	std	Y+1, r24	; 0x01
    3c04:	12 c0       	rjmp	.+36     	; 0x3c2a <prvUnlockQueue+0x46>
    3c06:	8b 81       	ldd	r24, Y+3	; 0x03
    3c08:	9c 81       	ldd	r25, Y+4	; 0x04
    3c0a:	fc 01       	movw	r30, r24
    3c0c:	81 89       	ldd	r24, Z+17	; 0x11
    3c0e:	88 23       	and	r24, r24
    3c10:	81 f0       	breq	.+32     	; 0x3c32 <prvUnlockQueue+0x4e>
    3c12:	8b 81       	ldd	r24, Y+3	; 0x03
    3c14:	9c 81       	ldd	r25, Y+4	; 0x04
    3c16:	41 96       	adiw	r24, 0x11	; 17
    3c18:	0e 94 af 23 	call	0x475e	; 0x475e <xTaskRemoveFromEventList>
    3c1c:	88 23       	and	r24, r24
    3c1e:	11 f0       	breq	.+4      	; 0x3c24 <prvUnlockQueue+0x40>
    3c20:	0e 94 a0 24 	call	0x4940	; 0x4940 <vTaskMissedYield>
    3c24:	89 81       	ldd	r24, Y+1	; 0x01
    3c26:	81 50       	subi	r24, 0x01	; 1
    3c28:	89 83       	std	Y+1, r24	; 0x01
    3c2a:	89 81       	ldd	r24, Y+1	; 0x01
    3c2c:	18 16       	cp	r1, r24
    3c2e:	5c f3       	brlt	.-42     	; 0x3c06 <prvUnlockQueue+0x22>
    3c30:	01 c0       	rjmp	.+2      	; 0x3c34 <prvUnlockQueue+0x50>
    3c32:	00 00       	nop
    3c34:	8b 81       	ldd	r24, Y+3	; 0x03
    3c36:	9c 81       	ldd	r25, Y+4	; 0x04
    3c38:	2f ef       	ldi	r18, 0xFF	; 255
    3c3a:	fc 01       	movw	r30, r24
    3c3c:	26 8f       	std	Z+30, r18	; 0x1e
    3c3e:	0f 90       	pop	r0
    3c40:	0f be       	out	0x3f, r0	; 63
    3c42:	0f b6       	in	r0, 0x3f	; 63
    3c44:	f8 94       	cli
    3c46:	0f 92       	push	r0
    3c48:	8b 81       	ldd	r24, Y+3	; 0x03
    3c4a:	9c 81       	ldd	r25, Y+4	; 0x04
    3c4c:	fc 01       	movw	r30, r24
    3c4e:	85 8d       	ldd	r24, Z+29	; 0x1d
    3c50:	8a 83       	std	Y+2, r24	; 0x02
    3c52:	12 c0       	rjmp	.+36     	; 0x3c78 <prvUnlockQueue+0x94>
    3c54:	8b 81       	ldd	r24, Y+3	; 0x03
    3c56:	9c 81       	ldd	r25, Y+4	; 0x04
    3c58:	fc 01       	movw	r30, r24
    3c5a:	80 85       	ldd	r24, Z+8	; 0x08
    3c5c:	88 23       	and	r24, r24
    3c5e:	81 f0       	breq	.+32     	; 0x3c80 <prvUnlockQueue+0x9c>
    3c60:	8b 81       	ldd	r24, Y+3	; 0x03
    3c62:	9c 81       	ldd	r25, Y+4	; 0x04
    3c64:	08 96       	adiw	r24, 0x08	; 8
    3c66:	0e 94 af 23 	call	0x475e	; 0x475e <xTaskRemoveFromEventList>
    3c6a:	88 23       	and	r24, r24
    3c6c:	11 f0       	breq	.+4      	; 0x3c72 <prvUnlockQueue+0x8e>
    3c6e:	0e 94 a0 24 	call	0x4940	; 0x4940 <vTaskMissedYield>
    3c72:	8a 81       	ldd	r24, Y+2	; 0x02
    3c74:	81 50       	subi	r24, 0x01	; 1
    3c76:	8a 83       	std	Y+2, r24	; 0x02
    3c78:	8a 81       	ldd	r24, Y+2	; 0x02
    3c7a:	18 16       	cp	r1, r24
    3c7c:	5c f3       	brlt	.-42     	; 0x3c54 <prvUnlockQueue+0x70>
    3c7e:	01 c0       	rjmp	.+2      	; 0x3c82 <prvUnlockQueue+0x9e>
    3c80:	00 00       	nop
    3c82:	8b 81       	ldd	r24, Y+3	; 0x03
    3c84:	9c 81       	ldd	r25, Y+4	; 0x04
    3c86:	2f ef       	ldi	r18, 0xFF	; 255
    3c88:	fc 01       	movw	r30, r24
    3c8a:	25 8f       	std	Z+29, r18	; 0x1d
    3c8c:	0f 90       	pop	r0
    3c8e:	0f be       	out	0x3f, r0	; 63
    3c90:	00 00       	nop
    3c92:	0f 90       	pop	r0
    3c94:	0f 90       	pop	r0
    3c96:	0f 90       	pop	r0
    3c98:	0f 90       	pop	r0
    3c9a:	df 91       	pop	r29
    3c9c:	cf 91       	pop	r28
    3c9e:	08 95       	ret

00003ca0 <prvIsQueueEmpty>:
    3ca0:	cf 93       	push	r28
    3ca2:	df 93       	push	r29
    3ca4:	00 d0       	rcall	.+0      	; 0x3ca6 <prvIsQueueEmpty+0x6>
    3ca6:	1f 92       	push	r1
    3ca8:	cd b7       	in	r28, 0x3d	; 61
    3caa:	de b7       	in	r29, 0x3e	; 62
    3cac:	9b 83       	std	Y+3, r25	; 0x03
    3cae:	8a 83       	std	Y+2, r24	; 0x02
    3cb0:	0f b6       	in	r0, 0x3f	; 63
    3cb2:	f8 94       	cli
    3cb4:	0f 92       	push	r0
    3cb6:	8a 81       	ldd	r24, Y+2	; 0x02
    3cb8:	9b 81       	ldd	r25, Y+3	; 0x03
    3cba:	fc 01       	movw	r30, r24
    3cbc:	82 8d       	ldd	r24, Z+26	; 0x1a
    3cbe:	88 23       	and	r24, r24
    3cc0:	19 f4       	brne	.+6      	; 0x3cc8 <prvIsQueueEmpty+0x28>
    3cc2:	81 e0       	ldi	r24, 0x01	; 1
    3cc4:	89 83       	std	Y+1, r24	; 0x01
    3cc6:	01 c0       	rjmp	.+2      	; 0x3cca <prvIsQueueEmpty+0x2a>
    3cc8:	19 82       	std	Y+1, r1	; 0x01
    3cca:	0f 90       	pop	r0
    3ccc:	0f be       	out	0x3f, r0	; 63
    3cce:	89 81       	ldd	r24, Y+1	; 0x01
    3cd0:	0f 90       	pop	r0
    3cd2:	0f 90       	pop	r0
    3cd4:	0f 90       	pop	r0
    3cd6:	df 91       	pop	r29
    3cd8:	cf 91       	pop	r28
    3cda:	08 95       	ret

00003cdc <prvIsQueueFull>:
    3cdc:	cf 93       	push	r28
    3cde:	df 93       	push	r29
    3ce0:	00 d0       	rcall	.+0      	; 0x3ce2 <prvIsQueueFull+0x6>
    3ce2:	1f 92       	push	r1
    3ce4:	cd b7       	in	r28, 0x3d	; 61
    3ce6:	de b7       	in	r29, 0x3e	; 62
    3ce8:	9b 83       	std	Y+3, r25	; 0x03
    3cea:	8a 83       	std	Y+2, r24	; 0x02
    3cec:	0f b6       	in	r0, 0x3f	; 63
    3cee:	f8 94       	cli
    3cf0:	0f 92       	push	r0
    3cf2:	8a 81       	ldd	r24, Y+2	; 0x02
    3cf4:	9b 81       	ldd	r25, Y+3	; 0x03
    3cf6:	fc 01       	movw	r30, r24
    3cf8:	22 8d       	ldd	r18, Z+26	; 0x1a
    3cfa:	8a 81       	ldd	r24, Y+2	; 0x02
    3cfc:	9b 81       	ldd	r25, Y+3	; 0x03
    3cfe:	fc 01       	movw	r30, r24
    3d00:	83 8d       	ldd	r24, Z+27	; 0x1b
    3d02:	28 17       	cp	r18, r24
    3d04:	19 f4       	brne	.+6      	; 0x3d0c <prvIsQueueFull+0x30>
    3d06:	81 e0       	ldi	r24, 0x01	; 1
    3d08:	89 83       	std	Y+1, r24	; 0x01
    3d0a:	01 c0       	rjmp	.+2      	; 0x3d0e <prvIsQueueFull+0x32>
    3d0c:	19 82       	std	Y+1, r1	; 0x01
    3d0e:	0f 90       	pop	r0
    3d10:	0f be       	out	0x3f, r0	; 63
    3d12:	89 81       	ldd	r24, Y+1	; 0x01
    3d14:	0f 90       	pop	r0
    3d16:	0f 90       	pop	r0
    3d18:	0f 90       	pop	r0
    3d1a:	df 91       	pop	r29
    3d1c:	cf 91       	pop	r28
    3d1e:	08 95       	ret

00003d20 <xTaskCreate>:
    3d20:	8f 92       	push	r8
    3d22:	9f 92       	push	r9
    3d24:	af 92       	push	r10
    3d26:	bf 92       	push	r11
    3d28:	cf 92       	push	r12
    3d2a:	df 92       	push	r13
    3d2c:	ef 92       	push	r14
    3d2e:	ff 92       	push	r15
    3d30:	0f 93       	push	r16
    3d32:	1f 93       	push	r17
    3d34:	cf 93       	push	r28
    3d36:	df 93       	push	r29
    3d38:	cd b7       	in	r28, 0x3d	; 61
    3d3a:	de b7       	in	r29, 0x3e	; 62
    3d3c:	60 97       	sbiw	r28, 0x10	; 16
    3d3e:	0f b6       	in	r0, 0x3f	; 63
    3d40:	f8 94       	cli
    3d42:	de bf       	out	0x3e, r29	; 62
    3d44:	0f be       	out	0x3f, r0	; 63
    3d46:	cd bf       	out	0x3d, r28	; 61
    3d48:	9f 83       	std	Y+7, r25	; 0x07
    3d4a:	8e 83       	std	Y+6, r24	; 0x06
    3d4c:	79 87       	std	Y+9, r23	; 0x09
    3d4e:	68 87       	std	Y+8, r22	; 0x08
    3d50:	5b 87       	std	Y+11, r21	; 0x0b
    3d52:	4a 87       	std	Y+10, r20	; 0x0a
    3d54:	3d 87       	std	Y+13, r19	; 0x0d
    3d56:	2c 87       	std	Y+12, r18	; 0x0c
    3d58:	0e 87       	std	Y+14, r16	; 0x0e
    3d5a:	f8 8a       	std	Y+16, r15	; 0x10
    3d5c:	ef 86       	std	Y+15, r14	; 0x0f
    3d5e:	8a 85       	ldd	r24, Y+10	; 0x0a
    3d60:	9b 85       	ldd	r25, Y+11	; 0x0b
    3d62:	0e 94 e0 17 	call	0x2fc0	; 0x2fc0 <pvPortMalloc>
    3d66:	9d 83       	std	Y+5, r25	; 0x05
    3d68:	8c 83       	std	Y+4, r24	; 0x04
    3d6a:	8c 81       	ldd	r24, Y+4	; 0x04
    3d6c:	9d 81       	ldd	r25, Y+5	; 0x05
    3d6e:	89 2b       	or	r24, r25
    3d70:	b9 f0       	breq	.+46     	; 0x3da0 <xTaskCreate+0x80>
    3d72:	8c e2       	ldi	r24, 0x2C	; 44
    3d74:	90 e0       	ldi	r25, 0x00	; 0
    3d76:	0e 94 e0 17 	call	0x2fc0	; 0x2fc0 <pvPortMalloc>
    3d7a:	9a 83       	std	Y+2, r25	; 0x02
    3d7c:	89 83       	std	Y+1, r24	; 0x01
    3d7e:	89 81       	ldd	r24, Y+1	; 0x01
    3d80:	9a 81       	ldd	r25, Y+2	; 0x02
    3d82:	89 2b       	or	r24, r25
    3d84:	41 f0       	breq	.+16     	; 0x3d96 <xTaskCreate+0x76>
    3d86:	89 81       	ldd	r24, Y+1	; 0x01
    3d88:	9a 81       	ldd	r25, Y+2	; 0x02
    3d8a:	2c 81       	ldd	r18, Y+4	; 0x04
    3d8c:	3d 81       	ldd	r19, Y+5	; 0x05
    3d8e:	fc 01       	movw	r30, r24
    3d90:	30 8f       	std	Z+24, r19	; 0x18
    3d92:	27 8b       	std	Z+23, r18	; 0x17
    3d94:	07 c0       	rjmp	.+14     	; 0x3da4 <xTaskCreate+0x84>
    3d96:	8c 81       	ldd	r24, Y+4	; 0x04
    3d98:	9d 81       	ldd	r25, Y+5	; 0x05
    3d9a:	0e 94 d5 18 	call	0x31aa	; 0x31aa <vPortFree>
    3d9e:	02 c0       	rjmp	.+4      	; 0x3da4 <xTaskCreate+0x84>
    3da0:	1a 82       	std	Y+2, r1	; 0x02
    3da2:	19 82       	std	Y+1, r1	; 0x01
    3da4:	89 81       	ldd	r24, Y+1	; 0x01
    3da6:	9a 81       	ldd	r25, Y+2	; 0x02
    3da8:	89 2b       	or	r24, r25
    3daa:	09 f1       	breq	.+66     	; 0x3dee <xTaskCreate+0xce>
    3dac:	8a 85       	ldd	r24, Y+10	; 0x0a
    3dae:	9b 85       	ldd	r25, Y+11	; 0x0b
    3db0:	cc 01       	movw	r24, r24
    3db2:	a0 e0       	ldi	r26, 0x00	; 0
    3db4:	b0 e0       	ldi	r27, 0x00	; 0
    3db6:	09 81       	ldd	r16, Y+1	; 0x01
    3db8:	1a 81       	ldd	r17, Y+2	; 0x02
    3dba:	4f 85       	ldd	r20, Y+15	; 0x0f
    3dbc:	58 89       	ldd	r21, Y+16	; 0x10
    3dbe:	2c 85       	ldd	r18, Y+12	; 0x0c
    3dc0:	3d 85       	ldd	r19, Y+13	; 0x0d
    3dc2:	68 85       	ldd	r22, Y+8	; 0x08
    3dc4:	79 85       	ldd	r23, Y+9	; 0x09
    3dc6:	ee 81       	ldd	r30, Y+6	; 0x06
    3dc8:	ff 81       	ldd	r31, Y+7	; 0x07
    3dca:	81 2c       	mov	r8, r1
    3dcc:	91 2c       	mov	r9, r1
    3dce:	58 01       	movw	r10, r16
    3dd0:	6a 01       	movw	r12, r20
    3dd2:	ee 84       	ldd	r14, Y+14	; 0x0e
    3dd4:	89 01       	movw	r16, r18
    3dd6:	9c 01       	movw	r18, r24
    3dd8:	ad 01       	movw	r20, r26
    3dda:	cf 01       	movw	r24, r30
    3ddc:	0e 94 0d 1f 	call	0x3e1a	; 0x3e1a <prvInitialiseNewTask>
    3de0:	89 81       	ldd	r24, Y+1	; 0x01
    3de2:	9a 81       	ldd	r25, Y+2	; 0x02
    3de4:	0e 94 e9 1f 	call	0x3fd2	; 0x3fd2 <prvAddNewTaskToReadyList>
    3de8:	81 e0       	ldi	r24, 0x01	; 1
    3dea:	8b 83       	std	Y+3, r24	; 0x03
    3dec:	02 c0       	rjmp	.+4      	; 0x3df2 <xTaskCreate+0xd2>
    3dee:	8f ef       	ldi	r24, 0xFF	; 255
    3df0:	8b 83       	std	Y+3, r24	; 0x03
    3df2:	8b 81       	ldd	r24, Y+3	; 0x03
    3df4:	60 96       	adiw	r28, 0x10	; 16
    3df6:	0f b6       	in	r0, 0x3f	; 63
    3df8:	f8 94       	cli
    3dfa:	de bf       	out	0x3e, r29	; 62
    3dfc:	0f be       	out	0x3f, r0	; 63
    3dfe:	cd bf       	out	0x3d, r28	; 61
    3e00:	df 91       	pop	r29
    3e02:	cf 91       	pop	r28
    3e04:	1f 91       	pop	r17
    3e06:	0f 91       	pop	r16
    3e08:	ff 90       	pop	r15
    3e0a:	ef 90       	pop	r14
    3e0c:	df 90       	pop	r13
    3e0e:	cf 90       	pop	r12
    3e10:	bf 90       	pop	r11
    3e12:	af 90       	pop	r10
    3e14:	9f 90       	pop	r9
    3e16:	8f 90       	pop	r8
    3e18:	08 95       	ret

00003e1a <prvInitialiseNewTask>:
    3e1a:	8f 92       	push	r8
    3e1c:	9f 92       	push	r9
    3e1e:	af 92       	push	r10
    3e20:	bf 92       	push	r11
    3e22:	cf 92       	push	r12
    3e24:	df 92       	push	r13
    3e26:	ef 92       	push	r14
    3e28:	0f 93       	push	r16
    3e2a:	1f 93       	push	r17
    3e2c:	cf 93       	push	r28
    3e2e:	df 93       	push	r29
    3e30:	cd b7       	in	r28, 0x3d	; 61
    3e32:	de b7       	in	r29, 0x3e	; 62
    3e34:	64 97       	sbiw	r28, 0x14	; 20
    3e36:	0f b6       	in	r0, 0x3f	; 63
    3e38:	f8 94       	cli
    3e3a:	de bf       	out	0x3e, r29	; 62
    3e3c:	0f be       	out	0x3f, r0	; 63
    3e3e:	cd bf       	out	0x3d, r28	; 61
    3e40:	9d 83       	std	Y+5, r25	; 0x05
    3e42:	8c 83       	std	Y+4, r24	; 0x04
    3e44:	7f 83       	std	Y+7, r23	; 0x07
    3e46:	6e 83       	std	Y+6, r22	; 0x06
    3e48:	28 87       	std	Y+8, r18	; 0x08
    3e4a:	39 87       	std	Y+9, r19	; 0x09
    3e4c:	4a 87       	std	Y+10, r20	; 0x0a
    3e4e:	5b 87       	std	Y+11, r21	; 0x0b
    3e50:	1d 87       	std	Y+13, r17	; 0x0d
    3e52:	0c 87       	std	Y+12, r16	; 0x0c
    3e54:	ee 86       	std	Y+14, r14	; 0x0e
    3e56:	d8 8a       	std	Y+16, r13	; 0x10
    3e58:	cf 86       	std	Y+15, r12	; 0x0f
    3e5a:	ba 8a       	std	Y+18, r11	; 0x12
    3e5c:	a9 8a       	std	Y+17, r10	; 0x11
    3e5e:	9c 8a       	std	Y+20, r9	; 0x14
    3e60:	8b 8a       	std	Y+19, r8	; 0x13
    3e62:	28 85       	ldd	r18, Y+8	; 0x08
    3e64:	39 85       	ldd	r19, Y+9	; 0x09
    3e66:	89 89       	ldd	r24, Y+17	; 0x11
    3e68:	9a 89       	ldd	r25, Y+18	; 0x12
    3e6a:	fc 01       	movw	r30, r24
    3e6c:	87 89       	ldd	r24, Z+23	; 0x17
    3e6e:	90 8d       	ldd	r25, Z+24	; 0x18
    3e70:	a9 01       	movw	r20, r18
    3e72:	65 ea       	ldi	r22, 0xA5	; 165
    3e74:	70 e0       	ldi	r23, 0x00	; 0
    3e76:	0e 94 cb 27 	call	0x4f96	; 0x4f96 <memset>
    3e7a:	89 89       	ldd	r24, Y+17	; 0x11
    3e7c:	9a 89       	ldd	r25, Y+18	; 0x12
    3e7e:	fc 01       	movw	r30, r24
    3e80:	27 89       	ldd	r18, Z+23	; 0x17
    3e82:	30 8d       	ldd	r19, Z+24	; 0x18
    3e84:	88 85       	ldd	r24, Y+8	; 0x08
    3e86:	99 85       	ldd	r25, Y+9	; 0x09
    3e88:	01 97       	sbiw	r24, 0x01	; 1
    3e8a:	82 0f       	add	r24, r18
    3e8c:	93 1f       	adc	r25, r19
    3e8e:	9b 83       	std	Y+3, r25	; 0x03
    3e90:	8a 83       	std	Y+2, r24	; 0x02
    3e92:	19 82       	std	Y+1, r1	; 0x01
    3e94:	21 c0       	rjmp	.+66     	; 0x3ed8 <prvInitialiseNewTask+0xbe>
    3e96:	89 81       	ldd	r24, Y+1	; 0x01
    3e98:	88 2f       	mov	r24, r24
    3e9a:	90 e0       	ldi	r25, 0x00	; 0
    3e9c:	29 81       	ldd	r18, Y+1	; 0x01
    3e9e:	22 2f       	mov	r18, r18
    3ea0:	30 e0       	ldi	r19, 0x00	; 0
    3ea2:	4e 81       	ldd	r20, Y+6	; 0x06
    3ea4:	5f 81       	ldd	r21, Y+7	; 0x07
    3ea6:	24 0f       	add	r18, r20
    3ea8:	35 1f       	adc	r19, r21
    3eaa:	f9 01       	movw	r30, r18
    3eac:	40 81       	ld	r20, Z
    3eae:	29 89       	ldd	r18, Y+17	; 0x11
    3eb0:	3a 89       	ldd	r19, Y+18	; 0x12
    3eb2:	82 0f       	add	r24, r18
    3eb4:	93 1f       	adc	r25, r19
    3eb6:	49 96       	adiw	r24, 0x19	; 25
    3eb8:	fc 01       	movw	r30, r24
    3eba:	40 83       	st	Z, r20
    3ebc:	89 81       	ldd	r24, Y+1	; 0x01
    3ebe:	88 2f       	mov	r24, r24
    3ec0:	90 e0       	ldi	r25, 0x00	; 0
    3ec2:	2e 81       	ldd	r18, Y+6	; 0x06
    3ec4:	3f 81       	ldd	r19, Y+7	; 0x07
    3ec6:	82 0f       	add	r24, r18
    3ec8:	93 1f       	adc	r25, r19
    3eca:	fc 01       	movw	r30, r24
    3ecc:	80 81       	ld	r24, Z
    3ece:	88 23       	and	r24, r24
    3ed0:	39 f0       	breq	.+14     	; 0x3ee0 <prvInitialiseNewTask+0xc6>
    3ed2:	89 81       	ldd	r24, Y+1	; 0x01
    3ed4:	8f 5f       	subi	r24, 0xFF	; 255
    3ed6:	89 83       	std	Y+1, r24	; 0x01
    3ed8:	89 81       	ldd	r24, Y+1	; 0x01
    3eda:	88 30       	cpi	r24, 0x08	; 8
    3edc:	e0 f2       	brcs	.-72     	; 0x3e96 <prvInitialiseNewTask+0x7c>
    3ede:	01 c0       	rjmp	.+2      	; 0x3ee2 <prvInitialiseNewTask+0xc8>
    3ee0:	00 00       	nop
    3ee2:	89 89       	ldd	r24, Y+17	; 0x11
    3ee4:	9a 89       	ldd	r25, Y+18	; 0x12
    3ee6:	fc 01       	movw	r30, r24
    3ee8:	10 a2       	std	Z+32, r1	; 0x20
    3eea:	8e 85       	ldd	r24, Y+14	; 0x0e
    3eec:	84 30       	cpi	r24, 0x04	; 4
    3eee:	10 f0       	brcs	.+4      	; 0x3ef4 <prvInitialiseNewTask+0xda>
    3ef0:	83 e0       	ldi	r24, 0x03	; 3
    3ef2:	8e 87       	std	Y+14, r24	; 0x0e
    3ef4:	89 89       	ldd	r24, Y+17	; 0x11
    3ef6:	9a 89       	ldd	r25, Y+18	; 0x12
    3ef8:	2e 85       	ldd	r18, Y+14	; 0x0e
    3efa:	fc 01       	movw	r30, r24
    3efc:	26 8b       	std	Z+22, r18	; 0x16
    3efe:	89 89       	ldd	r24, Y+17	; 0x11
    3f00:	9a 89       	ldd	r25, Y+18	; 0x12
    3f02:	2e 85       	ldd	r18, Y+14	; 0x0e
    3f04:	fc 01       	movw	r30, r24
    3f06:	23 a3       	std	Z+35, r18	; 0x23
    3f08:	89 89       	ldd	r24, Y+17	; 0x11
    3f0a:	9a 89       	ldd	r25, Y+18	; 0x12
    3f0c:	fc 01       	movw	r30, r24
    3f0e:	14 a2       	std	Z+36, r1	; 0x24
    3f10:	89 89       	ldd	r24, Y+17	; 0x11
    3f12:	9a 89       	ldd	r25, Y+18	; 0x12
    3f14:	02 96       	adiw	r24, 0x02	; 2
    3f16:	0e 94 48 11 	call	0x2290	; 0x2290 <vListInitialiseItem>
    3f1a:	89 89       	ldd	r24, Y+17	; 0x11
    3f1c:	9a 89       	ldd	r25, Y+18	; 0x12
    3f1e:	0c 96       	adiw	r24, 0x0c	; 12
    3f20:	0e 94 48 11 	call	0x2290	; 0x2290 <vListInitialiseItem>
    3f24:	89 89       	ldd	r24, Y+17	; 0x11
    3f26:	9a 89       	ldd	r25, Y+18	; 0x12
    3f28:	29 89       	ldd	r18, Y+17	; 0x11
    3f2a:	3a 89       	ldd	r19, Y+18	; 0x12
    3f2c:	fc 01       	movw	r30, r24
    3f2e:	31 87       	std	Z+9, r19	; 0x09
    3f30:	20 87       	std	Z+8, r18	; 0x08
    3f32:	8e 85       	ldd	r24, Y+14	; 0x0e
    3f34:	88 2f       	mov	r24, r24
    3f36:	90 e0       	ldi	r25, 0x00	; 0
    3f38:	24 e0       	ldi	r18, 0x04	; 4
    3f3a:	30 e0       	ldi	r19, 0x00	; 0
    3f3c:	28 1b       	sub	r18, r24
    3f3e:	39 0b       	sbc	r19, r25
    3f40:	89 89       	ldd	r24, Y+17	; 0x11
    3f42:	9a 89       	ldd	r25, Y+18	; 0x12
    3f44:	fc 01       	movw	r30, r24
    3f46:	35 87       	std	Z+13, r19	; 0x0d
    3f48:	24 87       	std	Z+12, r18	; 0x0c
    3f4a:	89 89       	ldd	r24, Y+17	; 0x11
    3f4c:	9a 89       	ldd	r25, Y+18	; 0x12
    3f4e:	29 89       	ldd	r18, Y+17	; 0x11
    3f50:	3a 89       	ldd	r19, Y+18	; 0x12
    3f52:	fc 01       	movw	r30, r24
    3f54:	33 8b       	std	Z+19, r19	; 0x13
    3f56:	22 8b       	std	Z+18, r18	; 0x12
    3f58:	89 89       	ldd	r24, Y+17	; 0x11
    3f5a:	9a 89       	ldd	r25, Y+18	; 0x12
    3f5c:	fc 01       	movw	r30, r24
    3f5e:	16 a2       	std	Z+38, r1	; 0x26
    3f60:	15 a2       	std	Z+37, r1	; 0x25
    3f62:	89 89       	ldd	r24, Y+17	; 0x11
    3f64:	9a 89       	ldd	r25, Y+18	; 0x12
    3f66:	fc 01       	movw	r30, r24
    3f68:	17 a2       	std	Z+39, r1	; 0x27
    3f6a:	10 a6       	std	Z+40, r1	; 0x28
    3f6c:	11 a6       	std	Z+41, r1	; 0x29
    3f6e:	12 a6       	std	Z+42, r1	; 0x2a
    3f70:	89 89       	ldd	r24, Y+17	; 0x11
    3f72:	9a 89       	ldd	r25, Y+18	; 0x12
    3f74:	fc 01       	movw	r30, r24
    3f76:	13 a6       	std	Z+43, r1	; 0x2b
    3f78:	4c 85       	ldd	r20, Y+12	; 0x0c
    3f7a:	5d 85       	ldd	r21, Y+13	; 0x0d
    3f7c:	2c 81       	ldd	r18, Y+4	; 0x04
    3f7e:	3d 81       	ldd	r19, Y+5	; 0x05
    3f80:	8a 81       	ldd	r24, Y+2	; 0x02
    3f82:	9b 81       	ldd	r25, Y+3	; 0x03
    3f84:	b9 01       	movw	r22, r18
    3f86:	0e 94 78 12 	call	0x24f0	; 0x24f0 <pxPortInitialiseStack>
    3f8a:	9c 01       	movw	r18, r24
    3f8c:	89 89       	ldd	r24, Y+17	; 0x11
    3f8e:	9a 89       	ldd	r25, Y+18	; 0x12
    3f90:	fc 01       	movw	r30, r24
    3f92:	31 83       	std	Z+1, r19	; 0x01
    3f94:	20 83       	st	Z, r18
    3f96:	8f 85       	ldd	r24, Y+15	; 0x0f
    3f98:	98 89       	ldd	r25, Y+16	; 0x10
    3f9a:	89 2b       	or	r24, r25
    3f9c:	39 f0       	breq	.+14     	; 0x3fac <prvInitialiseNewTask+0x192>
    3f9e:	8f 85       	ldd	r24, Y+15	; 0x0f
    3fa0:	98 89       	ldd	r25, Y+16	; 0x10
    3fa2:	29 89       	ldd	r18, Y+17	; 0x11
    3fa4:	3a 89       	ldd	r19, Y+18	; 0x12
    3fa6:	fc 01       	movw	r30, r24
    3fa8:	31 83       	std	Z+1, r19	; 0x01
    3faa:	20 83       	st	Z, r18
    3fac:	00 00       	nop
    3fae:	64 96       	adiw	r28, 0x14	; 20
    3fb0:	0f b6       	in	r0, 0x3f	; 63
    3fb2:	f8 94       	cli
    3fb4:	de bf       	out	0x3e, r29	; 62
    3fb6:	0f be       	out	0x3f, r0	; 63
    3fb8:	cd bf       	out	0x3d, r28	; 61
    3fba:	df 91       	pop	r29
    3fbc:	cf 91       	pop	r28
    3fbe:	1f 91       	pop	r17
    3fc0:	0f 91       	pop	r16
    3fc2:	ef 90       	pop	r14
    3fc4:	df 90       	pop	r13
    3fc6:	cf 90       	pop	r12
    3fc8:	bf 90       	pop	r11
    3fca:	af 90       	pop	r10
    3fcc:	9f 90       	pop	r9
    3fce:	8f 90       	pop	r8
    3fd0:	08 95       	ret

00003fd2 <prvAddNewTaskToReadyList>:
    3fd2:	cf 93       	push	r28
    3fd4:	df 93       	push	r29
    3fd6:	00 d0       	rcall	.+0      	; 0x3fd8 <prvAddNewTaskToReadyList+0x6>
    3fd8:	cd b7       	in	r28, 0x3d	; 61
    3fda:	de b7       	in	r29, 0x3e	; 62
    3fdc:	9a 83       	std	Y+2, r25	; 0x02
    3fde:	89 83       	std	Y+1, r24	; 0x01
    3fe0:	0f b6       	in	r0, 0x3f	; 63
    3fe2:	f8 94       	cli
    3fe4:	0f 92       	push	r0
    3fe6:	80 91 15 08 	lds	r24, 0x0815	; 0x800815 <uxCurrentNumberOfTasks>
    3fea:	8f 5f       	subi	r24, 0xFF	; 255
    3fec:	80 93 15 08 	sts	0x0815, r24	; 0x800815 <uxCurrentNumberOfTasks>
    3ff0:	80 91 c6 07 	lds	r24, 0x07C6	; 0x8007c6 <pxCurrentTCB>
    3ff4:	90 91 c7 07 	lds	r25, 0x07C7	; 0x8007c7 <pxCurrentTCB+0x1>
    3ff8:	89 2b       	or	r24, r25
    3ffa:	69 f4       	brne	.+26     	; 0x4016 <prvAddNewTaskToReadyList+0x44>
    3ffc:	89 81       	ldd	r24, Y+1	; 0x01
    3ffe:	9a 81       	ldd	r25, Y+2	; 0x02
    4000:	90 93 c7 07 	sts	0x07C7, r25	; 0x8007c7 <pxCurrentTCB+0x1>
    4004:	80 93 c6 07 	sts	0x07C6, r24	; 0x8007c6 <pxCurrentTCB>
    4008:	80 91 15 08 	lds	r24, 0x0815	; 0x800815 <uxCurrentNumberOfTasks>
    400c:	81 30       	cpi	r24, 0x01	; 1
    400e:	c9 f4       	brne	.+50     	; 0x4042 <prvAddNewTaskToReadyList+0x70>
    4010:	0e 94 bd 24 	call	0x497a	; 0x497a <prvInitialiseTaskLists>
    4014:	16 c0       	rjmp	.+44     	; 0x4042 <prvAddNewTaskToReadyList+0x70>
    4016:	80 91 19 08 	lds	r24, 0x0819	; 0x800819 <xSchedulerRunning>
    401a:	88 23       	and	r24, r24
    401c:	91 f4       	brne	.+36     	; 0x4042 <prvAddNewTaskToReadyList+0x70>
    401e:	80 91 c6 07 	lds	r24, 0x07C6	; 0x8007c6 <pxCurrentTCB>
    4022:	90 91 c7 07 	lds	r25, 0x07C7	; 0x8007c7 <pxCurrentTCB+0x1>
    4026:	fc 01       	movw	r30, r24
    4028:	26 89       	ldd	r18, Z+22	; 0x16
    402a:	89 81       	ldd	r24, Y+1	; 0x01
    402c:	9a 81       	ldd	r25, Y+2	; 0x02
    402e:	fc 01       	movw	r30, r24
    4030:	86 89       	ldd	r24, Z+22	; 0x16
    4032:	82 17       	cp	r24, r18
    4034:	30 f0       	brcs	.+12     	; 0x4042 <prvAddNewTaskToReadyList+0x70>
    4036:	89 81       	ldd	r24, Y+1	; 0x01
    4038:	9a 81       	ldd	r25, Y+2	; 0x02
    403a:	90 93 c7 07 	sts	0x07C7, r25	; 0x8007c7 <pxCurrentTCB+0x1>
    403e:	80 93 c6 07 	sts	0x07C6, r24	; 0x8007c6 <pxCurrentTCB>
    4042:	80 91 1d 08 	lds	r24, 0x081D	; 0x80081d <uxTaskNumber>
    4046:	8f 5f       	subi	r24, 0xFF	; 255
    4048:	80 93 1d 08 	sts	0x081D, r24	; 0x80081d <uxTaskNumber>
    404c:	20 91 1d 08 	lds	r18, 0x081D	; 0x80081d <uxTaskNumber>
    4050:	89 81       	ldd	r24, Y+1	; 0x01
    4052:	9a 81       	ldd	r25, Y+2	; 0x02
    4054:	fc 01       	movw	r30, r24
    4056:	21 a3       	std	Z+33, r18	; 0x21
    4058:	89 81       	ldd	r24, Y+1	; 0x01
    405a:	9a 81       	ldd	r25, Y+2	; 0x02
    405c:	fc 01       	movw	r30, r24
    405e:	96 89       	ldd	r25, Z+22	; 0x16
    4060:	80 91 18 08 	lds	r24, 0x0818	; 0x800818 <uxTopReadyPriority>
    4064:	89 17       	cp	r24, r25
    4066:	30 f4       	brcc	.+12     	; 0x4074 <prvAddNewTaskToReadyList+0xa2>
    4068:	89 81       	ldd	r24, Y+1	; 0x01
    406a:	9a 81       	ldd	r25, Y+2	; 0x02
    406c:	fc 01       	movw	r30, r24
    406e:	86 89       	ldd	r24, Z+22	; 0x16
    4070:	80 93 18 08 	sts	0x0818, r24	; 0x800818 <uxTopReadyPriority>
    4074:	89 81       	ldd	r24, Y+1	; 0x01
    4076:	9a 81       	ldd	r25, Y+2	; 0x02
    4078:	ac 01       	movw	r20, r24
    407a:	4e 5f       	subi	r20, 0xFE	; 254
    407c:	5f 4f       	sbci	r21, 0xFF	; 255
    407e:	89 81       	ldd	r24, Y+1	; 0x01
    4080:	9a 81       	ldd	r25, Y+2	; 0x02
    4082:	fc 01       	movw	r30, r24
    4084:	86 89       	ldd	r24, Z+22	; 0x16
    4086:	28 2f       	mov	r18, r24
    4088:	30 e0       	ldi	r19, 0x00	; 0
    408a:	c9 01       	movw	r24, r18
    408c:	88 0f       	add	r24, r24
    408e:	99 1f       	adc	r25, r25
    4090:	88 0f       	add	r24, r24
    4092:	99 1f       	adc	r25, r25
    4094:	88 0f       	add	r24, r24
    4096:	99 1f       	adc	r25, r25
    4098:	82 0f       	add	r24, r18
    409a:	93 1f       	adc	r25, r19
    409c:	88 53       	subi	r24, 0x38	; 56
    409e:	98 4f       	sbci	r25, 0xF8	; 248
    40a0:	ba 01       	movw	r22, r20
    40a2:	0e 94 5a 11 	call	0x22b4	; 0x22b4 <vListInsertEnd>
    40a6:	0f 90       	pop	r0
    40a8:	0f be       	out	0x3f, r0	; 63
    40aa:	80 91 19 08 	lds	r24, 0x0819	; 0x800819 <xSchedulerRunning>
    40ae:	88 23       	and	r24, r24
    40b0:	71 f0       	breq	.+28     	; 0x40ce <prvAddNewTaskToReadyList+0xfc>
    40b2:	80 91 c6 07 	lds	r24, 0x07C6	; 0x8007c6 <pxCurrentTCB>
    40b6:	90 91 c7 07 	lds	r25, 0x07C7	; 0x8007c7 <pxCurrentTCB+0x1>
    40ba:	fc 01       	movw	r30, r24
    40bc:	26 89       	ldd	r18, Z+22	; 0x16
    40be:	89 81       	ldd	r24, Y+1	; 0x01
    40c0:	9a 81       	ldd	r25, Y+2	; 0x02
    40c2:	fc 01       	movw	r30, r24
    40c4:	86 89       	ldd	r24, Z+22	; 0x16
    40c6:	28 17       	cp	r18, r24
    40c8:	10 f4       	brcc	.+4      	; 0x40ce <prvAddNewTaskToReadyList+0xfc>
    40ca:	0e 94 56 14 	call	0x28ac	; 0x28ac <vPortYield>
    40ce:	00 00       	nop
    40d0:	0f 90       	pop	r0
    40d2:	0f 90       	pop	r0
    40d4:	df 91       	pop	r29
    40d6:	cf 91       	pop	r28
    40d8:	08 95       	ret

000040da <vTaskDelayUntil>:
    40da:	cf 93       	push	r28
    40dc:	df 93       	push	r29
    40de:	cd b7       	in	r28, 0x3d	; 61
    40e0:	de b7       	in	r29, 0x3e	; 62
    40e2:	2a 97       	sbiw	r28, 0x0a	; 10
    40e4:	0f b6       	in	r0, 0x3f	; 63
    40e6:	f8 94       	cli
    40e8:	de bf       	out	0x3e, r29	; 62
    40ea:	0f be       	out	0x3f, r0	; 63
    40ec:	cd bf       	out	0x3d, r28	; 61
    40ee:	98 87       	std	Y+8, r25	; 0x08
    40f0:	8f 83       	std	Y+7, r24	; 0x07
    40f2:	7a 87       	std	Y+10, r23	; 0x0a
    40f4:	69 87       	std	Y+9, r22	; 0x09
    40f6:	19 82       	std	Y+1, r1	; 0x01
    40f8:	0e 94 3f 21 	call	0x427e	; 0x427e <vTaskSuspendAll>
    40fc:	80 91 16 08 	lds	r24, 0x0816	; 0x800816 <xTickCount>
    4100:	90 91 17 08 	lds	r25, 0x0817	; 0x800817 <xTickCount+0x1>
    4104:	9b 83       	std	Y+3, r25	; 0x03
    4106:	8a 83       	std	Y+2, r24	; 0x02
    4108:	8f 81       	ldd	r24, Y+7	; 0x07
    410a:	98 85       	ldd	r25, Y+8	; 0x08
    410c:	fc 01       	movw	r30, r24
    410e:	20 81       	ld	r18, Z
    4110:	31 81       	ldd	r19, Z+1	; 0x01
    4112:	89 85       	ldd	r24, Y+9	; 0x09
    4114:	9a 85       	ldd	r25, Y+10	; 0x0a
    4116:	82 0f       	add	r24, r18
    4118:	93 1f       	adc	r25, r19
    411a:	9d 83       	std	Y+5, r25	; 0x05
    411c:	8c 83       	std	Y+4, r24	; 0x04
    411e:	8f 81       	ldd	r24, Y+7	; 0x07
    4120:	98 85       	ldd	r25, Y+8	; 0x08
    4122:	fc 01       	movw	r30, r24
    4124:	20 81       	ld	r18, Z
    4126:	31 81       	ldd	r19, Z+1	; 0x01
    4128:	8a 81       	ldd	r24, Y+2	; 0x02
    412a:	9b 81       	ldd	r25, Y+3	; 0x03
    412c:	82 17       	cp	r24, r18
    412e:	93 07       	cpc	r25, r19
    4130:	a0 f4       	brcc	.+40     	; 0x415a <vTaskDelayUntil+0x80>
    4132:	8f 81       	ldd	r24, Y+7	; 0x07
    4134:	98 85       	ldd	r25, Y+8	; 0x08
    4136:	fc 01       	movw	r30, r24
    4138:	20 81       	ld	r18, Z
    413a:	31 81       	ldd	r19, Z+1	; 0x01
    413c:	8c 81       	ldd	r24, Y+4	; 0x04
    413e:	9d 81       	ldd	r25, Y+5	; 0x05
    4140:	82 17       	cp	r24, r18
    4142:	93 07       	cpc	r25, r19
    4144:	e8 f4       	brcc	.+58     	; 0x4180 <vTaskDelayUntil+0xa6>
    4146:	2c 81       	ldd	r18, Y+4	; 0x04
    4148:	3d 81       	ldd	r19, Y+5	; 0x05
    414a:	8a 81       	ldd	r24, Y+2	; 0x02
    414c:	9b 81       	ldd	r25, Y+3	; 0x03
    414e:	82 17       	cp	r24, r18
    4150:	93 07       	cpc	r25, r19
    4152:	b0 f4       	brcc	.+44     	; 0x4180 <vTaskDelayUntil+0xa6>
    4154:	81 e0       	ldi	r24, 0x01	; 1
    4156:	89 83       	std	Y+1, r24	; 0x01
    4158:	13 c0       	rjmp	.+38     	; 0x4180 <vTaskDelayUntil+0xa6>
    415a:	8f 81       	ldd	r24, Y+7	; 0x07
    415c:	98 85       	ldd	r25, Y+8	; 0x08
    415e:	fc 01       	movw	r30, r24
    4160:	20 81       	ld	r18, Z
    4162:	31 81       	ldd	r19, Z+1	; 0x01
    4164:	8c 81       	ldd	r24, Y+4	; 0x04
    4166:	9d 81       	ldd	r25, Y+5	; 0x05
    4168:	82 17       	cp	r24, r18
    416a:	93 07       	cpc	r25, r19
    416c:	38 f0       	brcs	.+14     	; 0x417c <vTaskDelayUntil+0xa2>
    416e:	2c 81       	ldd	r18, Y+4	; 0x04
    4170:	3d 81       	ldd	r19, Y+5	; 0x05
    4172:	8a 81       	ldd	r24, Y+2	; 0x02
    4174:	9b 81       	ldd	r25, Y+3	; 0x03
    4176:	82 17       	cp	r24, r18
    4178:	93 07       	cpc	r25, r19
    417a:	10 f4       	brcc	.+4      	; 0x4180 <vTaskDelayUntil+0xa6>
    417c:	81 e0       	ldi	r24, 0x01	; 1
    417e:	89 83       	std	Y+1, r24	; 0x01
    4180:	8f 81       	ldd	r24, Y+7	; 0x07
    4182:	98 85       	ldd	r25, Y+8	; 0x08
    4184:	2c 81       	ldd	r18, Y+4	; 0x04
    4186:	3d 81       	ldd	r19, Y+5	; 0x05
    4188:	fc 01       	movw	r30, r24
    418a:	31 83       	std	Z+1, r19	; 0x01
    418c:	20 83       	st	Z, r18
    418e:	89 81       	ldd	r24, Y+1	; 0x01
    4190:	88 23       	and	r24, r24
    4192:	59 f0       	breq	.+22     	; 0x41aa <vTaskDelayUntil+0xd0>
    4194:	2c 81       	ldd	r18, Y+4	; 0x04
    4196:	3d 81       	ldd	r19, Y+5	; 0x05
    4198:	8a 81       	ldd	r24, Y+2	; 0x02
    419a:	9b 81       	ldd	r25, Y+3	; 0x03
    419c:	a9 01       	movw	r20, r18
    419e:	48 1b       	sub	r20, r24
    41a0:	59 0b       	sbc	r21, r25
    41a2:	ca 01       	movw	r24, r20
    41a4:	60 e0       	ldi	r22, 0x00	; 0
    41a6:	0e 94 10 27 	call	0x4e20	; 0x4e20 <prvAddCurrentTaskToDelayedList>
    41aa:	0e 94 4c 21 	call	0x4298	; 0x4298 <xTaskResumeAll>
    41ae:	8e 83       	std	Y+6, r24	; 0x06
    41b0:	8e 81       	ldd	r24, Y+6	; 0x06
    41b2:	88 23       	and	r24, r24
    41b4:	11 f4       	brne	.+4      	; 0x41ba <vTaskDelayUntil+0xe0>
    41b6:	0e 94 56 14 	call	0x28ac	; 0x28ac <vPortYield>
    41ba:	00 00       	nop
    41bc:	2a 96       	adiw	r28, 0x0a	; 10
    41be:	0f b6       	in	r0, 0x3f	; 63
    41c0:	f8 94       	cli
    41c2:	de bf       	out	0x3e, r29	; 62
    41c4:	0f be       	out	0x3f, r0	; 63
    41c6:	cd bf       	out	0x3d, r28	; 61
    41c8:	df 91       	pop	r29
    41ca:	cf 91       	pop	r28
    41cc:	08 95       	ret

000041ce <vTaskDelay>:
    41ce:	cf 93       	push	r28
    41d0:	df 93       	push	r29
    41d2:	00 d0       	rcall	.+0      	; 0x41d4 <vTaskDelay+0x6>
    41d4:	1f 92       	push	r1
    41d6:	cd b7       	in	r28, 0x3d	; 61
    41d8:	de b7       	in	r29, 0x3e	; 62
    41da:	9b 83       	std	Y+3, r25	; 0x03
    41dc:	8a 83       	std	Y+2, r24	; 0x02
    41de:	19 82       	std	Y+1, r1	; 0x01
    41e0:	8a 81       	ldd	r24, Y+2	; 0x02
    41e2:	9b 81       	ldd	r25, Y+3	; 0x03
    41e4:	89 2b       	or	r24, r25
    41e6:	51 f0       	breq	.+20     	; 0x41fc <vTaskDelay+0x2e>
    41e8:	0e 94 3f 21 	call	0x427e	; 0x427e <vTaskSuspendAll>
    41ec:	8a 81       	ldd	r24, Y+2	; 0x02
    41ee:	9b 81       	ldd	r25, Y+3	; 0x03
    41f0:	60 e0       	ldi	r22, 0x00	; 0
    41f2:	0e 94 10 27 	call	0x4e20	; 0x4e20 <prvAddCurrentTaskToDelayedList>
    41f6:	0e 94 4c 21 	call	0x4298	; 0x4298 <xTaskResumeAll>
    41fa:	89 83       	std	Y+1, r24	; 0x01
    41fc:	89 81       	ldd	r24, Y+1	; 0x01
    41fe:	88 23       	and	r24, r24
    4200:	11 f4       	brne	.+4      	; 0x4206 <vTaskDelay+0x38>
    4202:	0e 94 56 14 	call	0x28ac	; 0x28ac <vPortYield>
    4206:	00 00       	nop
    4208:	0f 90       	pop	r0
    420a:	0f 90       	pop	r0
    420c:	0f 90       	pop	r0
    420e:	df 91       	pop	r29
    4210:	cf 91       	pop	r28
    4212:	08 95       	ret

00004214 <vTaskStartScheduler>:
    4214:	ef 92       	push	r14
    4216:	ff 92       	push	r15
    4218:	0f 93       	push	r16
    421a:	cf 93       	push	r28
    421c:	df 93       	push	r29
    421e:	1f 92       	push	r1
    4220:	cd b7       	in	r28, 0x3d	; 61
    4222:	de b7       	in	r29, 0x3e	; 62
    4224:	0f 2e       	mov	r0, r31
    4226:	f0 e2       	ldi	r31, 0x20	; 32
    4228:	ef 2e       	mov	r14, r31
    422a:	f8 e0       	ldi	r31, 0x08	; 8
    422c:	ff 2e       	mov	r15, r31
    422e:	f0 2d       	mov	r31, r0
    4230:	00 e0       	ldi	r16, 0x00	; 0
    4232:	20 e0       	ldi	r18, 0x00	; 0
    4234:	30 e0       	ldi	r19, 0x00	; 0
    4236:	45 e5       	ldi	r20, 0x55	; 85
    4238:	50 e0       	ldi	r21, 0x00	; 0
    423a:	61 e7       	ldi	r22, 0x71	; 113
    423c:	71 e0       	ldi	r23, 0x01	; 1
    423e:	8b ea       	ldi	r24, 0xAB	; 171
    4240:	94 e2       	ldi	r25, 0x24	; 36
    4242:	0e 94 90 1e 	call	0x3d20	; 0x3d20 <xTaskCreate>
    4246:	89 83       	std	Y+1, r24	; 0x01
    4248:	89 81       	ldd	r24, Y+1	; 0x01
    424a:	81 30       	cpi	r24, 0x01	; 1
    424c:	81 f4       	brne	.+32     	; 0x426e <vTaskStartScheduler+0x5a>
    424e:	f8 94       	cli
    4250:	8f ef       	ldi	r24, 0xFF	; 255
    4252:	9f ef       	ldi	r25, 0xFF	; 255
    4254:	90 93 1f 08 	sts	0x081F, r25	; 0x80081f <xNextTaskUnblockTime+0x1>
    4258:	80 93 1e 08 	sts	0x081E, r24	; 0x80081e <xNextTaskUnblockTime>
    425c:	81 e0       	ldi	r24, 0x01	; 1
    425e:	80 93 19 08 	sts	0x0819, r24	; 0x800819 <xSchedulerRunning>
    4262:	10 92 17 08 	sts	0x0817, r1	; 0x800817 <xTickCount+0x1>
    4266:	10 92 16 08 	sts	0x0816, r1	; 0x800816 <xTickCount>
    426a:	0e 94 21 14 	call	0x2842	; 0x2842 <xPortStartScheduler>
    426e:	00 00       	nop
    4270:	0f 90       	pop	r0
    4272:	df 91       	pop	r29
    4274:	cf 91       	pop	r28
    4276:	0f 91       	pop	r16
    4278:	ff 90       	pop	r15
    427a:	ef 90       	pop	r14
    427c:	08 95       	ret

0000427e <vTaskSuspendAll>:
    427e:	cf 93       	push	r28
    4280:	df 93       	push	r29
    4282:	cd b7       	in	r28, 0x3d	; 61
    4284:	de b7       	in	r29, 0x3e	; 62
    4286:	80 91 22 08 	lds	r24, 0x0822	; 0x800822 <uxSchedulerSuspended>
    428a:	8f 5f       	subi	r24, 0xFF	; 255
    428c:	80 93 22 08 	sts	0x0822, r24	; 0x800822 <uxSchedulerSuspended>
    4290:	00 00       	nop
    4292:	df 91       	pop	r29
    4294:	cf 91       	pop	r28
    4296:	08 95       	ret

00004298 <xTaskResumeAll>:
    4298:	cf 93       	push	r28
    429a:	df 93       	push	r29
    429c:	00 d0       	rcall	.+0      	; 0x429e <xTaskResumeAll+0x6>
    429e:	00 d0       	rcall	.+0      	; 0x42a0 <xTaskResumeAll+0x8>
    42a0:	cd b7       	in	r28, 0x3d	; 61
    42a2:	de b7       	in	r29, 0x3e	; 62
    42a4:	1a 82       	std	Y+2, r1	; 0x02
    42a6:	19 82       	std	Y+1, r1	; 0x01
    42a8:	1b 82       	std	Y+3, r1	; 0x03
    42aa:	0f b6       	in	r0, 0x3f	; 63
    42ac:	f8 94       	cli
    42ae:	0f 92       	push	r0
    42b0:	80 91 22 08 	lds	r24, 0x0822	; 0x800822 <uxSchedulerSuspended>
    42b4:	81 50       	subi	r24, 0x01	; 1
    42b6:	80 93 22 08 	sts	0x0822, r24	; 0x800822 <uxSchedulerSuspended>
    42ba:	80 91 22 08 	lds	r24, 0x0822	; 0x800822 <uxSchedulerSuspended>
    42be:	88 23       	and	r24, r24
    42c0:	09 f0       	breq	.+2      	; 0x42c4 <xTaskResumeAll+0x2c>
    42c2:	77 c0       	rjmp	.+238    	; 0x43b2 <xTaskResumeAll+0x11a>
    42c4:	80 91 15 08 	lds	r24, 0x0815	; 0x800815 <uxCurrentNumberOfTasks>
    42c8:	88 23       	and	r24, r24
    42ca:	09 f4       	brne	.+2      	; 0x42ce <xTaskResumeAll+0x36>
    42cc:	72 c0       	rjmp	.+228    	; 0x43b2 <xTaskResumeAll+0x11a>
    42ce:	49 c0       	rjmp	.+146    	; 0x4362 <xTaskResumeAll+0xca>
    42d0:	80 91 07 08 	lds	r24, 0x0807	; 0x800807 <xPendingReadyList+0x5>
    42d4:	90 91 08 08 	lds	r25, 0x0808	; 0x800808 <xPendingReadyList+0x6>
    42d8:	fc 01       	movw	r30, r24
    42da:	86 81       	ldd	r24, Z+6	; 0x06
    42dc:	97 81       	ldd	r25, Z+7	; 0x07
    42de:	9a 83       	std	Y+2, r25	; 0x02
    42e0:	89 83       	std	Y+1, r24	; 0x01
    42e2:	89 81       	ldd	r24, Y+1	; 0x01
    42e4:	9a 81       	ldd	r25, Y+2	; 0x02
    42e6:	0c 96       	adiw	r24, 0x0c	; 12
    42e8:	0e 94 21 12 	call	0x2442	; 0x2442 <uxListRemove>
    42ec:	89 81       	ldd	r24, Y+1	; 0x01
    42ee:	9a 81       	ldd	r25, Y+2	; 0x02
    42f0:	02 96       	adiw	r24, 0x02	; 2
    42f2:	0e 94 21 12 	call	0x2442	; 0x2442 <uxListRemove>
    42f6:	89 81       	ldd	r24, Y+1	; 0x01
    42f8:	9a 81       	ldd	r25, Y+2	; 0x02
    42fa:	fc 01       	movw	r30, r24
    42fc:	96 89       	ldd	r25, Z+22	; 0x16
    42fe:	80 91 18 08 	lds	r24, 0x0818	; 0x800818 <uxTopReadyPriority>
    4302:	89 17       	cp	r24, r25
    4304:	30 f4       	brcc	.+12     	; 0x4312 <xTaskResumeAll+0x7a>
    4306:	89 81       	ldd	r24, Y+1	; 0x01
    4308:	9a 81       	ldd	r25, Y+2	; 0x02
    430a:	fc 01       	movw	r30, r24
    430c:	86 89       	ldd	r24, Z+22	; 0x16
    430e:	80 93 18 08 	sts	0x0818, r24	; 0x800818 <uxTopReadyPriority>
    4312:	89 81       	ldd	r24, Y+1	; 0x01
    4314:	9a 81       	ldd	r25, Y+2	; 0x02
    4316:	ac 01       	movw	r20, r24
    4318:	4e 5f       	subi	r20, 0xFE	; 254
    431a:	5f 4f       	sbci	r21, 0xFF	; 255
    431c:	89 81       	ldd	r24, Y+1	; 0x01
    431e:	9a 81       	ldd	r25, Y+2	; 0x02
    4320:	fc 01       	movw	r30, r24
    4322:	86 89       	ldd	r24, Z+22	; 0x16
    4324:	28 2f       	mov	r18, r24
    4326:	30 e0       	ldi	r19, 0x00	; 0
    4328:	c9 01       	movw	r24, r18
    432a:	88 0f       	add	r24, r24
    432c:	99 1f       	adc	r25, r25
    432e:	88 0f       	add	r24, r24
    4330:	99 1f       	adc	r25, r25
    4332:	88 0f       	add	r24, r24
    4334:	99 1f       	adc	r25, r25
    4336:	82 0f       	add	r24, r18
    4338:	93 1f       	adc	r25, r19
    433a:	88 53       	subi	r24, 0x38	; 56
    433c:	98 4f       	sbci	r25, 0xF8	; 248
    433e:	ba 01       	movw	r22, r20
    4340:	0e 94 5a 11 	call	0x22b4	; 0x22b4 <vListInsertEnd>
    4344:	89 81       	ldd	r24, Y+1	; 0x01
    4346:	9a 81       	ldd	r25, Y+2	; 0x02
    4348:	fc 01       	movw	r30, r24
    434a:	26 89       	ldd	r18, Z+22	; 0x16
    434c:	80 91 c6 07 	lds	r24, 0x07C6	; 0x8007c6 <pxCurrentTCB>
    4350:	90 91 c7 07 	lds	r25, 0x07C7	; 0x8007c7 <pxCurrentTCB+0x1>
    4354:	fc 01       	movw	r30, r24
    4356:	86 89       	ldd	r24, Z+22	; 0x16
    4358:	28 17       	cp	r18, r24
    435a:	18 f0       	brcs	.+6      	; 0x4362 <xTaskResumeAll+0xca>
    435c:	81 e0       	ldi	r24, 0x01	; 1
    435e:	80 93 1b 08 	sts	0x081B, r24	; 0x80081b <xYieldPending>
    4362:	80 91 02 08 	lds	r24, 0x0802	; 0x800802 <xPendingReadyList>
    4366:	88 23       	and	r24, r24
    4368:	09 f0       	breq	.+2      	; 0x436c <xTaskResumeAll+0xd4>
    436a:	b2 cf       	rjmp	.-156    	; 0x42d0 <xTaskResumeAll+0x38>
    436c:	89 81       	ldd	r24, Y+1	; 0x01
    436e:	9a 81       	ldd	r25, Y+2	; 0x02
    4370:	89 2b       	or	r24, r25
    4372:	11 f0       	breq	.+4      	; 0x4378 <xTaskResumeAll+0xe0>
    4374:	0e 94 b2 25 	call	0x4b64	; 0x4b64 <prvResetNextTaskUnblockTime>
    4378:	80 91 1a 08 	lds	r24, 0x081A	; 0x80081a <uxPendedTicks>
    437c:	8c 83       	std	Y+4, r24	; 0x04
    437e:	8c 81       	ldd	r24, Y+4	; 0x04
    4380:	88 23       	and	r24, r24
    4382:	79 f0       	breq	.+30     	; 0x43a2 <xTaskResumeAll+0x10a>
    4384:	0e 94 fa 21 	call	0x43f4	; 0x43f4 <xTaskIncrementTick>
    4388:	88 23       	and	r24, r24
    438a:	19 f0       	breq	.+6      	; 0x4392 <xTaskResumeAll+0xfa>
    438c:	81 e0       	ldi	r24, 0x01	; 1
    438e:	80 93 1b 08 	sts	0x081B, r24	; 0x80081b <xYieldPending>
    4392:	8c 81       	ldd	r24, Y+4	; 0x04
    4394:	81 50       	subi	r24, 0x01	; 1
    4396:	8c 83       	std	Y+4, r24	; 0x04
    4398:	8c 81       	ldd	r24, Y+4	; 0x04
    439a:	88 23       	and	r24, r24
    439c:	99 f7       	brne	.-26     	; 0x4384 <xTaskResumeAll+0xec>
    439e:	10 92 1a 08 	sts	0x081A, r1	; 0x80081a <uxPendedTicks>
    43a2:	80 91 1b 08 	lds	r24, 0x081B	; 0x80081b <xYieldPending>
    43a6:	88 23       	and	r24, r24
    43a8:	21 f0       	breq	.+8      	; 0x43b2 <xTaskResumeAll+0x11a>
    43aa:	81 e0       	ldi	r24, 0x01	; 1
    43ac:	8b 83       	std	Y+3, r24	; 0x03
    43ae:	0e 94 56 14 	call	0x28ac	; 0x28ac <vPortYield>
    43b2:	0f 90       	pop	r0
    43b4:	0f be       	out	0x3f, r0	; 63
    43b6:	8b 81       	ldd	r24, Y+3	; 0x03
    43b8:	0f 90       	pop	r0
    43ba:	0f 90       	pop	r0
    43bc:	0f 90       	pop	r0
    43be:	0f 90       	pop	r0
    43c0:	df 91       	pop	r29
    43c2:	cf 91       	pop	r28
    43c4:	08 95       	ret

000043c6 <xTaskGetTickCount>:
    43c6:	cf 93       	push	r28
    43c8:	df 93       	push	r29
    43ca:	00 d0       	rcall	.+0      	; 0x43cc <xTaskGetTickCount+0x6>
    43cc:	cd b7       	in	r28, 0x3d	; 61
    43ce:	de b7       	in	r29, 0x3e	; 62
    43d0:	0f b6       	in	r0, 0x3f	; 63
    43d2:	f8 94       	cli
    43d4:	0f 92       	push	r0
    43d6:	80 91 16 08 	lds	r24, 0x0816	; 0x800816 <xTickCount>
    43da:	90 91 17 08 	lds	r25, 0x0817	; 0x800817 <xTickCount+0x1>
    43de:	9a 83       	std	Y+2, r25	; 0x02
    43e0:	89 83       	std	Y+1, r24	; 0x01
    43e2:	0f 90       	pop	r0
    43e4:	0f be       	out	0x3f, r0	; 63
    43e6:	89 81       	ldd	r24, Y+1	; 0x01
    43e8:	9a 81       	ldd	r25, Y+2	; 0x02
    43ea:	0f 90       	pop	r0
    43ec:	0f 90       	pop	r0
    43ee:	df 91       	pop	r29
    43f0:	cf 91       	pop	r28
    43f2:	08 95       	ret

000043f4 <xTaskIncrementTick>:
    43f4:	cf 93       	push	r28
    43f6:	df 93       	push	r29
    43f8:	cd b7       	in	r28, 0x3d	; 61
    43fa:	de b7       	in	r29, 0x3e	; 62
    43fc:	29 97       	sbiw	r28, 0x09	; 9
    43fe:	0f b6       	in	r0, 0x3f	; 63
    4400:	f8 94       	cli
    4402:	de bf       	out	0x3e, r29	; 62
    4404:	0f be       	out	0x3f, r0	; 63
    4406:	cd bf       	out	0x3d, r28	; 61
    4408:	19 82       	std	Y+1, r1	; 0x01
    440a:	80 91 22 08 	lds	r24, 0x0822	; 0x800822 <uxSchedulerSuspended>
    440e:	88 23       	and	r24, r24
    4410:	09 f0       	breq	.+2      	; 0x4414 <xTaskIncrementTick+0x20>
    4412:	c8 c0       	rjmp	.+400    	; 0x45a4 <xTaskIncrementTick+0x1b0>
    4414:	80 91 16 08 	lds	r24, 0x0816	; 0x800816 <xTickCount>
    4418:	90 91 17 08 	lds	r25, 0x0817	; 0x800817 <xTickCount+0x1>
    441c:	01 96       	adiw	r24, 0x01	; 1
    441e:	9b 83       	std	Y+3, r25	; 0x03
    4420:	8a 83       	std	Y+2, r24	; 0x02
    4422:	8a 81       	ldd	r24, Y+2	; 0x02
    4424:	9b 81       	ldd	r25, Y+3	; 0x03
    4426:	90 93 17 08 	sts	0x0817, r25	; 0x800817 <xTickCount+0x1>
    442a:	80 93 16 08 	sts	0x0816, r24	; 0x800816 <xTickCount>
    442e:	8a 81       	ldd	r24, Y+2	; 0x02
    4430:	9b 81       	ldd	r25, Y+3	; 0x03
    4432:	89 2b       	or	r24, r25
    4434:	d9 f4       	brne	.+54     	; 0x446c <xTaskIncrementTick+0x78>
    4436:	80 91 fe 07 	lds	r24, 0x07FE	; 0x8007fe <pxDelayedTaskList>
    443a:	90 91 ff 07 	lds	r25, 0x07FF	; 0x8007ff <pxDelayedTaskList+0x1>
    443e:	9d 83       	std	Y+5, r25	; 0x05
    4440:	8c 83       	std	Y+4, r24	; 0x04
    4442:	80 91 00 08 	lds	r24, 0x0800	; 0x800800 <pxOverflowDelayedTaskList>
    4446:	90 91 01 08 	lds	r25, 0x0801	; 0x800801 <pxOverflowDelayedTaskList+0x1>
    444a:	90 93 ff 07 	sts	0x07FF, r25	; 0x8007ff <pxDelayedTaskList+0x1>
    444e:	80 93 fe 07 	sts	0x07FE, r24	; 0x8007fe <pxDelayedTaskList>
    4452:	8c 81       	ldd	r24, Y+4	; 0x04
    4454:	9d 81       	ldd	r25, Y+5	; 0x05
    4456:	90 93 01 08 	sts	0x0801, r25	; 0x800801 <pxOverflowDelayedTaskList+0x1>
    445a:	80 93 00 08 	sts	0x0800, r24	; 0x800800 <pxOverflowDelayedTaskList>
    445e:	80 91 1c 08 	lds	r24, 0x081C	; 0x80081c <xNumOfOverflows>
    4462:	8f 5f       	subi	r24, 0xFF	; 255
    4464:	80 93 1c 08 	sts	0x081C, r24	; 0x80081c <xNumOfOverflows>
    4468:	0e 94 b2 25 	call	0x4b64	; 0x4b64 <prvResetNextTaskUnblockTime>
    446c:	80 91 1e 08 	lds	r24, 0x081E	; 0x80081e <xNextTaskUnblockTime>
    4470:	90 91 1f 08 	lds	r25, 0x081F	; 0x80081f <xNextTaskUnblockTime+0x1>
    4474:	2a 81       	ldd	r18, Y+2	; 0x02
    4476:	3b 81       	ldd	r19, Y+3	; 0x03
    4478:	28 17       	cp	r18, r24
    447a:	39 07       	cpc	r19, r25
    447c:	08 f4       	brcc	.+2      	; 0x4480 <xTaskIncrementTick+0x8c>
    447e:	78 c0       	rjmp	.+240    	; 0x4570 <xTaskIncrementTick+0x17c>
    4480:	80 91 fe 07 	lds	r24, 0x07FE	; 0x8007fe <pxDelayedTaskList>
    4484:	90 91 ff 07 	lds	r25, 0x07FF	; 0x8007ff <pxDelayedTaskList+0x1>
    4488:	fc 01       	movw	r30, r24
    448a:	80 81       	ld	r24, Z
    448c:	88 23       	and	r24, r24
    448e:	39 f4       	brne	.+14     	; 0x449e <xTaskIncrementTick+0xaa>
    4490:	8f ef       	ldi	r24, 0xFF	; 255
    4492:	9f ef       	ldi	r25, 0xFF	; 255
    4494:	90 93 1f 08 	sts	0x081F, r25	; 0x80081f <xNextTaskUnblockTime+0x1>
    4498:	80 93 1e 08 	sts	0x081E, r24	; 0x80081e <xNextTaskUnblockTime>
    449c:	69 c0       	rjmp	.+210    	; 0x4570 <xTaskIncrementTick+0x17c>
    449e:	80 91 fe 07 	lds	r24, 0x07FE	; 0x8007fe <pxDelayedTaskList>
    44a2:	90 91 ff 07 	lds	r25, 0x07FF	; 0x8007ff <pxDelayedTaskList+0x1>
    44a6:	fc 01       	movw	r30, r24
    44a8:	85 81       	ldd	r24, Z+5	; 0x05
    44aa:	96 81       	ldd	r25, Z+6	; 0x06
    44ac:	fc 01       	movw	r30, r24
    44ae:	86 81       	ldd	r24, Z+6	; 0x06
    44b0:	97 81       	ldd	r25, Z+7	; 0x07
    44b2:	9f 83       	std	Y+7, r25	; 0x07
    44b4:	8e 83       	std	Y+6, r24	; 0x06
    44b6:	8e 81       	ldd	r24, Y+6	; 0x06
    44b8:	9f 81       	ldd	r25, Y+7	; 0x07
    44ba:	fc 01       	movw	r30, r24
    44bc:	82 81       	ldd	r24, Z+2	; 0x02
    44be:	93 81       	ldd	r25, Z+3	; 0x03
    44c0:	99 87       	std	Y+9, r25	; 0x09
    44c2:	88 87       	std	Y+8, r24	; 0x08
    44c4:	2a 81       	ldd	r18, Y+2	; 0x02
    44c6:	3b 81       	ldd	r19, Y+3	; 0x03
    44c8:	88 85       	ldd	r24, Y+8	; 0x08
    44ca:	99 85       	ldd	r25, Y+9	; 0x09
    44cc:	28 17       	cp	r18, r24
    44ce:	39 07       	cpc	r19, r25
    44d0:	38 f4       	brcc	.+14     	; 0x44e0 <xTaskIncrementTick+0xec>
    44d2:	88 85       	ldd	r24, Y+8	; 0x08
    44d4:	99 85       	ldd	r25, Y+9	; 0x09
    44d6:	90 93 1f 08 	sts	0x081F, r25	; 0x80081f <xNextTaskUnblockTime+0x1>
    44da:	80 93 1e 08 	sts	0x081E, r24	; 0x80081e <xNextTaskUnblockTime>
    44de:	48 c0       	rjmp	.+144    	; 0x4570 <xTaskIncrementTick+0x17c>
    44e0:	8e 81       	ldd	r24, Y+6	; 0x06
    44e2:	9f 81       	ldd	r25, Y+7	; 0x07
    44e4:	02 96       	adiw	r24, 0x02	; 2
    44e6:	0e 94 21 12 	call	0x2442	; 0x2442 <uxListRemove>
    44ea:	8e 81       	ldd	r24, Y+6	; 0x06
    44ec:	9f 81       	ldd	r25, Y+7	; 0x07
    44ee:	fc 01       	movw	r30, r24
    44f0:	84 89       	ldd	r24, Z+20	; 0x14
    44f2:	95 89       	ldd	r25, Z+21	; 0x15
    44f4:	89 2b       	or	r24, r25
    44f6:	29 f0       	breq	.+10     	; 0x4502 <xTaskIncrementTick+0x10e>
    44f8:	8e 81       	ldd	r24, Y+6	; 0x06
    44fa:	9f 81       	ldd	r25, Y+7	; 0x07
    44fc:	0c 96       	adiw	r24, 0x0c	; 12
    44fe:	0e 94 21 12 	call	0x2442	; 0x2442 <uxListRemove>
    4502:	8e 81       	ldd	r24, Y+6	; 0x06
    4504:	9f 81       	ldd	r25, Y+7	; 0x07
    4506:	fc 01       	movw	r30, r24
    4508:	96 89       	ldd	r25, Z+22	; 0x16
    450a:	80 91 18 08 	lds	r24, 0x0818	; 0x800818 <uxTopReadyPriority>
    450e:	89 17       	cp	r24, r25
    4510:	30 f4       	brcc	.+12     	; 0x451e <xTaskIncrementTick+0x12a>
    4512:	8e 81       	ldd	r24, Y+6	; 0x06
    4514:	9f 81       	ldd	r25, Y+7	; 0x07
    4516:	fc 01       	movw	r30, r24
    4518:	86 89       	ldd	r24, Z+22	; 0x16
    451a:	80 93 18 08 	sts	0x0818, r24	; 0x800818 <uxTopReadyPriority>
    451e:	8e 81       	ldd	r24, Y+6	; 0x06
    4520:	9f 81       	ldd	r25, Y+7	; 0x07
    4522:	ac 01       	movw	r20, r24
    4524:	4e 5f       	subi	r20, 0xFE	; 254
    4526:	5f 4f       	sbci	r21, 0xFF	; 255
    4528:	8e 81       	ldd	r24, Y+6	; 0x06
    452a:	9f 81       	ldd	r25, Y+7	; 0x07
    452c:	fc 01       	movw	r30, r24
    452e:	86 89       	ldd	r24, Z+22	; 0x16
    4530:	28 2f       	mov	r18, r24
    4532:	30 e0       	ldi	r19, 0x00	; 0
    4534:	c9 01       	movw	r24, r18
    4536:	88 0f       	add	r24, r24
    4538:	99 1f       	adc	r25, r25
    453a:	88 0f       	add	r24, r24
    453c:	99 1f       	adc	r25, r25
    453e:	88 0f       	add	r24, r24
    4540:	99 1f       	adc	r25, r25
    4542:	82 0f       	add	r24, r18
    4544:	93 1f       	adc	r25, r19
    4546:	88 53       	subi	r24, 0x38	; 56
    4548:	98 4f       	sbci	r25, 0xF8	; 248
    454a:	ba 01       	movw	r22, r20
    454c:	0e 94 5a 11 	call	0x22b4	; 0x22b4 <vListInsertEnd>
    4550:	8e 81       	ldd	r24, Y+6	; 0x06
    4552:	9f 81       	ldd	r25, Y+7	; 0x07
    4554:	fc 01       	movw	r30, r24
    4556:	26 89       	ldd	r18, Z+22	; 0x16
    4558:	80 91 c6 07 	lds	r24, 0x07C6	; 0x8007c6 <pxCurrentTCB>
    455c:	90 91 c7 07 	lds	r25, 0x07C7	; 0x8007c7 <pxCurrentTCB+0x1>
    4560:	fc 01       	movw	r30, r24
    4562:	86 89       	ldd	r24, Z+22	; 0x16
    4564:	28 17       	cp	r18, r24
    4566:	08 f4       	brcc	.+2      	; 0x456a <xTaskIncrementTick+0x176>
    4568:	8b cf       	rjmp	.-234    	; 0x4480 <xTaskIncrementTick+0x8c>
    456a:	81 e0       	ldi	r24, 0x01	; 1
    456c:	89 83       	std	Y+1, r24	; 0x01
    456e:	88 cf       	rjmp	.-240    	; 0x4480 <xTaskIncrementTick+0x8c>
    4570:	80 91 c6 07 	lds	r24, 0x07C6	; 0x8007c6 <pxCurrentTCB>
    4574:	90 91 c7 07 	lds	r25, 0x07C7	; 0x8007c7 <pxCurrentTCB+0x1>
    4578:	fc 01       	movw	r30, r24
    457a:	86 89       	ldd	r24, Z+22	; 0x16
    457c:	28 2f       	mov	r18, r24
    457e:	30 e0       	ldi	r19, 0x00	; 0
    4580:	c9 01       	movw	r24, r18
    4582:	88 0f       	add	r24, r24
    4584:	99 1f       	adc	r25, r25
    4586:	88 0f       	add	r24, r24
    4588:	99 1f       	adc	r25, r25
    458a:	88 0f       	add	r24, r24
    458c:	99 1f       	adc	r25, r25
    458e:	82 0f       	add	r24, r18
    4590:	93 1f       	adc	r25, r19
    4592:	88 53       	subi	r24, 0x38	; 56
    4594:	98 4f       	sbci	r25, 0xF8	; 248
    4596:	fc 01       	movw	r30, r24
    4598:	80 81       	ld	r24, Z
    459a:	82 30       	cpi	r24, 0x02	; 2
    459c:	40 f0       	brcs	.+16     	; 0x45ae <xTaskIncrementTick+0x1ba>
    459e:	81 e0       	ldi	r24, 0x01	; 1
    45a0:	89 83       	std	Y+1, r24	; 0x01
    45a2:	05 c0       	rjmp	.+10     	; 0x45ae <xTaskIncrementTick+0x1ba>
    45a4:	80 91 1a 08 	lds	r24, 0x081A	; 0x80081a <uxPendedTicks>
    45a8:	8f 5f       	subi	r24, 0xFF	; 255
    45aa:	80 93 1a 08 	sts	0x081A, r24	; 0x80081a <uxPendedTicks>
    45ae:	80 91 1b 08 	lds	r24, 0x081B	; 0x80081b <xYieldPending>
    45b2:	88 23       	and	r24, r24
    45b4:	11 f0       	breq	.+4      	; 0x45ba <xTaskIncrementTick+0x1c6>
    45b6:	81 e0       	ldi	r24, 0x01	; 1
    45b8:	89 83       	std	Y+1, r24	; 0x01
    45ba:	89 81       	ldd	r24, Y+1	; 0x01
    45bc:	29 96       	adiw	r28, 0x09	; 9
    45be:	0f b6       	in	r0, 0x3f	; 63
    45c0:	f8 94       	cli
    45c2:	de bf       	out	0x3e, r29	; 62
    45c4:	0f be       	out	0x3f, r0	; 63
    45c6:	cd bf       	out	0x3d, r28	; 61
    45c8:	df 91       	pop	r29
    45ca:	cf 91       	pop	r28
    45cc:	08 95       	ret

000045ce <vTaskSwitchContext>:
    45ce:	cf 93       	push	r28
    45d0:	df 93       	push	r29
    45d2:	00 d0       	rcall	.+0      	; 0x45d4 <vTaskSwitchContext+0x6>
    45d4:	1f 92       	push	r1
    45d6:	cd b7       	in	r28, 0x3d	; 61
    45d8:	de b7       	in	r29, 0x3e	; 62
    45da:	80 91 22 08 	lds	r24, 0x0822	; 0x800822 <uxSchedulerSuspended>
    45de:	88 23       	and	r24, r24
    45e0:	21 f0       	breq	.+8      	; 0x45ea <vTaskSwitchContext+0x1c>
    45e2:	81 e0       	ldi	r24, 0x01	; 1
    45e4:	80 93 1b 08 	sts	0x081B, r24	; 0x80081b <xYieldPending>
    45e8:	90 c0       	rjmp	.+288    	; 0x470a <vTaskSwitchContext+0x13c>
    45ea:	10 92 1b 08 	sts	0x081B, r1	; 0x80081b <xYieldPending>
    45ee:	80 91 c6 07 	lds	r24, 0x07C6	; 0x8007c6 <pxCurrentTCB>
    45f2:	90 91 c7 07 	lds	r25, 0x07C7	; 0x8007c7 <pxCurrentTCB+0x1>
    45f6:	fc 01       	movw	r30, r24
    45f8:	85 a1       	ldd	r24, Z+37	; 0x25
    45fa:	96 a1       	ldd	r25, Z+38	; 0x26
    45fc:	0e 94 5a 10 	call	0x20b4	; 0x20b4 <switch_out>
    4600:	80 91 c6 07 	lds	r24, 0x07C6	; 0x8007c6 <pxCurrentTCB>
    4604:	90 91 c7 07 	lds	r25, 0x07C7	; 0x8007c7 <pxCurrentTCB+0x1>
    4608:	fc 01       	movw	r30, r24
    460a:	20 81       	ld	r18, Z
    460c:	31 81       	ldd	r19, Z+1	; 0x01
    460e:	80 91 c6 07 	lds	r24, 0x07C6	; 0x8007c6 <pxCurrentTCB>
    4612:	90 91 c7 07 	lds	r25, 0x07C7	; 0x8007c7 <pxCurrentTCB+0x1>
    4616:	fc 01       	movw	r30, r24
    4618:	87 89       	ldd	r24, Z+23	; 0x17
    461a:	90 8d       	ldd	r25, Z+24	; 0x18
    461c:	82 17       	cp	r24, r18
    461e:	93 07       	cpc	r25, r19
    4620:	70 f0       	brcs	.+28     	; 0x463e <vTaskSwitchContext+0x70>
    4622:	80 91 c6 07 	lds	r24, 0x07C6	; 0x8007c6 <pxCurrentTCB>
    4626:	90 91 c7 07 	lds	r25, 0x07C7	; 0x8007c7 <pxCurrentTCB+0x1>
    462a:	9c 01       	movw	r18, r24
    462c:	27 5e       	subi	r18, 0xE7	; 231
    462e:	3f 4f       	sbci	r19, 0xFF	; 255
    4630:	80 91 c6 07 	lds	r24, 0x07C6	; 0x8007c6 <pxCurrentTCB>
    4634:	90 91 c7 07 	lds	r25, 0x07C7	; 0x8007c7 <pxCurrentTCB+0x1>
    4638:	b9 01       	movw	r22, r18
    463a:	0e 94 bb 09 	call	0x1376	; 0x1376 <vApplicationStackOverflowHook>
    463e:	80 91 18 08 	lds	r24, 0x0818	; 0x800818 <uxTopReadyPriority>
    4642:	89 83       	std	Y+1, r24	; 0x01
    4644:	03 c0       	rjmp	.+6      	; 0x464c <vTaskSwitchContext+0x7e>
    4646:	89 81       	ldd	r24, Y+1	; 0x01
    4648:	81 50       	subi	r24, 0x01	; 1
    464a:	89 83       	std	Y+1, r24	; 0x01
    464c:	89 81       	ldd	r24, Y+1	; 0x01
    464e:	28 2f       	mov	r18, r24
    4650:	30 e0       	ldi	r19, 0x00	; 0
    4652:	c9 01       	movw	r24, r18
    4654:	88 0f       	add	r24, r24
    4656:	99 1f       	adc	r25, r25
    4658:	88 0f       	add	r24, r24
    465a:	99 1f       	adc	r25, r25
    465c:	88 0f       	add	r24, r24
    465e:	99 1f       	adc	r25, r25
    4660:	82 0f       	add	r24, r18
    4662:	93 1f       	adc	r25, r19
    4664:	88 53       	subi	r24, 0x38	; 56
    4666:	98 4f       	sbci	r25, 0xF8	; 248
    4668:	fc 01       	movw	r30, r24
    466a:	80 81       	ld	r24, Z
    466c:	88 23       	and	r24, r24
    466e:	59 f3       	breq	.-42     	; 0x4646 <vTaskSwitchContext+0x78>
    4670:	89 81       	ldd	r24, Y+1	; 0x01
    4672:	28 2f       	mov	r18, r24
    4674:	30 e0       	ldi	r19, 0x00	; 0
    4676:	c9 01       	movw	r24, r18
    4678:	88 0f       	add	r24, r24
    467a:	99 1f       	adc	r25, r25
    467c:	88 0f       	add	r24, r24
    467e:	99 1f       	adc	r25, r25
    4680:	88 0f       	add	r24, r24
    4682:	99 1f       	adc	r25, r25
    4684:	82 0f       	add	r24, r18
    4686:	93 1f       	adc	r25, r19
    4688:	88 53       	subi	r24, 0x38	; 56
    468a:	98 4f       	sbci	r25, 0xF8	; 248
    468c:	9b 83       	std	Y+3, r25	; 0x03
    468e:	8a 83       	std	Y+2, r24	; 0x02
    4690:	8a 81       	ldd	r24, Y+2	; 0x02
    4692:	9b 81       	ldd	r25, Y+3	; 0x03
    4694:	fc 01       	movw	r30, r24
    4696:	81 81       	ldd	r24, Z+1	; 0x01
    4698:	92 81       	ldd	r25, Z+2	; 0x02
    469a:	fc 01       	movw	r30, r24
    469c:	22 81       	ldd	r18, Z+2	; 0x02
    469e:	33 81       	ldd	r19, Z+3	; 0x03
    46a0:	8a 81       	ldd	r24, Y+2	; 0x02
    46a2:	9b 81       	ldd	r25, Y+3	; 0x03
    46a4:	fc 01       	movw	r30, r24
    46a6:	32 83       	std	Z+2, r19	; 0x02
    46a8:	21 83       	std	Z+1, r18	; 0x01
    46aa:	8a 81       	ldd	r24, Y+2	; 0x02
    46ac:	9b 81       	ldd	r25, Y+3	; 0x03
    46ae:	fc 01       	movw	r30, r24
    46b0:	21 81       	ldd	r18, Z+1	; 0x01
    46b2:	32 81       	ldd	r19, Z+2	; 0x02
    46b4:	8a 81       	ldd	r24, Y+2	; 0x02
    46b6:	9b 81       	ldd	r25, Y+3	; 0x03
    46b8:	03 96       	adiw	r24, 0x03	; 3
    46ba:	28 17       	cp	r18, r24
    46bc:	39 07       	cpc	r19, r25
    46be:	69 f4       	brne	.+26     	; 0x46da <vTaskSwitchContext+0x10c>
    46c0:	8a 81       	ldd	r24, Y+2	; 0x02
    46c2:	9b 81       	ldd	r25, Y+3	; 0x03
    46c4:	fc 01       	movw	r30, r24
    46c6:	81 81       	ldd	r24, Z+1	; 0x01
    46c8:	92 81       	ldd	r25, Z+2	; 0x02
    46ca:	fc 01       	movw	r30, r24
    46cc:	22 81       	ldd	r18, Z+2	; 0x02
    46ce:	33 81       	ldd	r19, Z+3	; 0x03
    46d0:	8a 81       	ldd	r24, Y+2	; 0x02
    46d2:	9b 81       	ldd	r25, Y+3	; 0x03
    46d4:	fc 01       	movw	r30, r24
    46d6:	32 83       	std	Z+2, r19	; 0x02
    46d8:	21 83       	std	Z+1, r18	; 0x01
    46da:	8a 81       	ldd	r24, Y+2	; 0x02
    46dc:	9b 81       	ldd	r25, Y+3	; 0x03
    46de:	fc 01       	movw	r30, r24
    46e0:	81 81       	ldd	r24, Z+1	; 0x01
    46e2:	92 81       	ldd	r25, Z+2	; 0x02
    46e4:	fc 01       	movw	r30, r24
    46e6:	86 81       	ldd	r24, Z+6	; 0x06
    46e8:	97 81       	ldd	r25, Z+7	; 0x07
    46ea:	90 93 c7 07 	sts	0x07C7, r25	; 0x8007c7 <pxCurrentTCB+0x1>
    46ee:	80 93 c6 07 	sts	0x07C6, r24	; 0x8007c6 <pxCurrentTCB>
    46f2:	89 81       	ldd	r24, Y+1	; 0x01
    46f4:	80 93 18 08 	sts	0x0818, r24	; 0x800818 <uxTopReadyPriority>
    46f8:	80 91 c6 07 	lds	r24, 0x07C6	; 0x8007c6 <pxCurrentTCB>
    46fc:	90 91 c7 07 	lds	r25, 0x07C7	; 0x8007c7 <pxCurrentTCB+0x1>
    4700:	fc 01       	movw	r30, r24
    4702:	85 a1       	ldd	r24, Z+37	; 0x25
    4704:	96 a1       	ldd	r25, Z+38	; 0x26
    4706:	0e 94 35 10 	call	0x206a	; 0x206a <switch_in>
    470a:	00 00       	nop
    470c:	0f 90       	pop	r0
    470e:	0f 90       	pop	r0
    4710:	0f 90       	pop	r0
    4712:	df 91       	pop	r29
    4714:	cf 91       	pop	r28
    4716:	08 95       	ret

00004718 <vTaskPlaceOnEventList>:
    4718:	cf 93       	push	r28
    471a:	df 93       	push	r29
    471c:	00 d0       	rcall	.+0      	; 0x471e <vTaskPlaceOnEventList+0x6>
    471e:	00 d0       	rcall	.+0      	; 0x4720 <vTaskPlaceOnEventList+0x8>
    4720:	cd b7       	in	r28, 0x3d	; 61
    4722:	de b7       	in	r29, 0x3e	; 62
    4724:	9a 83       	std	Y+2, r25	; 0x02
    4726:	89 83       	std	Y+1, r24	; 0x01
    4728:	7c 83       	std	Y+4, r23	; 0x04
    472a:	6b 83       	std	Y+3, r22	; 0x03
    472c:	80 91 c6 07 	lds	r24, 0x07C6	; 0x8007c6 <pxCurrentTCB>
    4730:	90 91 c7 07 	lds	r25, 0x07C7	; 0x8007c7 <pxCurrentTCB+0x1>
    4734:	9c 01       	movw	r18, r24
    4736:	24 5f       	subi	r18, 0xF4	; 244
    4738:	3f 4f       	sbci	r19, 0xFF	; 255
    473a:	89 81       	ldd	r24, Y+1	; 0x01
    473c:	9a 81       	ldd	r25, Y+2	; 0x02
    473e:	b9 01       	movw	r22, r18
    4740:	0e 94 a9 11 	call	0x2352	; 0x2352 <vListInsert>
    4744:	8b 81       	ldd	r24, Y+3	; 0x03
    4746:	9c 81       	ldd	r25, Y+4	; 0x04
    4748:	61 e0       	ldi	r22, 0x01	; 1
    474a:	0e 94 10 27 	call	0x4e20	; 0x4e20 <prvAddCurrentTaskToDelayedList>
    474e:	00 00       	nop
    4750:	0f 90       	pop	r0
    4752:	0f 90       	pop	r0
    4754:	0f 90       	pop	r0
    4756:	0f 90       	pop	r0
    4758:	df 91       	pop	r29
    475a:	cf 91       	pop	r28
    475c:	08 95       	ret

0000475e <xTaskRemoveFromEventList>:
    475e:	cf 93       	push	r28
    4760:	df 93       	push	r29
    4762:	00 d0       	rcall	.+0      	; 0x4764 <xTaskRemoveFromEventList+0x6>
    4764:	00 d0       	rcall	.+0      	; 0x4766 <xTaskRemoveFromEventList+0x8>
    4766:	1f 92       	push	r1
    4768:	cd b7       	in	r28, 0x3d	; 61
    476a:	de b7       	in	r29, 0x3e	; 62
    476c:	9d 83       	std	Y+5, r25	; 0x05
    476e:	8c 83       	std	Y+4, r24	; 0x04
    4770:	8c 81       	ldd	r24, Y+4	; 0x04
    4772:	9d 81       	ldd	r25, Y+5	; 0x05
    4774:	fc 01       	movw	r30, r24
    4776:	85 81       	ldd	r24, Z+5	; 0x05
    4778:	96 81       	ldd	r25, Z+6	; 0x06
    477a:	fc 01       	movw	r30, r24
    477c:	86 81       	ldd	r24, Z+6	; 0x06
    477e:	97 81       	ldd	r25, Z+7	; 0x07
    4780:	9b 83       	std	Y+3, r25	; 0x03
    4782:	8a 83       	std	Y+2, r24	; 0x02
    4784:	8a 81       	ldd	r24, Y+2	; 0x02
    4786:	9b 81       	ldd	r25, Y+3	; 0x03
    4788:	0c 96       	adiw	r24, 0x0c	; 12
    478a:	0e 94 21 12 	call	0x2442	; 0x2442 <uxListRemove>
    478e:	80 91 22 08 	lds	r24, 0x0822	; 0x800822 <uxSchedulerSuspended>
    4792:	88 23       	and	r24, r24
    4794:	69 f5       	brne	.+90     	; 0x47f0 <xTaskRemoveFromEventList+0x92>
    4796:	8a 81       	ldd	r24, Y+2	; 0x02
    4798:	9b 81       	ldd	r25, Y+3	; 0x03
    479a:	02 96       	adiw	r24, 0x02	; 2
    479c:	0e 94 21 12 	call	0x2442	; 0x2442 <uxListRemove>
    47a0:	8a 81       	ldd	r24, Y+2	; 0x02
    47a2:	9b 81       	ldd	r25, Y+3	; 0x03
    47a4:	fc 01       	movw	r30, r24
    47a6:	96 89       	ldd	r25, Z+22	; 0x16
    47a8:	80 91 18 08 	lds	r24, 0x0818	; 0x800818 <uxTopReadyPriority>
    47ac:	89 17       	cp	r24, r25
    47ae:	30 f4       	brcc	.+12     	; 0x47bc <xTaskRemoveFromEventList+0x5e>
    47b0:	8a 81       	ldd	r24, Y+2	; 0x02
    47b2:	9b 81       	ldd	r25, Y+3	; 0x03
    47b4:	fc 01       	movw	r30, r24
    47b6:	86 89       	ldd	r24, Z+22	; 0x16
    47b8:	80 93 18 08 	sts	0x0818, r24	; 0x800818 <uxTopReadyPriority>
    47bc:	8a 81       	ldd	r24, Y+2	; 0x02
    47be:	9b 81       	ldd	r25, Y+3	; 0x03
    47c0:	ac 01       	movw	r20, r24
    47c2:	4e 5f       	subi	r20, 0xFE	; 254
    47c4:	5f 4f       	sbci	r21, 0xFF	; 255
    47c6:	8a 81       	ldd	r24, Y+2	; 0x02
    47c8:	9b 81       	ldd	r25, Y+3	; 0x03
    47ca:	fc 01       	movw	r30, r24
    47cc:	86 89       	ldd	r24, Z+22	; 0x16
    47ce:	28 2f       	mov	r18, r24
    47d0:	30 e0       	ldi	r19, 0x00	; 0
    47d2:	c9 01       	movw	r24, r18
    47d4:	88 0f       	add	r24, r24
    47d6:	99 1f       	adc	r25, r25
    47d8:	88 0f       	add	r24, r24
    47da:	99 1f       	adc	r25, r25
    47dc:	88 0f       	add	r24, r24
    47de:	99 1f       	adc	r25, r25
    47e0:	82 0f       	add	r24, r18
    47e2:	93 1f       	adc	r25, r19
    47e4:	88 53       	subi	r24, 0x38	; 56
    47e6:	98 4f       	sbci	r25, 0xF8	; 248
    47e8:	ba 01       	movw	r22, r20
    47ea:	0e 94 5a 11 	call	0x22b4	; 0x22b4 <vListInsertEnd>
    47ee:	08 c0       	rjmp	.+16     	; 0x4800 <xTaskRemoveFromEventList+0xa2>
    47f0:	8a 81       	ldd	r24, Y+2	; 0x02
    47f2:	9b 81       	ldd	r25, Y+3	; 0x03
    47f4:	0c 96       	adiw	r24, 0x0c	; 12
    47f6:	bc 01       	movw	r22, r24
    47f8:	82 e0       	ldi	r24, 0x02	; 2
    47fa:	98 e0       	ldi	r25, 0x08	; 8
    47fc:	0e 94 5a 11 	call	0x22b4	; 0x22b4 <vListInsertEnd>
    4800:	8a 81       	ldd	r24, Y+2	; 0x02
    4802:	9b 81       	ldd	r25, Y+3	; 0x03
    4804:	fc 01       	movw	r30, r24
    4806:	26 89       	ldd	r18, Z+22	; 0x16
    4808:	80 91 c6 07 	lds	r24, 0x07C6	; 0x8007c6 <pxCurrentTCB>
    480c:	90 91 c7 07 	lds	r25, 0x07C7	; 0x8007c7 <pxCurrentTCB+0x1>
    4810:	fc 01       	movw	r30, r24
    4812:	86 89       	ldd	r24, Z+22	; 0x16
    4814:	82 17       	cp	r24, r18
    4816:	30 f4       	brcc	.+12     	; 0x4824 <xTaskRemoveFromEventList+0xc6>
    4818:	81 e0       	ldi	r24, 0x01	; 1
    481a:	89 83       	std	Y+1, r24	; 0x01
    481c:	81 e0       	ldi	r24, 0x01	; 1
    481e:	80 93 1b 08 	sts	0x081B, r24	; 0x80081b <xYieldPending>
    4822:	01 c0       	rjmp	.+2      	; 0x4826 <xTaskRemoveFromEventList+0xc8>
    4824:	19 82       	std	Y+1, r1	; 0x01
    4826:	89 81       	ldd	r24, Y+1	; 0x01
    4828:	0f 90       	pop	r0
    482a:	0f 90       	pop	r0
    482c:	0f 90       	pop	r0
    482e:	0f 90       	pop	r0
    4830:	0f 90       	pop	r0
    4832:	df 91       	pop	r29
    4834:	cf 91       	pop	r28
    4836:	08 95       	ret

00004838 <vTaskSetTimeOutState>:
    4838:	cf 93       	push	r28
    483a:	df 93       	push	r29
    483c:	00 d0       	rcall	.+0      	; 0x483e <vTaskSetTimeOutState+0x6>
    483e:	cd b7       	in	r28, 0x3d	; 61
    4840:	de b7       	in	r29, 0x3e	; 62
    4842:	9a 83       	std	Y+2, r25	; 0x02
    4844:	89 83       	std	Y+1, r24	; 0x01
    4846:	20 91 1c 08 	lds	r18, 0x081C	; 0x80081c <xNumOfOverflows>
    484a:	89 81       	ldd	r24, Y+1	; 0x01
    484c:	9a 81       	ldd	r25, Y+2	; 0x02
    484e:	fc 01       	movw	r30, r24
    4850:	20 83       	st	Z, r18
    4852:	20 91 16 08 	lds	r18, 0x0816	; 0x800816 <xTickCount>
    4856:	30 91 17 08 	lds	r19, 0x0817	; 0x800817 <xTickCount+0x1>
    485a:	89 81       	ldd	r24, Y+1	; 0x01
    485c:	9a 81       	ldd	r25, Y+2	; 0x02
    485e:	fc 01       	movw	r30, r24
    4860:	32 83       	std	Z+2, r19	; 0x02
    4862:	21 83       	std	Z+1, r18	; 0x01
    4864:	00 00       	nop
    4866:	0f 90       	pop	r0
    4868:	0f 90       	pop	r0
    486a:	df 91       	pop	r29
    486c:	cf 91       	pop	r28
    486e:	08 95       	ret

00004870 <xTaskCheckForTimeOut>:
    4870:	cf 93       	push	r28
    4872:	df 93       	push	r29
    4874:	cd b7       	in	r28, 0x3d	; 61
    4876:	de b7       	in	r29, 0x3e	; 62
    4878:	27 97       	sbiw	r28, 0x07	; 7
    487a:	0f b6       	in	r0, 0x3f	; 63
    487c:	f8 94       	cli
    487e:	de bf       	out	0x3e, r29	; 62
    4880:	0f be       	out	0x3f, r0	; 63
    4882:	cd bf       	out	0x3d, r28	; 61
    4884:	9d 83       	std	Y+5, r25	; 0x05
    4886:	8c 83       	std	Y+4, r24	; 0x04
    4888:	7f 83       	std	Y+7, r23	; 0x07
    488a:	6e 83       	std	Y+6, r22	; 0x06
    488c:	0f b6       	in	r0, 0x3f	; 63
    488e:	f8 94       	cli
    4890:	0f 92       	push	r0
    4892:	80 91 16 08 	lds	r24, 0x0816	; 0x800816 <xTickCount>
    4896:	90 91 17 08 	lds	r25, 0x0817	; 0x800817 <xTickCount+0x1>
    489a:	9b 83       	std	Y+3, r25	; 0x03
    489c:	8a 83       	std	Y+2, r24	; 0x02
    489e:	8c 81       	ldd	r24, Y+4	; 0x04
    48a0:	9d 81       	ldd	r25, Y+5	; 0x05
    48a2:	fc 01       	movw	r30, r24
    48a4:	90 81       	ld	r25, Z
    48a6:	80 91 1c 08 	lds	r24, 0x081C	; 0x80081c <xNumOfOverflows>
    48aa:	98 17       	cp	r25, r24
    48ac:	69 f0       	breq	.+26     	; 0x48c8 <xTaskCheckForTimeOut+0x58>
    48ae:	8c 81       	ldd	r24, Y+4	; 0x04
    48b0:	9d 81       	ldd	r25, Y+5	; 0x05
    48b2:	fc 01       	movw	r30, r24
    48b4:	21 81       	ldd	r18, Z+1	; 0x01
    48b6:	32 81       	ldd	r19, Z+2	; 0x02
    48b8:	8a 81       	ldd	r24, Y+2	; 0x02
    48ba:	9b 81       	ldd	r25, Y+3	; 0x03
    48bc:	82 17       	cp	r24, r18
    48be:	93 07       	cpc	r25, r19
    48c0:	18 f0       	brcs	.+6      	; 0x48c8 <xTaskCheckForTimeOut+0x58>
    48c2:	81 e0       	ldi	r24, 0x01	; 1
    48c4:	89 83       	std	Y+1, r24	; 0x01
    48c6:	30 c0       	rjmp	.+96     	; 0x4928 <xTaskCheckForTimeOut+0xb8>
    48c8:	8c 81       	ldd	r24, Y+4	; 0x04
    48ca:	9d 81       	ldd	r25, Y+5	; 0x05
    48cc:	fc 01       	movw	r30, r24
    48ce:	81 81       	ldd	r24, Z+1	; 0x01
    48d0:	92 81       	ldd	r25, Z+2	; 0x02
    48d2:	2a 81       	ldd	r18, Y+2	; 0x02
    48d4:	3b 81       	ldd	r19, Y+3	; 0x03
    48d6:	28 1b       	sub	r18, r24
    48d8:	39 0b       	sbc	r19, r25
    48da:	8e 81       	ldd	r24, Y+6	; 0x06
    48dc:	9f 81       	ldd	r25, Y+7	; 0x07
    48de:	fc 01       	movw	r30, r24
    48e0:	80 81       	ld	r24, Z
    48e2:	91 81       	ldd	r25, Z+1	; 0x01
    48e4:	28 17       	cp	r18, r24
    48e6:	39 07       	cpc	r19, r25
    48e8:	e8 f4       	brcc	.+58     	; 0x4924 <xTaskCheckForTimeOut+0xb4>
    48ea:	8e 81       	ldd	r24, Y+6	; 0x06
    48ec:	9f 81       	ldd	r25, Y+7	; 0x07
    48ee:	fc 01       	movw	r30, r24
    48f0:	20 81       	ld	r18, Z
    48f2:	31 81       	ldd	r19, Z+1	; 0x01
    48f4:	8c 81       	ldd	r24, Y+4	; 0x04
    48f6:	9d 81       	ldd	r25, Y+5	; 0x05
    48f8:	fc 01       	movw	r30, r24
    48fa:	41 81       	ldd	r20, Z+1	; 0x01
    48fc:	52 81       	ldd	r21, Z+2	; 0x02
    48fe:	8a 81       	ldd	r24, Y+2	; 0x02
    4900:	9b 81       	ldd	r25, Y+3	; 0x03
    4902:	ba 01       	movw	r22, r20
    4904:	68 1b       	sub	r22, r24
    4906:	79 0b       	sbc	r23, r25
    4908:	cb 01       	movw	r24, r22
    490a:	28 0f       	add	r18, r24
    490c:	39 1f       	adc	r19, r25
    490e:	8e 81       	ldd	r24, Y+6	; 0x06
    4910:	9f 81       	ldd	r25, Y+7	; 0x07
    4912:	fc 01       	movw	r30, r24
    4914:	31 83       	std	Z+1, r19	; 0x01
    4916:	20 83       	st	Z, r18
    4918:	8c 81       	ldd	r24, Y+4	; 0x04
    491a:	9d 81       	ldd	r25, Y+5	; 0x05
    491c:	0e 94 1c 24 	call	0x4838	; 0x4838 <vTaskSetTimeOutState>
    4920:	19 82       	std	Y+1, r1	; 0x01
    4922:	02 c0       	rjmp	.+4      	; 0x4928 <xTaskCheckForTimeOut+0xb8>
    4924:	81 e0       	ldi	r24, 0x01	; 1
    4926:	89 83       	std	Y+1, r24	; 0x01
    4928:	0f 90       	pop	r0
    492a:	0f be       	out	0x3f, r0	; 63
    492c:	89 81       	ldd	r24, Y+1	; 0x01
    492e:	27 96       	adiw	r28, 0x07	; 7
    4930:	0f b6       	in	r0, 0x3f	; 63
    4932:	f8 94       	cli
    4934:	de bf       	out	0x3e, r29	; 62
    4936:	0f be       	out	0x3f, r0	; 63
    4938:	cd bf       	out	0x3d, r28	; 61
    493a:	df 91       	pop	r29
    493c:	cf 91       	pop	r28
    493e:	08 95       	ret

00004940 <vTaskMissedYield>:
    4940:	cf 93       	push	r28
    4942:	df 93       	push	r29
    4944:	cd b7       	in	r28, 0x3d	; 61
    4946:	de b7       	in	r29, 0x3e	; 62
    4948:	81 e0       	ldi	r24, 0x01	; 1
    494a:	80 93 1b 08 	sts	0x081B, r24	; 0x80081b <xYieldPending>
    494e:	00 00       	nop
    4950:	df 91       	pop	r29
    4952:	cf 91       	pop	r28
    4954:	08 95       	ret

00004956 <prvIdleTask>:
    4956:	cf 93       	push	r28
    4958:	df 93       	push	r29
    495a:	00 d0       	rcall	.+0      	; 0x495c <prvIdleTask+0x6>
    495c:	cd b7       	in	r28, 0x3d	; 61
    495e:	de b7       	in	r29, 0x3e	; 62
    4960:	9a 83       	std	Y+2, r25	; 0x02
    4962:	89 83       	std	Y+1, r24	; 0x01
    4964:	0e 94 fb 24 	call	0x49f6	; 0x49f6 <prvCheckTasksWaitingTermination>
    4968:	80 91 c8 07 	lds	r24, 0x07C8	; 0x8007c8 <pxReadyTasksLists>
    496c:	82 30       	cpi	r24, 0x02	; 2
    496e:	10 f0       	brcs	.+4      	; 0x4974 <prvIdleTask+0x1e>
    4970:	0e 94 56 14 	call	0x28ac	; 0x28ac <vPortYield>
    4974:	0e 94 1a 09 	call	0x1234	; 0x1234 <vApplicationIdleHook>
    4978:	f5 cf       	rjmp	.-22     	; 0x4964 <prvIdleTask+0xe>

0000497a <prvInitialiseTaskLists>:
    497a:	cf 93       	push	r28
    497c:	df 93       	push	r29
    497e:	1f 92       	push	r1
    4980:	cd b7       	in	r28, 0x3d	; 61
    4982:	de b7       	in	r29, 0x3e	; 62
    4984:	19 82       	std	Y+1, r1	; 0x01
    4986:	13 c0       	rjmp	.+38     	; 0x49ae <prvInitialiseTaskLists+0x34>
    4988:	89 81       	ldd	r24, Y+1	; 0x01
    498a:	28 2f       	mov	r18, r24
    498c:	30 e0       	ldi	r19, 0x00	; 0
    498e:	c9 01       	movw	r24, r18
    4990:	88 0f       	add	r24, r24
    4992:	99 1f       	adc	r25, r25
    4994:	88 0f       	add	r24, r24
    4996:	99 1f       	adc	r25, r25
    4998:	88 0f       	add	r24, r24
    499a:	99 1f       	adc	r25, r25
    499c:	82 0f       	add	r24, r18
    499e:	93 1f       	adc	r25, r19
    49a0:	88 53       	subi	r24, 0x38	; 56
    49a2:	98 4f       	sbci	r25, 0xF8	; 248
    49a4:	0e 94 12 11 	call	0x2224	; 0x2224 <vListInitialise>
    49a8:	89 81       	ldd	r24, Y+1	; 0x01
    49aa:	8f 5f       	subi	r24, 0xFF	; 255
    49ac:	89 83       	std	Y+1, r24	; 0x01
    49ae:	89 81       	ldd	r24, Y+1	; 0x01
    49b0:	84 30       	cpi	r24, 0x04	; 4
    49b2:	50 f3       	brcs	.-44     	; 0x4988 <prvInitialiseTaskLists+0xe>
    49b4:	8c ee       	ldi	r24, 0xEC	; 236
    49b6:	97 e0       	ldi	r25, 0x07	; 7
    49b8:	0e 94 12 11 	call	0x2224	; 0x2224 <vListInitialise>
    49bc:	85 ef       	ldi	r24, 0xF5	; 245
    49be:	97 e0       	ldi	r25, 0x07	; 7
    49c0:	0e 94 12 11 	call	0x2224	; 0x2224 <vListInitialise>
    49c4:	82 e0       	ldi	r24, 0x02	; 2
    49c6:	98 e0       	ldi	r25, 0x08	; 8
    49c8:	0e 94 12 11 	call	0x2224	; 0x2224 <vListInitialise>
    49cc:	8b e0       	ldi	r24, 0x0B	; 11
    49ce:	98 e0       	ldi	r25, 0x08	; 8
    49d0:	0e 94 12 11 	call	0x2224	; 0x2224 <vListInitialise>
    49d4:	8c ee       	ldi	r24, 0xEC	; 236
    49d6:	97 e0       	ldi	r25, 0x07	; 7
    49d8:	90 93 ff 07 	sts	0x07FF, r25	; 0x8007ff <pxDelayedTaskList+0x1>
    49dc:	80 93 fe 07 	sts	0x07FE, r24	; 0x8007fe <pxDelayedTaskList>
    49e0:	85 ef       	ldi	r24, 0xF5	; 245
    49e2:	97 e0       	ldi	r25, 0x07	; 7
    49e4:	90 93 01 08 	sts	0x0801, r25	; 0x800801 <pxOverflowDelayedTaskList+0x1>
    49e8:	80 93 00 08 	sts	0x0800, r24	; 0x800800 <pxOverflowDelayedTaskList>
    49ec:	00 00       	nop
    49ee:	0f 90       	pop	r0
    49f0:	df 91       	pop	r29
    49f2:	cf 91       	pop	r28
    49f4:	08 95       	ret

000049f6 <prvCheckTasksWaitingTermination>:
    49f6:	cf 93       	push	r28
    49f8:	df 93       	push	r29
    49fa:	00 d0       	rcall	.+0      	; 0x49fc <prvCheckTasksWaitingTermination+0x6>
    49fc:	1f 92       	push	r1
    49fe:	cd b7       	in	r28, 0x3d	; 61
    4a00:	de b7       	in	r29, 0x3e	; 62
    4a02:	2f c0       	rjmp	.+94     	; 0x4a62 <prvCheckTasksWaitingTermination+0x6c>
    4a04:	0e 94 3f 21 	call	0x427e	; 0x427e <vTaskSuspendAll>
    4a08:	90 91 0b 08 	lds	r25, 0x080B	; 0x80080b <xTasksWaitingTermination>
    4a0c:	81 e0       	ldi	r24, 0x01	; 1
    4a0e:	99 23       	and	r25, r25
    4a10:	09 f0       	breq	.+2      	; 0x4a14 <prvCheckTasksWaitingTermination+0x1e>
    4a12:	80 e0       	ldi	r24, 0x00	; 0
    4a14:	89 83       	std	Y+1, r24	; 0x01
    4a16:	0e 94 4c 21 	call	0x4298	; 0x4298 <xTaskResumeAll>
    4a1a:	89 81       	ldd	r24, Y+1	; 0x01
    4a1c:	88 23       	and	r24, r24
    4a1e:	09 f5       	brne	.+66     	; 0x4a62 <prvCheckTasksWaitingTermination+0x6c>
    4a20:	0f b6       	in	r0, 0x3f	; 63
    4a22:	f8 94       	cli
    4a24:	0f 92       	push	r0
    4a26:	80 91 10 08 	lds	r24, 0x0810	; 0x800810 <xTasksWaitingTermination+0x5>
    4a2a:	90 91 11 08 	lds	r25, 0x0811	; 0x800811 <xTasksWaitingTermination+0x6>
    4a2e:	fc 01       	movw	r30, r24
    4a30:	86 81       	ldd	r24, Z+6	; 0x06
    4a32:	97 81       	ldd	r25, Z+7	; 0x07
    4a34:	9b 83       	std	Y+3, r25	; 0x03
    4a36:	8a 83       	std	Y+2, r24	; 0x02
    4a38:	8a 81       	ldd	r24, Y+2	; 0x02
    4a3a:	9b 81       	ldd	r25, Y+3	; 0x03
    4a3c:	02 96       	adiw	r24, 0x02	; 2
    4a3e:	0e 94 21 12 	call	0x2442	; 0x2442 <uxListRemove>
    4a42:	80 91 15 08 	lds	r24, 0x0815	; 0x800815 <uxCurrentNumberOfTasks>
    4a46:	81 50       	subi	r24, 0x01	; 1
    4a48:	80 93 15 08 	sts	0x0815, r24	; 0x800815 <uxCurrentNumberOfTasks>
    4a4c:	80 91 14 08 	lds	r24, 0x0814	; 0x800814 <uxDeletedTasksWaitingCleanUp>
    4a50:	81 50       	subi	r24, 0x01	; 1
    4a52:	80 93 14 08 	sts	0x0814, r24	; 0x800814 <uxDeletedTasksWaitingCleanUp>
    4a56:	0f 90       	pop	r0
    4a58:	0f be       	out	0x3f, r0	; 63
    4a5a:	8a 81       	ldd	r24, Y+2	; 0x02
    4a5c:	9b 81       	ldd	r25, Y+3	; 0x03
    4a5e:	0e 94 9a 25 	call	0x4b34	; 0x4b34 <prvDeleteTCB>
    4a62:	80 91 14 08 	lds	r24, 0x0814	; 0x800814 <uxDeletedTasksWaitingCleanUp>
    4a66:	88 23       	and	r24, r24
    4a68:	69 f6       	brne	.-102    	; 0x4a04 <prvCheckTasksWaitingTermination+0xe>
    4a6a:	00 00       	nop
    4a6c:	0f 90       	pop	r0
    4a6e:	0f 90       	pop	r0
    4a70:	0f 90       	pop	r0
    4a72:	df 91       	pop	r29
    4a74:	cf 91       	pop	r28
    4a76:	08 95       	ret

00004a78 <prvTaskCheckFreeStackSpace>:
    4a78:	cf 93       	push	r28
    4a7a:	df 93       	push	r29
    4a7c:	00 d0       	rcall	.+0      	; 0x4a7e <prvTaskCheckFreeStackSpace+0x6>
    4a7e:	00 d0       	rcall	.+0      	; 0x4a80 <prvTaskCheckFreeStackSpace+0x8>
    4a80:	00 d0       	rcall	.+0      	; 0x4a82 <prvTaskCheckFreeStackSpace+0xa>
    4a82:	cd b7       	in	r28, 0x3d	; 61
    4a84:	de b7       	in	r29, 0x3e	; 62
    4a86:	9e 83       	std	Y+6, r25	; 0x06
    4a88:	8d 83       	std	Y+5, r24	; 0x05
    4a8a:	19 82       	std	Y+1, r1	; 0x01
    4a8c:	1a 82       	std	Y+2, r1	; 0x02
    4a8e:	1b 82       	std	Y+3, r1	; 0x03
    4a90:	1c 82       	std	Y+4, r1	; 0x04
    4a92:	10 c0       	rjmp	.+32     	; 0x4ab4 <prvTaskCheckFreeStackSpace+0x3c>
    4a94:	8d 81       	ldd	r24, Y+5	; 0x05
    4a96:	9e 81       	ldd	r25, Y+6	; 0x06
    4a98:	01 96       	adiw	r24, 0x01	; 1
    4a9a:	9e 83       	std	Y+6, r25	; 0x06
    4a9c:	8d 83       	std	Y+5, r24	; 0x05
    4a9e:	89 81       	ldd	r24, Y+1	; 0x01
    4aa0:	9a 81       	ldd	r25, Y+2	; 0x02
    4aa2:	ab 81       	ldd	r26, Y+3	; 0x03
    4aa4:	bc 81       	ldd	r27, Y+4	; 0x04
    4aa6:	01 96       	adiw	r24, 0x01	; 1
    4aa8:	a1 1d       	adc	r26, r1
    4aaa:	b1 1d       	adc	r27, r1
    4aac:	89 83       	std	Y+1, r24	; 0x01
    4aae:	9a 83       	std	Y+2, r25	; 0x02
    4ab0:	ab 83       	std	Y+3, r26	; 0x03
    4ab2:	bc 83       	std	Y+4, r27	; 0x04
    4ab4:	8d 81       	ldd	r24, Y+5	; 0x05
    4ab6:	9e 81       	ldd	r25, Y+6	; 0x06
    4ab8:	fc 01       	movw	r30, r24
    4aba:	80 81       	ld	r24, Z
    4abc:	85 3a       	cpi	r24, 0xA5	; 165
    4abe:	51 f3       	breq	.-44     	; 0x4a94 <prvTaskCheckFreeStackSpace+0x1c>
    4ac0:	89 81       	ldd	r24, Y+1	; 0x01
    4ac2:	9a 81       	ldd	r25, Y+2	; 0x02
    4ac4:	26 96       	adiw	r28, 0x06	; 6
    4ac6:	0f b6       	in	r0, 0x3f	; 63
    4ac8:	f8 94       	cli
    4aca:	de bf       	out	0x3e, r29	; 62
    4acc:	0f be       	out	0x3f, r0	; 63
    4ace:	cd bf       	out	0x3d, r28	; 61
    4ad0:	df 91       	pop	r29
    4ad2:	cf 91       	pop	r28
    4ad4:	08 95       	ret

00004ad6 <uxTaskGetStackHighWaterMark>:
    4ad6:	cf 93       	push	r28
    4ad8:	df 93       	push	r29
    4ada:	cd b7       	in	r28, 0x3d	; 61
    4adc:	de b7       	in	r29, 0x3e	; 62
    4ade:	27 97       	sbiw	r28, 0x07	; 7
    4ae0:	0f b6       	in	r0, 0x3f	; 63
    4ae2:	f8 94       	cli
    4ae4:	de bf       	out	0x3e, r29	; 62
    4ae6:	0f be       	out	0x3f, r0	; 63
    4ae8:	cd bf       	out	0x3d, r28	; 61
    4aea:	9f 83       	std	Y+7, r25	; 0x07
    4aec:	8e 83       	std	Y+6, r24	; 0x06
    4aee:	8e 81       	ldd	r24, Y+6	; 0x06
    4af0:	9f 81       	ldd	r25, Y+7	; 0x07
    4af2:	89 2b       	or	r24, r25
    4af4:	29 f4       	brne	.+10     	; 0x4b00 <uxTaskGetStackHighWaterMark+0x2a>
    4af6:	80 91 c6 07 	lds	r24, 0x07C6	; 0x8007c6 <pxCurrentTCB>
    4afa:	90 91 c7 07 	lds	r25, 0x07C7	; 0x8007c7 <pxCurrentTCB+0x1>
    4afe:	02 c0       	rjmp	.+4      	; 0x4b04 <uxTaskGetStackHighWaterMark+0x2e>
    4b00:	8e 81       	ldd	r24, Y+6	; 0x06
    4b02:	9f 81       	ldd	r25, Y+7	; 0x07
    4b04:	9a 83       	std	Y+2, r25	; 0x02
    4b06:	89 83       	std	Y+1, r24	; 0x01
    4b08:	89 81       	ldd	r24, Y+1	; 0x01
    4b0a:	9a 81       	ldd	r25, Y+2	; 0x02
    4b0c:	fc 01       	movw	r30, r24
    4b0e:	87 89       	ldd	r24, Z+23	; 0x17
    4b10:	90 8d       	ldd	r25, Z+24	; 0x18
    4b12:	9c 83       	std	Y+4, r25	; 0x04
    4b14:	8b 83       	std	Y+3, r24	; 0x03
    4b16:	8b 81       	ldd	r24, Y+3	; 0x03
    4b18:	9c 81       	ldd	r25, Y+4	; 0x04
    4b1a:	0e 94 3c 25 	call	0x4a78	; 0x4a78 <prvTaskCheckFreeStackSpace>
    4b1e:	8d 83       	std	Y+5, r24	; 0x05
    4b20:	8d 81       	ldd	r24, Y+5	; 0x05
    4b22:	27 96       	adiw	r28, 0x07	; 7
    4b24:	0f b6       	in	r0, 0x3f	; 63
    4b26:	f8 94       	cli
    4b28:	de bf       	out	0x3e, r29	; 62
    4b2a:	0f be       	out	0x3f, r0	; 63
    4b2c:	cd bf       	out	0x3d, r28	; 61
    4b2e:	df 91       	pop	r29
    4b30:	cf 91       	pop	r28
    4b32:	08 95       	ret

00004b34 <prvDeleteTCB>:
    4b34:	cf 93       	push	r28
    4b36:	df 93       	push	r29
    4b38:	00 d0       	rcall	.+0      	; 0x4b3a <prvDeleteTCB+0x6>
    4b3a:	cd b7       	in	r28, 0x3d	; 61
    4b3c:	de b7       	in	r29, 0x3e	; 62
    4b3e:	9a 83       	std	Y+2, r25	; 0x02
    4b40:	89 83       	std	Y+1, r24	; 0x01
    4b42:	89 81       	ldd	r24, Y+1	; 0x01
    4b44:	9a 81       	ldd	r25, Y+2	; 0x02
    4b46:	fc 01       	movw	r30, r24
    4b48:	87 89       	ldd	r24, Z+23	; 0x17
    4b4a:	90 8d       	ldd	r25, Z+24	; 0x18
    4b4c:	0e 94 d5 18 	call	0x31aa	; 0x31aa <vPortFree>
    4b50:	89 81       	ldd	r24, Y+1	; 0x01
    4b52:	9a 81       	ldd	r25, Y+2	; 0x02
    4b54:	0e 94 d5 18 	call	0x31aa	; 0x31aa <vPortFree>
    4b58:	00 00       	nop
    4b5a:	0f 90       	pop	r0
    4b5c:	0f 90       	pop	r0
    4b5e:	df 91       	pop	r29
    4b60:	cf 91       	pop	r28
    4b62:	08 95       	ret

00004b64 <prvResetNextTaskUnblockTime>:
    4b64:	cf 93       	push	r28
    4b66:	df 93       	push	r29
    4b68:	00 d0       	rcall	.+0      	; 0x4b6a <prvResetNextTaskUnblockTime+0x6>
    4b6a:	cd b7       	in	r28, 0x3d	; 61
    4b6c:	de b7       	in	r29, 0x3e	; 62
    4b6e:	80 91 fe 07 	lds	r24, 0x07FE	; 0x8007fe <pxDelayedTaskList>
    4b72:	90 91 ff 07 	lds	r25, 0x07FF	; 0x8007ff <pxDelayedTaskList+0x1>
    4b76:	fc 01       	movw	r30, r24
    4b78:	80 81       	ld	r24, Z
    4b7a:	88 23       	and	r24, r24
    4b7c:	39 f4       	brne	.+14     	; 0x4b8c <prvResetNextTaskUnblockTime+0x28>
    4b7e:	8f ef       	ldi	r24, 0xFF	; 255
    4b80:	9f ef       	ldi	r25, 0xFF	; 255
    4b82:	90 93 1f 08 	sts	0x081F, r25	; 0x80081f <xNextTaskUnblockTime+0x1>
    4b86:	80 93 1e 08 	sts	0x081E, r24	; 0x80081e <xNextTaskUnblockTime>
    4b8a:	15 c0       	rjmp	.+42     	; 0x4bb6 <prvResetNextTaskUnblockTime+0x52>
    4b8c:	80 91 fe 07 	lds	r24, 0x07FE	; 0x8007fe <pxDelayedTaskList>
    4b90:	90 91 ff 07 	lds	r25, 0x07FF	; 0x8007ff <pxDelayedTaskList+0x1>
    4b94:	fc 01       	movw	r30, r24
    4b96:	85 81       	ldd	r24, Z+5	; 0x05
    4b98:	96 81       	ldd	r25, Z+6	; 0x06
    4b9a:	fc 01       	movw	r30, r24
    4b9c:	86 81       	ldd	r24, Z+6	; 0x06
    4b9e:	97 81       	ldd	r25, Z+7	; 0x07
    4ba0:	9a 83       	std	Y+2, r25	; 0x02
    4ba2:	89 83       	std	Y+1, r24	; 0x01
    4ba4:	89 81       	ldd	r24, Y+1	; 0x01
    4ba6:	9a 81       	ldd	r25, Y+2	; 0x02
    4ba8:	fc 01       	movw	r30, r24
    4baa:	82 81       	ldd	r24, Z+2	; 0x02
    4bac:	93 81       	ldd	r25, Z+3	; 0x03
    4bae:	90 93 1f 08 	sts	0x081F, r25	; 0x80081f <xNextTaskUnblockTime+0x1>
    4bb2:	80 93 1e 08 	sts	0x081E, r24	; 0x80081e <xNextTaskUnblockTime>
    4bb6:	00 00       	nop
    4bb8:	0f 90       	pop	r0
    4bba:	0f 90       	pop	r0
    4bbc:	df 91       	pop	r29
    4bbe:	cf 91       	pop	r28
    4bc0:	08 95       	ret

00004bc2 <vTaskPriorityInherit>:
    4bc2:	cf 93       	push	r28
    4bc4:	df 93       	push	r29
    4bc6:	00 d0       	rcall	.+0      	; 0x4bc8 <vTaskPriorityInherit+0x6>
    4bc8:	00 d0       	rcall	.+0      	; 0x4bca <vTaskPriorityInherit+0x8>
    4bca:	cd b7       	in	r28, 0x3d	; 61
    4bcc:	de b7       	in	r29, 0x3e	; 62
    4bce:	9c 83       	std	Y+4, r25	; 0x04
    4bd0:	8b 83       	std	Y+3, r24	; 0x03
    4bd2:	8b 81       	ldd	r24, Y+3	; 0x03
    4bd4:	9c 81       	ldd	r25, Y+4	; 0x04
    4bd6:	9a 83       	std	Y+2, r25	; 0x02
    4bd8:	89 83       	std	Y+1, r24	; 0x01
    4bda:	8b 81       	ldd	r24, Y+3	; 0x03
    4bdc:	9c 81       	ldd	r25, Y+4	; 0x04
    4bde:	89 2b       	or	r24, r25
    4be0:	09 f4       	brne	.+2      	; 0x4be4 <vTaskPriorityInherit+0x22>
    4be2:	7f c0       	rjmp	.+254    	; 0x4ce2 <vTaskPriorityInherit+0x120>
    4be4:	89 81       	ldd	r24, Y+1	; 0x01
    4be6:	9a 81       	ldd	r25, Y+2	; 0x02
    4be8:	fc 01       	movw	r30, r24
    4bea:	26 89       	ldd	r18, Z+22	; 0x16
    4bec:	80 91 c6 07 	lds	r24, 0x07C6	; 0x8007c6 <pxCurrentTCB>
    4bf0:	90 91 c7 07 	lds	r25, 0x07C7	; 0x8007c7 <pxCurrentTCB+0x1>
    4bf4:	fc 01       	movw	r30, r24
    4bf6:	86 89       	ldd	r24, Z+22	; 0x16
    4bf8:	28 17       	cp	r18, r24
    4bfa:	08 f0       	brcs	.+2      	; 0x4bfe <vTaskPriorityInherit+0x3c>
    4bfc:	72 c0       	rjmp	.+228    	; 0x4ce2 <vTaskPriorityInherit+0x120>
    4bfe:	89 81       	ldd	r24, Y+1	; 0x01
    4c00:	9a 81       	ldd	r25, Y+2	; 0x02
    4c02:	fc 01       	movw	r30, r24
    4c04:	84 85       	ldd	r24, Z+12	; 0x0c
    4c06:	95 85       	ldd	r25, Z+13	; 0x0d
    4c08:	99 23       	and	r25, r25
    4c0a:	8c f0       	brlt	.+34     	; 0x4c2e <vTaskPriorityInherit+0x6c>
    4c0c:	80 91 c6 07 	lds	r24, 0x07C6	; 0x8007c6 <pxCurrentTCB>
    4c10:	90 91 c7 07 	lds	r25, 0x07C7	; 0x8007c7 <pxCurrentTCB+0x1>
    4c14:	fc 01       	movw	r30, r24
    4c16:	86 89       	ldd	r24, Z+22	; 0x16
    4c18:	88 2f       	mov	r24, r24
    4c1a:	90 e0       	ldi	r25, 0x00	; 0
    4c1c:	24 e0       	ldi	r18, 0x04	; 4
    4c1e:	30 e0       	ldi	r19, 0x00	; 0
    4c20:	28 1b       	sub	r18, r24
    4c22:	39 0b       	sbc	r19, r25
    4c24:	89 81       	ldd	r24, Y+1	; 0x01
    4c26:	9a 81       	ldd	r25, Y+2	; 0x02
    4c28:	fc 01       	movw	r30, r24
    4c2a:	35 87       	std	Z+13, r19	; 0x0d
    4c2c:	24 87       	std	Z+12, r18	; 0x0c
    4c2e:	89 81       	ldd	r24, Y+1	; 0x01
    4c30:	9a 81       	ldd	r25, Y+2	; 0x02
    4c32:	fc 01       	movw	r30, r24
    4c34:	42 85       	ldd	r20, Z+10	; 0x0a
    4c36:	53 85       	ldd	r21, Z+11	; 0x0b
    4c38:	89 81       	ldd	r24, Y+1	; 0x01
    4c3a:	9a 81       	ldd	r25, Y+2	; 0x02
    4c3c:	fc 01       	movw	r30, r24
    4c3e:	86 89       	ldd	r24, Z+22	; 0x16
    4c40:	28 2f       	mov	r18, r24
    4c42:	30 e0       	ldi	r19, 0x00	; 0
    4c44:	c9 01       	movw	r24, r18
    4c46:	88 0f       	add	r24, r24
    4c48:	99 1f       	adc	r25, r25
    4c4a:	88 0f       	add	r24, r24
    4c4c:	99 1f       	adc	r25, r25
    4c4e:	88 0f       	add	r24, r24
    4c50:	99 1f       	adc	r25, r25
    4c52:	82 0f       	add	r24, r18
    4c54:	93 1f       	adc	r25, r19
    4c56:	88 53       	subi	r24, 0x38	; 56
    4c58:	98 4f       	sbci	r25, 0xF8	; 248
    4c5a:	48 17       	cp	r20, r24
    4c5c:	59 07       	cpc	r21, r25
    4c5e:	b9 f5       	brne	.+110    	; 0x4cce <vTaskPriorityInherit+0x10c>
    4c60:	89 81       	ldd	r24, Y+1	; 0x01
    4c62:	9a 81       	ldd	r25, Y+2	; 0x02
    4c64:	02 96       	adiw	r24, 0x02	; 2
    4c66:	0e 94 21 12 	call	0x2442	; 0x2442 <uxListRemove>
    4c6a:	80 91 c6 07 	lds	r24, 0x07C6	; 0x8007c6 <pxCurrentTCB>
    4c6e:	90 91 c7 07 	lds	r25, 0x07C7	; 0x8007c7 <pxCurrentTCB+0x1>
    4c72:	fc 01       	movw	r30, r24
    4c74:	26 89       	ldd	r18, Z+22	; 0x16
    4c76:	89 81       	ldd	r24, Y+1	; 0x01
    4c78:	9a 81       	ldd	r25, Y+2	; 0x02
    4c7a:	fc 01       	movw	r30, r24
    4c7c:	26 8b       	std	Z+22, r18	; 0x16
    4c7e:	89 81       	ldd	r24, Y+1	; 0x01
    4c80:	9a 81       	ldd	r25, Y+2	; 0x02
    4c82:	fc 01       	movw	r30, r24
    4c84:	96 89       	ldd	r25, Z+22	; 0x16
    4c86:	80 91 18 08 	lds	r24, 0x0818	; 0x800818 <uxTopReadyPriority>
    4c8a:	89 17       	cp	r24, r25
    4c8c:	30 f4       	brcc	.+12     	; 0x4c9a <vTaskPriorityInherit+0xd8>
    4c8e:	89 81       	ldd	r24, Y+1	; 0x01
    4c90:	9a 81       	ldd	r25, Y+2	; 0x02
    4c92:	fc 01       	movw	r30, r24
    4c94:	86 89       	ldd	r24, Z+22	; 0x16
    4c96:	80 93 18 08 	sts	0x0818, r24	; 0x800818 <uxTopReadyPriority>
    4c9a:	89 81       	ldd	r24, Y+1	; 0x01
    4c9c:	9a 81       	ldd	r25, Y+2	; 0x02
    4c9e:	ac 01       	movw	r20, r24
    4ca0:	4e 5f       	subi	r20, 0xFE	; 254
    4ca2:	5f 4f       	sbci	r21, 0xFF	; 255
    4ca4:	89 81       	ldd	r24, Y+1	; 0x01
    4ca6:	9a 81       	ldd	r25, Y+2	; 0x02
    4ca8:	fc 01       	movw	r30, r24
    4caa:	86 89       	ldd	r24, Z+22	; 0x16
    4cac:	28 2f       	mov	r18, r24
    4cae:	30 e0       	ldi	r19, 0x00	; 0
    4cb0:	c9 01       	movw	r24, r18
    4cb2:	88 0f       	add	r24, r24
    4cb4:	99 1f       	adc	r25, r25
    4cb6:	88 0f       	add	r24, r24
    4cb8:	99 1f       	adc	r25, r25
    4cba:	88 0f       	add	r24, r24
    4cbc:	99 1f       	adc	r25, r25
    4cbe:	82 0f       	add	r24, r18
    4cc0:	93 1f       	adc	r25, r19
    4cc2:	88 53       	subi	r24, 0x38	; 56
    4cc4:	98 4f       	sbci	r25, 0xF8	; 248
    4cc6:	ba 01       	movw	r22, r20
    4cc8:	0e 94 5a 11 	call	0x22b4	; 0x22b4 <vListInsertEnd>
    4ccc:	0a c0       	rjmp	.+20     	; 0x4ce2 <vTaskPriorityInherit+0x120>
    4cce:	80 91 c6 07 	lds	r24, 0x07C6	; 0x8007c6 <pxCurrentTCB>
    4cd2:	90 91 c7 07 	lds	r25, 0x07C7	; 0x8007c7 <pxCurrentTCB+0x1>
    4cd6:	fc 01       	movw	r30, r24
    4cd8:	26 89       	ldd	r18, Z+22	; 0x16
    4cda:	89 81       	ldd	r24, Y+1	; 0x01
    4cdc:	9a 81       	ldd	r25, Y+2	; 0x02
    4cde:	fc 01       	movw	r30, r24
    4ce0:	26 8b       	std	Z+22, r18	; 0x16
    4ce2:	00 00       	nop
    4ce4:	0f 90       	pop	r0
    4ce6:	0f 90       	pop	r0
    4ce8:	0f 90       	pop	r0
    4cea:	0f 90       	pop	r0
    4cec:	df 91       	pop	r29
    4cee:	cf 91       	pop	r28
    4cf0:	08 95       	ret

00004cf2 <xTaskPriorityDisinherit>:
    4cf2:	cf 93       	push	r28
    4cf4:	df 93       	push	r29
    4cf6:	00 d0       	rcall	.+0      	; 0x4cf8 <xTaskPriorityDisinherit+0x6>
    4cf8:	00 d0       	rcall	.+0      	; 0x4cfa <xTaskPriorityDisinherit+0x8>
    4cfa:	1f 92       	push	r1
    4cfc:	cd b7       	in	r28, 0x3d	; 61
    4cfe:	de b7       	in	r29, 0x3e	; 62
    4d00:	9d 83       	std	Y+5, r25	; 0x05
    4d02:	8c 83       	std	Y+4, r24	; 0x04
    4d04:	8c 81       	ldd	r24, Y+4	; 0x04
    4d06:	9d 81       	ldd	r25, Y+5	; 0x05
    4d08:	9b 83       	std	Y+3, r25	; 0x03
    4d0a:	8a 83       	std	Y+2, r24	; 0x02
    4d0c:	19 82       	std	Y+1, r1	; 0x01
    4d0e:	8c 81       	ldd	r24, Y+4	; 0x04
    4d10:	9d 81       	ldd	r25, Y+5	; 0x05
    4d12:	89 2b       	or	r24, r25
    4d14:	09 f4       	brne	.+2      	; 0x4d18 <xTaskPriorityDisinherit+0x26>
    4d16:	61 c0       	rjmp	.+194    	; 0x4dda <xTaskPriorityDisinherit+0xe8>
    4d18:	8a 81       	ldd	r24, Y+2	; 0x02
    4d1a:	9b 81       	ldd	r25, Y+3	; 0x03
    4d1c:	fc 01       	movw	r30, r24
    4d1e:	84 a1       	ldd	r24, Z+36	; 0x24
    4d20:	2f ef       	ldi	r18, 0xFF	; 255
    4d22:	28 0f       	add	r18, r24
    4d24:	8a 81       	ldd	r24, Y+2	; 0x02
    4d26:	9b 81       	ldd	r25, Y+3	; 0x03
    4d28:	fc 01       	movw	r30, r24
    4d2a:	24 a3       	std	Z+36, r18	; 0x24
    4d2c:	8a 81       	ldd	r24, Y+2	; 0x02
    4d2e:	9b 81       	ldd	r25, Y+3	; 0x03
    4d30:	fc 01       	movw	r30, r24
    4d32:	26 89       	ldd	r18, Z+22	; 0x16
    4d34:	8a 81       	ldd	r24, Y+2	; 0x02
    4d36:	9b 81       	ldd	r25, Y+3	; 0x03
    4d38:	fc 01       	movw	r30, r24
    4d3a:	83 a1       	ldd	r24, Z+35	; 0x23
    4d3c:	28 17       	cp	r18, r24
    4d3e:	09 f4       	brne	.+2      	; 0x4d42 <xTaskPriorityDisinherit+0x50>
    4d40:	4c c0       	rjmp	.+152    	; 0x4dda <xTaskPriorityDisinherit+0xe8>
    4d42:	8a 81       	ldd	r24, Y+2	; 0x02
    4d44:	9b 81       	ldd	r25, Y+3	; 0x03
    4d46:	fc 01       	movw	r30, r24
    4d48:	84 a1       	ldd	r24, Z+36	; 0x24
    4d4a:	88 23       	and	r24, r24
    4d4c:	09 f0       	breq	.+2      	; 0x4d50 <xTaskPriorityDisinherit+0x5e>
    4d4e:	45 c0       	rjmp	.+138    	; 0x4dda <xTaskPriorityDisinherit+0xe8>
    4d50:	8a 81       	ldd	r24, Y+2	; 0x02
    4d52:	9b 81       	ldd	r25, Y+3	; 0x03
    4d54:	02 96       	adiw	r24, 0x02	; 2
    4d56:	0e 94 21 12 	call	0x2442	; 0x2442 <uxListRemove>
    4d5a:	8a 81       	ldd	r24, Y+2	; 0x02
    4d5c:	9b 81       	ldd	r25, Y+3	; 0x03
    4d5e:	fc 01       	movw	r30, r24
    4d60:	23 a1       	ldd	r18, Z+35	; 0x23
    4d62:	8a 81       	ldd	r24, Y+2	; 0x02
    4d64:	9b 81       	ldd	r25, Y+3	; 0x03
    4d66:	fc 01       	movw	r30, r24
    4d68:	26 8b       	std	Z+22, r18	; 0x16
    4d6a:	8a 81       	ldd	r24, Y+2	; 0x02
    4d6c:	9b 81       	ldd	r25, Y+3	; 0x03
    4d6e:	fc 01       	movw	r30, r24
    4d70:	86 89       	ldd	r24, Z+22	; 0x16
    4d72:	88 2f       	mov	r24, r24
    4d74:	90 e0       	ldi	r25, 0x00	; 0
    4d76:	24 e0       	ldi	r18, 0x04	; 4
    4d78:	30 e0       	ldi	r19, 0x00	; 0
    4d7a:	28 1b       	sub	r18, r24
    4d7c:	39 0b       	sbc	r19, r25
    4d7e:	8a 81       	ldd	r24, Y+2	; 0x02
    4d80:	9b 81       	ldd	r25, Y+3	; 0x03
    4d82:	fc 01       	movw	r30, r24
    4d84:	35 87       	std	Z+13, r19	; 0x0d
    4d86:	24 87       	std	Z+12, r18	; 0x0c
    4d88:	8a 81       	ldd	r24, Y+2	; 0x02
    4d8a:	9b 81       	ldd	r25, Y+3	; 0x03
    4d8c:	fc 01       	movw	r30, r24
    4d8e:	96 89       	ldd	r25, Z+22	; 0x16
    4d90:	80 91 18 08 	lds	r24, 0x0818	; 0x800818 <uxTopReadyPriority>
    4d94:	89 17       	cp	r24, r25
    4d96:	30 f4       	brcc	.+12     	; 0x4da4 <xTaskPriorityDisinherit+0xb2>
    4d98:	8a 81       	ldd	r24, Y+2	; 0x02
    4d9a:	9b 81       	ldd	r25, Y+3	; 0x03
    4d9c:	fc 01       	movw	r30, r24
    4d9e:	86 89       	ldd	r24, Z+22	; 0x16
    4da0:	80 93 18 08 	sts	0x0818, r24	; 0x800818 <uxTopReadyPriority>
    4da4:	8a 81       	ldd	r24, Y+2	; 0x02
    4da6:	9b 81       	ldd	r25, Y+3	; 0x03
    4da8:	ac 01       	movw	r20, r24
    4daa:	4e 5f       	subi	r20, 0xFE	; 254
    4dac:	5f 4f       	sbci	r21, 0xFF	; 255
    4dae:	8a 81       	ldd	r24, Y+2	; 0x02
    4db0:	9b 81       	ldd	r25, Y+3	; 0x03
    4db2:	fc 01       	movw	r30, r24
    4db4:	86 89       	ldd	r24, Z+22	; 0x16
    4db6:	28 2f       	mov	r18, r24
    4db8:	30 e0       	ldi	r19, 0x00	; 0
    4dba:	c9 01       	movw	r24, r18
    4dbc:	88 0f       	add	r24, r24
    4dbe:	99 1f       	adc	r25, r25
    4dc0:	88 0f       	add	r24, r24
    4dc2:	99 1f       	adc	r25, r25
    4dc4:	88 0f       	add	r24, r24
    4dc6:	99 1f       	adc	r25, r25
    4dc8:	82 0f       	add	r24, r18
    4dca:	93 1f       	adc	r25, r19
    4dcc:	88 53       	subi	r24, 0x38	; 56
    4dce:	98 4f       	sbci	r25, 0xF8	; 248
    4dd0:	ba 01       	movw	r22, r20
    4dd2:	0e 94 5a 11 	call	0x22b4	; 0x22b4 <vListInsertEnd>
    4dd6:	81 e0       	ldi	r24, 0x01	; 1
    4dd8:	89 83       	std	Y+1, r24	; 0x01
    4dda:	89 81       	ldd	r24, Y+1	; 0x01
    4ddc:	0f 90       	pop	r0
    4dde:	0f 90       	pop	r0
    4de0:	0f 90       	pop	r0
    4de2:	0f 90       	pop	r0
    4de4:	0f 90       	pop	r0
    4de6:	df 91       	pop	r29
    4de8:	cf 91       	pop	r28
    4dea:	08 95       	ret

00004dec <pvTaskIncrementMutexHeldCount>:
    4dec:	cf 93       	push	r28
    4dee:	df 93       	push	r29
    4df0:	cd b7       	in	r28, 0x3d	; 61
    4df2:	de b7       	in	r29, 0x3e	; 62
    4df4:	80 91 c6 07 	lds	r24, 0x07C6	; 0x8007c6 <pxCurrentTCB>
    4df8:	90 91 c7 07 	lds	r25, 0x07C7	; 0x8007c7 <pxCurrentTCB+0x1>
    4dfc:	89 2b       	or	r24, r25
    4dfe:	49 f0       	breq	.+18     	; 0x4e12 <pvTaskIncrementMutexHeldCount+0x26>
    4e00:	80 91 c6 07 	lds	r24, 0x07C6	; 0x8007c6 <pxCurrentTCB>
    4e04:	90 91 c7 07 	lds	r25, 0x07C7	; 0x8007c7 <pxCurrentTCB+0x1>
    4e08:	fc 01       	movw	r30, r24
    4e0a:	24 a1       	ldd	r18, Z+36	; 0x24
    4e0c:	2f 5f       	subi	r18, 0xFF	; 255
    4e0e:	fc 01       	movw	r30, r24
    4e10:	24 a3       	std	Z+36, r18	; 0x24
    4e12:	80 91 c6 07 	lds	r24, 0x07C6	; 0x8007c6 <pxCurrentTCB>
    4e16:	90 91 c7 07 	lds	r25, 0x07C7	; 0x8007c7 <pxCurrentTCB+0x1>
    4e1a:	df 91       	pop	r29
    4e1c:	cf 91       	pop	r28
    4e1e:	08 95       	ret

00004e20 <prvAddCurrentTaskToDelayedList>:
    4e20:	cf 93       	push	r28
    4e22:	df 93       	push	r29
    4e24:	cd b7       	in	r28, 0x3d	; 61
    4e26:	de b7       	in	r29, 0x3e	; 62
    4e28:	27 97       	sbiw	r28, 0x07	; 7
    4e2a:	0f b6       	in	r0, 0x3f	; 63
    4e2c:	f8 94       	cli
    4e2e:	de bf       	out	0x3e, r29	; 62
    4e30:	0f be       	out	0x3f, r0	; 63
    4e32:	cd bf       	out	0x3d, r28	; 61
    4e34:	9e 83       	std	Y+6, r25	; 0x06
    4e36:	8d 83       	std	Y+5, r24	; 0x05
    4e38:	6f 83       	std	Y+7, r22	; 0x07
    4e3a:	80 91 16 08 	lds	r24, 0x0816	; 0x800816 <xTickCount>
    4e3e:	90 91 17 08 	lds	r25, 0x0817	; 0x800817 <xTickCount+0x1>
    4e42:	9a 83       	std	Y+2, r25	; 0x02
    4e44:	89 83       	std	Y+1, r24	; 0x01
    4e46:	80 91 c6 07 	lds	r24, 0x07C6	; 0x8007c6 <pxCurrentTCB>
    4e4a:	90 91 c7 07 	lds	r25, 0x07C7	; 0x8007c7 <pxCurrentTCB+0x1>
    4e4e:	02 96       	adiw	r24, 0x02	; 2
    4e50:	0e 94 21 12 	call	0x2442	; 0x2442 <uxListRemove>
    4e54:	29 81       	ldd	r18, Y+1	; 0x01
    4e56:	3a 81       	ldd	r19, Y+2	; 0x02
    4e58:	8d 81       	ldd	r24, Y+5	; 0x05
    4e5a:	9e 81       	ldd	r25, Y+6	; 0x06
    4e5c:	82 0f       	add	r24, r18
    4e5e:	93 1f       	adc	r25, r19
    4e60:	9c 83       	std	Y+4, r25	; 0x04
    4e62:	8b 83       	std	Y+3, r24	; 0x03
    4e64:	80 91 c6 07 	lds	r24, 0x07C6	; 0x8007c6 <pxCurrentTCB>
    4e68:	90 91 c7 07 	lds	r25, 0x07C7	; 0x8007c7 <pxCurrentTCB+0x1>
    4e6c:	2b 81       	ldd	r18, Y+3	; 0x03
    4e6e:	3c 81       	ldd	r19, Y+4	; 0x04
    4e70:	fc 01       	movw	r30, r24
    4e72:	33 83       	std	Z+3, r19	; 0x03
    4e74:	22 83       	std	Z+2, r18	; 0x02
    4e76:	2b 81       	ldd	r18, Y+3	; 0x03
    4e78:	3c 81       	ldd	r19, Y+4	; 0x04
    4e7a:	89 81       	ldd	r24, Y+1	; 0x01
    4e7c:	9a 81       	ldd	r25, Y+2	; 0x02
    4e7e:	28 17       	cp	r18, r24
    4e80:	39 07       	cpc	r19, r25
    4e82:	78 f4       	brcc	.+30     	; 0x4ea2 <prvAddCurrentTaskToDelayedList+0x82>
    4e84:	80 91 c6 07 	lds	r24, 0x07C6	; 0x8007c6 <pxCurrentTCB>
    4e88:	90 91 c7 07 	lds	r25, 0x07C7	; 0x8007c7 <pxCurrentTCB+0x1>
    4e8c:	9c 01       	movw	r18, r24
    4e8e:	2e 5f       	subi	r18, 0xFE	; 254
    4e90:	3f 4f       	sbci	r19, 0xFF	; 255
    4e92:	80 91 00 08 	lds	r24, 0x0800	; 0x800800 <pxOverflowDelayedTaskList>
    4e96:	90 91 01 08 	lds	r25, 0x0801	; 0x800801 <pxOverflowDelayedTaskList+0x1>
    4e9a:	b9 01       	movw	r22, r18
    4e9c:	0e 94 a9 11 	call	0x2352	; 0x2352 <vListInsert>
    4ea0:	1d c0       	rjmp	.+58     	; 0x4edc <prvAddCurrentTaskToDelayedList+0xbc>
    4ea2:	80 91 c6 07 	lds	r24, 0x07C6	; 0x8007c6 <pxCurrentTCB>
    4ea6:	90 91 c7 07 	lds	r25, 0x07C7	; 0x8007c7 <pxCurrentTCB+0x1>
    4eaa:	9c 01       	movw	r18, r24
    4eac:	2e 5f       	subi	r18, 0xFE	; 254
    4eae:	3f 4f       	sbci	r19, 0xFF	; 255
    4eb0:	80 91 fe 07 	lds	r24, 0x07FE	; 0x8007fe <pxDelayedTaskList>
    4eb4:	90 91 ff 07 	lds	r25, 0x07FF	; 0x8007ff <pxDelayedTaskList+0x1>
    4eb8:	b9 01       	movw	r22, r18
    4eba:	0e 94 a9 11 	call	0x2352	; 0x2352 <vListInsert>
    4ebe:	80 91 1e 08 	lds	r24, 0x081E	; 0x80081e <xNextTaskUnblockTime>
    4ec2:	90 91 1f 08 	lds	r25, 0x081F	; 0x80081f <xNextTaskUnblockTime+0x1>
    4ec6:	2b 81       	ldd	r18, Y+3	; 0x03
    4ec8:	3c 81       	ldd	r19, Y+4	; 0x04
    4eca:	28 17       	cp	r18, r24
    4ecc:	39 07       	cpc	r19, r25
    4ece:	30 f4       	brcc	.+12     	; 0x4edc <prvAddCurrentTaskToDelayedList+0xbc>
    4ed0:	8b 81       	ldd	r24, Y+3	; 0x03
    4ed2:	9c 81       	ldd	r25, Y+4	; 0x04
    4ed4:	90 93 1f 08 	sts	0x081F, r25	; 0x80081f <xNextTaskUnblockTime+0x1>
    4ed8:	80 93 1e 08 	sts	0x081E, r24	; 0x80081e <xNextTaskUnblockTime>
    4edc:	00 00       	nop
    4ede:	27 96       	adiw	r28, 0x07	; 7
    4ee0:	0f b6       	in	r0, 0x3f	; 63
    4ee2:	f8 94       	cli
    4ee4:	de bf       	out	0x3e, r29	; 62
    4ee6:	0f be       	out	0x3f, r0	; 63
    4ee8:	cd bf       	out	0x3d, r28	; 61
    4eea:	df 91       	pop	r29
    4eec:	cf 91       	pop	r28
    4eee:	08 95       	ret

00004ef0 <__divmodhi4>:
    4ef0:	97 fb       	bst	r25, 7
    4ef2:	07 2e       	mov	r0, r23
    4ef4:	16 f4       	brtc	.+4      	; 0x4efa <__divmodhi4+0xa>
    4ef6:	00 94       	com	r0
    4ef8:	07 d0       	rcall	.+14     	; 0x4f08 <__divmodhi4_neg1>
    4efa:	77 fd       	sbrc	r23, 7
    4efc:	09 d0       	rcall	.+18     	; 0x4f10 <__divmodhi4_neg2>
    4efe:	0e 94 ae 27 	call	0x4f5c	; 0x4f5c <__udivmodhi4>
    4f02:	07 fc       	sbrc	r0, 7
    4f04:	05 d0       	rcall	.+10     	; 0x4f10 <__divmodhi4_neg2>
    4f06:	3e f4       	brtc	.+14     	; 0x4f16 <__divmodhi4_exit>

00004f08 <__divmodhi4_neg1>:
    4f08:	90 95       	com	r25
    4f0a:	81 95       	neg	r24
    4f0c:	9f 4f       	sbci	r25, 0xFF	; 255
    4f0e:	08 95       	ret

00004f10 <__divmodhi4_neg2>:
    4f10:	70 95       	com	r23
    4f12:	61 95       	neg	r22
    4f14:	7f 4f       	sbci	r23, 0xFF	; 255

00004f16 <__divmodhi4_exit>:
    4f16:	08 95       	ret

00004f18 <__udivmodsi4>:
    4f18:	a1 e2       	ldi	r26, 0x21	; 33
    4f1a:	1a 2e       	mov	r1, r26
    4f1c:	aa 1b       	sub	r26, r26
    4f1e:	bb 1b       	sub	r27, r27
    4f20:	fd 01       	movw	r30, r26
    4f22:	0d c0       	rjmp	.+26     	; 0x4f3e <__udivmodsi4_ep>

00004f24 <__udivmodsi4_loop>:
    4f24:	aa 1f       	adc	r26, r26
    4f26:	bb 1f       	adc	r27, r27
    4f28:	ee 1f       	adc	r30, r30
    4f2a:	ff 1f       	adc	r31, r31
    4f2c:	a2 17       	cp	r26, r18
    4f2e:	b3 07       	cpc	r27, r19
    4f30:	e4 07       	cpc	r30, r20
    4f32:	f5 07       	cpc	r31, r21
    4f34:	20 f0       	brcs	.+8      	; 0x4f3e <__udivmodsi4_ep>
    4f36:	a2 1b       	sub	r26, r18
    4f38:	b3 0b       	sbc	r27, r19
    4f3a:	e4 0b       	sbc	r30, r20
    4f3c:	f5 0b       	sbc	r31, r21

00004f3e <__udivmodsi4_ep>:
    4f3e:	66 1f       	adc	r22, r22
    4f40:	77 1f       	adc	r23, r23
    4f42:	88 1f       	adc	r24, r24
    4f44:	99 1f       	adc	r25, r25
    4f46:	1a 94       	dec	r1
    4f48:	69 f7       	brne	.-38     	; 0x4f24 <__udivmodsi4_loop>
    4f4a:	60 95       	com	r22
    4f4c:	70 95       	com	r23
    4f4e:	80 95       	com	r24
    4f50:	90 95       	com	r25
    4f52:	9b 01       	movw	r18, r22
    4f54:	ac 01       	movw	r20, r24
    4f56:	bd 01       	movw	r22, r26
    4f58:	cf 01       	movw	r24, r30
    4f5a:	08 95       	ret

00004f5c <__udivmodhi4>:
    4f5c:	aa 1b       	sub	r26, r26
    4f5e:	bb 1b       	sub	r27, r27
    4f60:	51 e1       	ldi	r21, 0x11	; 17
    4f62:	07 c0       	rjmp	.+14     	; 0x4f72 <__udivmodhi4_ep>

00004f64 <__udivmodhi4_loop>:
    4f64:	aa 1f       	adc	r26, r26
    4f66:	bb 1f       	adc	r27, r27
    4f68:	a6 17       	cp	r26, r22
    4f6a:	b7 07       	cpc	r27, r23
    4f6c:	10 f0       	brcs	.+4      	; 0x4f72 <__udivmodhi4_ep>
    4f6e:	a6 1b       	sub	r26, r22
    4f70:	b7 0b       	sbc	r27, r23

00004f72 <__udivmodhi4_ep>:
    4f72:	88 1f       	adc	r24, r24
    4f74:	99 1f       	adc	r25, r25
    4f76:	5a 95       	dec	r21
    4f78:	a9 f7       	brne	.-22     	; 0x4f64 <__udivmodhi4_loop>
    4f7a:	80 95       	com	r24
    4f7c:	90 95       	com	r25
    4f7e:	bc 01       	movw	r22, r24
    4f80:	cd 01       	movw	r24, r26
    4f82:	08 95       	ret

00004f84 <memcpy>:
    4f84:	fb 01       	movw	r30, r22
    4f86:	dc 01       	movw	r26, r24
    4f88:	02 c0       	rjmp	.+4      	; 0x4f8e <memcpy+0xa>
    4f8a:	01 90       	ld	r0, Z+
    4f8c:	0d 92       	st	X+, r0
    4f8e:	41 50       	subi	r20, 0x01	; 1
    4f90:	50 40       	sbci	r21, 0x00	; 0
    4f92:	d8 f7       	brcc	.-10     	; 0x4f8a <memcpy+0x6>
    4f94:	08 95       	ret

00004f96 <memset>:
    4f96:	dc 01       	movw	r26, r24
    4f98:	01 c0       	rjmp	.+2      	; 0x4f9c <memset+0x6>
    4f9a:	6d 93       	st	X+, r22
    4f9c:	41 50       	subi	r20, 0x01	; 1
    4f9e:	50 40       	sbci	r21, 0x00	; 0
    4fa0:	e0 f7       	brcc	.-8      	; 0x4f9a <memset+0x4>
    4fa2:	08 95       	ret

00004fa4 <strlen>:
    4fa4:	fc 01       	movw	r30, r24
    4fa6:	01 90       	ld	r0, Z+
    4fa8:	00 20       	and	r0, r0
    4faa:	e9 f7       	brne	.-6      	; 0x4fa6 <strlen+0x2>
    4fac:	80 95       	com	r24
    4fae:	90 95       	com	r25
    4fb0:	8e 0f       	add	r24, r30
    4fb2:	9f 1f       	adc	r25, r31
    4fb4:	08 95       	ret

00004fb6 <_exit>:
    4fb6:	f8 94       	cli

00004fb8 <__stop_program>:
    4fb8:	ff cf       	rjmp	.-2      	; 0x4fb8 <__stop_program>
